ARM GAS  C:\Users\16323\AppData\Local\Temp\ccbQ7VoP.s 			page 1


   1              		.cpu cortex-m4
   2              		.arch armv7e-m
   3              		.fpu fpv4-sp-d16
   4              		.eabi_attribute 27, 1
   5              		.eabi_attribute 28, 1
   6              		.eabi_attribute 20, 1
   7              		.eabi_attribute 21, 1
   8              		.eabi_attribute 23, 3
   9              		.eabi_attribute 24, 1
  10              		.eabi_attribute 25, 1
  11              		.eabi_attribute 26, 1
  12              		.eabi_attribute 30, 6
  13              		.eabi_attribute 34, 1
  14              		.eabi_attribute 18, 4
  15              		.file	"stm32f4xx_hal_spi.c"
  16              		.text
  17              	.Ltext0:
  18              		.cfi_sections	.debug_frame
  19              		.section	.text.HAL_SPI_Init,"ax",%progbits
  20              		.align	1
  21              		.global	HAL_SPI_Init
  22              		.syntax unified
  23              		.thumb
  24              		.thumb_func
  26              	HAL_SPI_Init:
  27              	.LFB239:
  28              		.file 1 "Drivers/STM32F4xx_HAL_Driver/Src/stm32f4xx_hal_spi.c"
   1:Drivers/STM32F4xx_HAL_Driver/Src/stm32f4xx_hal_spi.c **** /**
   2:Drivers/STM32F4xx_HAL_Driver/Src/stm32f4xx_hal_spi.c ****   ******************************************************************************
   3:Drivers/STM32F4xx_HAL_Driver/Src/stm32f4xx_hal_spi.c ****   * @file    stm32f4xx_hal_spi.c
   4:Drivers/STM32F4xx_HAL_Driver/Src/stm32f4xx_hal_spi.c ****   * @author  MCD Application Team
   5:Drivers/STM32F4xx_HAL_Driver/Src/stm32f4xx_hal_spi.c ****   * @brief   SPI HAL module driver.
   6:Drivers/STM32F4xx_HAL_Driver/Src/stm32f4xx_hal_spi.c ****   *          This file provides firmware functions to manage the following
   7:Drivers/STM32F4xx_HAL_Driver/Src/stm32f4xx_hal_spi.c ****   *          functionalities of the Serial Peripheral Interface (SPI) peripheral:
   8:Drivers/STM32F4xx_HAL_Driver/Src/stm32f4xx_hal_spi.c ****   *           + Initialization and de-initialization functions
   9:Drivers/STM32F4xx_HAL_Driver/Src/stm32f4xx_hal_spi.c ****   *           + IO operation functions
  10:Drivers/STM32F4xx_HAL_Driver/Src/stm32f4xx_hal_spi.c ****   *           + Peripheral Control functions
  11:Drivers/STM32F4xx_HAL_Driver/Src/stm32f4xx_hal_spi.c ****   *           + Peripheral State functions
  12:Drivers/STM32F4xx_HAL_Driver/Src/stm32f4xx_hal_spi.c ****   ******************************************************************************
  13:Drivers/STM32F4xx_HAL_Driver/Src/stm32f4xx_hal_spi.c ****   * @attention
  14:Drivers/STM32F4xx_HAL_Driver/Src/stm32f4xx_hal_spi.c ****   *
  15:Drivers/STM32F4xx_HAL_Driver/Src/stm32f4xx_hal_spi.c ****   * Copyright (c) 2016 STMicroelectronics.
  16:Drivers/STM32F4xx_HAL_Driver/Src/stm32f4xx_hal_spi.c ****   * All rights reserved.
  17:Drivers/STM32F4xx_HAL_Driver/Src/stm32f4xx_hal_spi.c ****   *
  18:Drivers/STM32F4xx_HAL_Driver/Src/stm32f4xx_hal_spi.c ****   * This software is licensed under terms that can be found in the LICENSE file
  19:Drivers/STM32F4xx_HAL_Driver/Src/stm32f4xx_hal_spi.c ****   * in the root directory of this software component.
  20:Drivers/STM32F4xx_HAL_Driver/Src/stm32f4xx_hal_spi.c ****   * If no LICENSE file comes with this software, it is provided AS-IS.
  21:Drivers/STM32F4xx_HAL_Driver/Src/stm32f4xx_hal_spi.c ****   *
  22:Drivers/STM32F4xx_HAL_Driver/Src/stm32f4xx_hal_spi.c ****   ******************************************************************************
  23:Drivers/STM32F4xx_HAL_Driver/Src/stm32f4xx_hal_spi.c ****   @verbatim
  24:Drivers/STM32F4xx_HAL_Driver/Src/stm32f4xx_hal_spi.c ****   ==============================================================================
  25:Drivers/STM32F4xx_HAL_Driver/Src/stm32f4xx_hal_spi.c ****                         ##### How to use this driver #####
  26:Drivers/STM32F4xx_HAL_Driver/Src/stm32f4xx_hal_spi.c ****   ==============================================================================
  27:Drivers/STM32F4xx_HAL_Driver/Src/stm32f4xx_hal_spi.c ****     [..]
  28:Drivers/STM32F4xx_HAL_Driver/Src/stm32f4xx_hal_spi.c ****       The SPI HAL driver can be used as follows:
  29:Drivers/STM32F4xx_HAL_Driver/Src/stm32f4xx_hal_spi.c **** 
  30:Drivers/STM32F4xx_HAL_Driver/Src/stm32f4xx_hal_spi.c ****       (#) Declare a SPI_HandleTypeDef handle structure, for example:
ARM GAS  C:\Users\16323\AppData\Local\Temp\ccbQ7VoP.s 			page 2


  31:Drivers/STM32F4xx_HAL_Driver/Src/stm32f4xx_hal_spi.c ****           SPI_HandleTypeDef  hspi;
  32:Drivers/STM32F4xx_HAL_Driver/Src/stm32f4xx_hal_spi.c **** 
  33:Drivers/STM32F4xx_HAL_Driver/Src/stm32f4xx_hal_spi.c ****       (#)Initialize the SPI low level resources by implementing the HAL_SPI_MspInit() API:
  34:Drivers/STM32F4xx_HAL_Driver/Src/stm32f4xx_hal_spi.c ****           (##) Enable the SPIx interface clock
  35:Drivers/STM32F4xx_HAL_Driver/Src/stm32f4xx_hal_spi.c ****           (##) SPI pins configuration
  36:Drivers/STM32F4xx_HAL_Driver/Src/stm32f4xx_hal_spi.c ****               (+++) Enable the clock for the SPI GPIOs
  37:Drivers/STM32F4xx_HAL_Driver/Src/stm32f4xx_hal_spi.c ****               (+++) Configure these SPI pins as alternate function push-pull
  38:Drivers/STM32F4xx_HAL_Driver/Src/stm32f4xx_hal_spi.c ****           (##) NVIC configuration if you need to use interrupt process
  39:Drivers/STM32F4xx_HAL_Driver/Src/stm32f4xx_hal_spi.c ****               (+++) Configure the SPIx interrupt priority
  40:Drivers/STM32F4xx_HAL_Driver/Src/stm32f4xx_hal_spi.c ****               (+++) Enable the NVIC SPI IRQ handle
  41:Drivers/STM32F4xx_HAL_Driver/Src/stm32f4xx_hal_spi.c ****           (##) DMA Configuration if you need to use DMA process
  42:Drivers/STM32F4xx_HAL_Driver/Src/stm32f4xx_hal_spi.c ****               (+++) Declare a DMA_HandleTypeDef handle structure for the transmit or receive Stream
  43:Drivers/STM32F4xx_HAL_Driver/Src/stm32f4xx_hal_spi.c ****               (+++) Enable the DMAx clock
  44:Drivers/STM32F4xx_HAL_Driver/Src/stm32f4xx_hal_spi.c ****               (+++) Configure the DMA handle parameters
  45:Drivers/STM32F4xx_HAL_Driver/Src/stm32f4xx_hal_spi.c ****               (+++) Configure the DMA Tx or Rx Stream/Channel
  46:Drivers/STM32F4xx_HAL_Driver/Src/stm32f4xx_hal_spi.c ****               (+++) Associate the initialized hdma_tx(or _rx)  handle to the hspi DMA Tx or Rx hand
  47:Drivers/STM32F4xx_HAL_Driver/Src/stm32f4xx_hal_spi.c ****               (+++) Configure the priority and enable the NVIC for the transfer complete interrupt 
  48:Drivers/STM32F4xx_HAL_Driver/Src/stm32f4xx_hal_spi.c **** 
  49:Drivers/STM32F4xx_HAL_Driver/Src/stm32f4xx_hal_spi.c ****       (#) Program the Mode, BidirectionalMode , Data size, Baudrate Prescaler, NSS
  50:Drivers/STM32F4xx_HAL_Driver/Src/stm32f4xx_hal_spi.c ****           management, Clock polarity and phase, FirstBit and CRC configuration in the hspi Init str
  51:Drivers/STM32F4xx_HAL_Driver/Src/stm32f4xx_hal_spi.c **** 
  52:Drivers/STM32F4xx_HAL_Driver/Src/stm32f4xx_hal_spi.c ****       (#) Initialize the SPI registers by calling the HAL_SPI_Init() API:
  53:Drivers/STM32F4xx_HAL_Driver/Src/stm32f4xx_hal_spi.c ****           (++) This API configures also the low level Hardware GPIO, CLOCK, CORTEX...etc)
  54:Drivers/STM32F4xx_HAL_Driver/Src/stm32f4xx_hal_spi.c ****               by calling the customized HAL_SPI_MspInit() API.
  55:Drivers/STM32F4xx_HAL_Driver/Src/stm32f4xx_hal_spi.c ****      [..]
  56:Drivers/STM32F4xx_HAL_Driver/Src/stm32f4xx_hal_spi.c ****        Circular mode restriction:
  57:Drivers/STM32F4xx_HAL_Driver/Src/stm32f4xx_hal_spi.c ****       (#) The DMA circular mode cannot be used when the SPI is configured in these modes:
  58:Drivers/STM32F4xx_HAL_Driver/Src/stm32f4xx_hal_spi.c ****           (##) Master 2Lines RxOnly
  59:Drivers/STM32F4xx_HAL_Driver/Src/stm32f4xx_hal_spi.c ****           (##) Master 1Line Rx
  60:Drivers/STM32F4xx_HAL_Driver/Src/stm32f4xx_hal_spi.c ****       (#) The CRC feature is not managed when the DMA circular mode is enabled
  61:Drivers/STM32F4xx_HAL_Driver/Src/stm32f4xx_hal_spi.c ****       (#) When the SPI DMA Pause/Stop features are used, we must use the following APIs
  62:Drivers/STM32F4xx_HAL_Driver/Src/stm32f4xx_hal_spi.c ****           the HAL_SPI_DMAPause()/ HAL_SPI_DMAStop() only under the SPI callbacks
  63:Drivers/STM32F4xx_HAL_Driver/Src/stm32f4xx_hal_spi.c ****      [..]
  64:Drivers/STM32F4xx_HAL_Driver/Src/stm32f4xx_hal_spi.c ****        Master Receive mode restriction:
  65:Drivers/STM32F4xx_HAL_Driver/Src/stm32f4xx_hal_spi.c ****       (#) In Master unidirectional receive-only mode (MSTR =1, BIDIMODE=0, RXONLY=1) or
  66:Drivers/STM32F4xx_HAL_Driver/Src/stm32f4xx_hal_spi.c ****           bidirectional receive mode (MSTR=1, BIDIMODE=1, BIDIOE=0), to ensure that the SPI
  67:Drivers/STM32F4xx_HAL_Driver/Src/stm32f4xx_hal_spi.c ****           does not initiate a new transfer the following procedure has to be respected:
  68:Drivers/STM32F4xx_HAL_Driver/Src/stm32f4xx_hal_spi.c ****           (##) HAL_SPI_DeInit()
  69:Drivers/STM32F4xx_HAL_Driver/Src/stm32f4xx_hal_spi.c ****           (##) HAL_SPI_Init()
  70:Drivers/STM32F4xx_HAL_Driver/Src/stm32f4xx_hal_spi.c ****      [..]
  71:Drivers/STM32F4xx_HAL_Driver/Src/stm32f4xx_hal_spi.c ****        Callback registration:
  72:Drivers/STM32F4xx_HAL_Driver/Src/stm32f4xx_hal_spi.c **** 
  73:Drivers/STM32F4xx_HAL_Driver/Src/stm32f4xx_hal_spi.c ****       (#) The compilation flag USE_HAL_SPI_REGISTER_CALLBACKS when set to 1U
  74:Drivers/STM32F4xx_HAL_Driver/Src/stm32f4xx_hal_spi.c ****           allows the user to configure dynamically the driver callbacks.
  75:Drivers/STM32F4xx_HAL_Driver/Src/stm32f4xx_hal_spi.c ****           Use Functions HAL_SPI_RegisterCallback() to register an interrupt callback.
  76:Drivers/STM32F4xx_HAL_Driver/Src/stm32f4xx_hal_spi.c **** 
  77:Drivers/STM32F4xx_HAL_Driver/Src/stm32f4xx_hal_spi.c ****           Function HAL_SPI_RegisterCallback() allows to register following callbacks:
  78:Drivers/STM32F4xx_HAL_Driver/Src/stm32f4xx_hal_spi.c ****             (++) TxCpltCallback        : SPI Tx Completed callback
  79:Drivers/STM32F4xx_HAL_Driver/Src/stm32f4xx_hal_spi.c ****             (++) RxCpltCallback        : SPI Rx Completed callback
  80:Drivers/STM32F4xx_HAL_Driver/Src/stm32f4xx_hal_spi.c ****             (++) TxRxCpltCallback      : SPI TxRx Completed callback
  81:Drivers/STM32F4xx_HAL_Driver/Src/stm32f4xx_hal_spi.c ****             (++) TxHalfCpltCallback    : SPI Tx Half Completed callback
  82:Drivers/STM32F4xx_HAL_Driver/Src/stm32f4xx_hal_spi.c ****             (++) RxHalfCpltCallback    : SPI Rx Half Completed callback
  83:Drivers/STM32F4xx_HAL_Driver/Src/stm32f4xx_hal_spi.c ****             (++) TxRxHalfCpltCallback  : SPI TxRx Half Completed callback
  84:Drivers/STM32F4xx_HAL_Driver/Src/stm32f4xx_hal_spi.c ****             (++) ErrorCallback         : SPI Error callback
  85:Drivers/STM32F4xx_HAL_Driver/Src/stm32f4xx_hal_spi.c ****             (++) AbortCpltCallback     : SPI Abort callback
  86:Drivers/STM32F4xx_HAL_Driver/Src/stm32f4xx_hal_spi.c ****             (++) MspInitCallback       : SPI Msp Init callback
  87:Drivers/STM32F4xx_HAL_Driver/Src/stm32f4xx_hal_spi.c ****             (++) MspDeInitCallback     : SPI Msp DeInit callback
ARM GAS  C:\Users\16323\AppData\Local\Temp\ccbQ7VoP.s 			page 3


  88:Drivers/STM32F4xx_HAL_Driver/Src/stm32f4xx_hal_spi.c ****           This function takes as parameters the HAL peripheral handle, the Callback ID
  89:Drivers/STM32F4xx_HAL_Driver/Src/stm32f4xx_hal_spi.c ****           and a pointer to the user callback function.
  90:Drivers/STM32F4xx_HAL_Driver/Src/stm32f4xx_hal_spi.c **** 
  91:Drivers/STM32F4xx_HAL_Driver/Src/stm32f4xx_hal_spi.c **** 
  92:Drivers/STM32F4xx_HAL_Driver/Src/stm32f4xx_hal_spi.c ****       (#) Use function HAL_SPI_UnRegisterCallback to reset a callback to the default
  93:Drivers/STM32F4xx_HAL_Driver/Src/stm32f4xx_hal_spi.c ****           weak function.
  94:Drivers/STM32F4xx_HAL_Driver/Src/stm32f4xx_hal_spi.c ****           HAL_SPI_UnRegisterCallback takes as parameters the HAL peripheral handle,
  95:Drivers/STM32F4xx_HAL_Driver/Src/stm32f4xx_hal_spi.c ****           and the Callback ID.
  96:Drivers/STM32F4xx_HAL_Driver/Src/stm32f4xx_hal_spi.c ****           This function allows to reset following callbacks:
  97:Drivers/STM32F4xx_HAL_Driver/Src/stm32f4xx_hal_spi.c ****             (++) TxCpltCallback        : SPI Tx Completed callback
  98:Drivers/STM32F4xx_HAL_Driver/Src/stm32f4xx_hal_spi.c ****             (++) RxCpltCallback        : SPI Rx Completed callback
  99:Drivers/STM32F4xx_HAL_Driver/Src/stm32f4xx_hal_spi.c ****             (++) TxRxCpltCallback      : SPI TxRx Completed callback
 100:Drivers/STM32F4xx_HAL_Driver/Src/stm32f4xx_hal_spi.c ****             (++) TxHalfCpltCallback    : SPI Tx Half Completed callback
 101:Drivers/STM32F4xx_HAL_Driver/Src/stm32f4xx_hal_spi.c ****             (++) RxHalfCpltCallback    : SPI Rx Half Completed callback
 102:Drivers/STM32F4xx_HAL_Driver/Src/stm32f4xx_hal_spi.c ****             (++) TxRxHalfCpltCallback  : SPI TxRx Half Completed callback
 103:Drivers/STM32F4xx_HAL_Driver/Src/stm32f4xx_hal_spi.c ****             (++) ErrorCallback         : SPI Error callback
 104:Drivers/STM32F4xx_HAL_Driver/Src/stm32f4xx_hal_spi.c ****             (++) AbortCpltCallback     : SPI Abort callback
 105:Drivers/STM32F4xx_HAL_Driver/Src/stm32f4xx_hal_spi.c ****             (++) MspInitCallback       : SPI Msp Init callback
 106:Drivers/STM32F4xx_HAL_Driver/Src/stm32f4xx_hal_spi.c ****             (++) MspDeInitCallback     : SPI Msp DeInit callback
 107:Drivers/STM32F4xx_HAL_Driver/Src/stm32f4xx_hal_spi.c **** 
 108:Drivers/STM32F4xx_HAL_Driver/Src/stm32f4xx_hal_spi.c ****        [..]
 109:Drivers/STM32F4xx_HAL_Driver/Src/stm32f4xx_hal_spi.c ****        By default, after the HAL_SPI_Init() and when the state is HAL_SPI_STATE_RESET
 110:Drivers/STM32F4xx_HAL_Driver/Src/stm32f4xx_hal_spi.c ****        all callbacks are set to the corresponding weak functions:
 111:Drivers/STM32F4xx_HAL_Driver/Src/stm32f4xx_hal_spi.c ****        examples HAL_SPI_MasterTxCpltCallback(), HAL_SPI_MasterRxCpltCallback().
 112:Drivers/STM32F4xx_HAL_Driver/Src/stm32f4xx_hal_spi.c ****        Exception done for MspInit and MspDeInit functions that are
 113:Drivers/STM32F4xx_HAL_Driver/Src/stm32f4xx_hal_spi.c ****        reset to the legacy weak functions in the HAL_SPI_Init()/ HAL_SPI_DeInit() only when
 114:Drivers/STM32F4xx_HAL_Driver/Src/stm32f4xx_hal_spi.c ****        these callbacks are null (not registered beforehand).
 115:Drivers/STM32F4xx_HAL_Driver/Src/stm32f4xx_hal_spi.c ****        If MspInit or MspDeInit are not null, the HAL_SPI_Init()/ HAL_SPI_DeInit()
 116:Drivers/STM32F4xx_HAL_Driver/Src/stm32f4xx_hal_spi.c ****        keep and use the user MspInit/MspDeInit callbacks (registered beforehand) whatever the state
 117:Drivers/STM32F4xx_HAL_Driver/Src/stm32f4xx_hal_spi.c **** 
 118:Drivers/STM32F4xx_HAL_Driver/Src/stm32f4xx_hal_spi.c ****        [..]
 119:Drivers/STM32F4xx_HAL_Driver/Src/stm32f4xx_hal_spi.c ****        Callbacks can be registered/unregistered in HAL_SPI_STATE_READY state only.
 120:Drivers/STM32F4xx_HAL_Driver/Src/stm32f4xx_hal_spi.c ****        Exception done MspInit/MspDeInit functions that can be registered/unregistered
 121:Drivers/STM32F4xx_HAL_Driver/Src/stm32f4xx_hal_spi.c ****        in HAL_SPI_STATE_READY or HAL_SPI_STATE_RESET state,
 122:Drivers/STM32F4xx_HAL_Driver/Src/stm32f4xx_hal_spi.c ****        thus registered (user) MspInit/DeInit callbacks can be used during the Init/DeInit.
 123:Drivers/STM32F4xx_HAL_Driver/Src/stm32f4xx_hal_spi.c ****        Then, the user first registers the MspInit/MspDeInit user callbacks
 124:Drivers/STM32F4xx_HAL_Driver/Src/stm32f4xx_hal_spi.c ****        using HAL_SPI_RegisterCallback() before calling HAL_SPI_DeInit()
 125:Drivers/STM32F4xx_HAL_Driver/Src/stm32f4xx_hal_spi.c ****        or HAL_SPI_Init() function.
 126:Drivers/STM32F4xx_HAL_Driver/Src/stm32f4xx_hal_spi.c **** 
 127:Drivers/STM32F4xx_HAL_Driver/Src/stm32f4xx_hal_spi.c ****        [..]
 128:Drivers/STM32F4xx_HAL_Driver/Src/stm32f4xx_hal_spi.c ****        When the compilation define USE_HAL_PPP_REGISTER_CALLBACKS is set to 0 or
 129:Drivers/STM32F4xx_HAL_Driver/Src/stm32f4xx_hal_spi.c ****        not defined, the callback registering feature is not available
 130:Drivers/STM32F4xx_HAL_Driver/Src/stm32f4xx_hal_spi.c ****        and weak (surcharged) callbacks are used.
 131:Drivers/STM32F4xx_HAL_Driver/Src/stm32f4xx_hal_spi.c **** 
 132:Drivers/STM32F4xx_HAL_Driver/Src/stm32f4xx_hal_spi.c ****      [..]
 133:Drivers/STM32F4xx_HAL_Driver/Src/stm32f4xx_hal_spi.c ****        Using the HAL it is not possible to reach all supported SPI frequency with the different SPI
 134:Drivers/STM32F4xx_HAL_Driver/Src/stm32f4xx_hal_spi.c ****        the following table resume the max SPI frequency reached with data size 8bits/16bits,
 135:Drivers/STM32F4xx_HAL_Driver/Src/stm32f4xx_hal_spi.c ****          according to frequency of the APBx Peripheral Clock (fPCLK) used by the SPI instance.
 136:Drivers/STM32F4xx_HAL_Driver/Src/stm32f4xx_hal_spi.c **** 
 137:Drivers/STM32F4xx_HAL_Driver/Src/stm32f4xx_hal_spi.c ****   @endverbatim
 138:Drivers/STM32F4xx_HAL_Driver/Src/stm32f4xx_hal_spi.c **** 
 139:Drivers/STM32F4xx_HAL_Driver/Src/stm32f4xx_hal_spi.c ****   Additional table :
 140:Drivers/STM32F4xx_HAL_Driver/Src/stm32f4xx_hal_spi.c **** 
 141:Drivers/STM32F4xx_HAL_Driver/Src/stm32f4xx_hal_spi.c ****        DataSize = SPI_DATASIZE_8BIT:
 142:Drivers/STM32F4xx_HAL_Driver/Src/stm32f4xx_hal_spi.c ****        +-------------------------------------------------------------------------------------------
 143:Drivers/STM32F4xx_HAL_Driver/Src/stm32f4xx_hal_spi.c ****        |         |                | 2Lines Fullduplex   |     2Lines RxOnly    |         1Line     
 144:Drivers/STM32F4xx_HAL_Driver/Src/stm32f4xx_hal_spi.c ****        | Process | Transfer mode  |---------------------|----------------------|-------------------
ARM GAS  C:\Users\16323\AppData\Local\Temp\ccbQ7VoP.s 			page 4


 145:Drivers/STM32F4xx_HAL_Driver/Src/stm32f4xx_hal_spi.c ****        |         |                |  Master  |  Slave   |  Master   |  Slave   |  Master   |  Slave
 146:Drivers/STM32F4xx_HAL_Driver/Src/stm32f4xx_hal_spi.c ****        |===========================================================================================
 147:Drivers/STM32F4xx_HAL_Driver/Src/stm32f4xx_hal_spi.c ****        |    T    |     Polling    | Fpclk/2  | Fpclk/2  |    NA     |    NA    |    NA     |   NA  
 148:Drivers/STM32F4xx_HAL_Driver/Src/stm32f4xx_hal_spi.c ****        |    X    |----------------|----------|----------|-----------|----------|-----------|-------
 149:Drivers/STM32F4xx_HAL_Driver/Src/stm32f4xx_hal_spi.c ****        |    /    |     Interrupt  | Fpclk/4  | Fpclk/8  |    NA     |    NA    |    NA     |   NA  
 150:Drivers/STM32F4xx_HAL_Driver/Src/stm32f4xx_hal_spi.c ****        |    R    |----------------|----------|----------|-----------|----------|-----------|-------
 151:Drivers/STM32F4xx_HAL_Driver/Src/stm32f4xx_hal_spi.c ****        |    X    |       DMA      | Fpclk/2  | Fpclk/2  |    NA     |    NA    |    NA     |   NA  
 152:Drivers/STM32F4xx_HAL_Driver/Src/stm32f4xx_hal_spi.c ****        |=========|================|==========|==========|===========|==========|===========|=======
 153:Drivers/STM32F4xx_HAL_Driver/Src/stm32f4xx_hal_spi.c ****        |         |     Polling    | Fpclk/2  | Fpclk/2  | Fpclk/64  | Fpclk/2  | Fpclk/64  | Fpclk/
 154:Drivers/STM32F4xx_HAL_Driver/Src/stm32f4xx_hal_spi.c ****        |         |----------------|----------|----------|-----------|----------|-----------|-------
 155:Drivers/STM32F4xx_HAL_Driver/Src/stm32f4xx_hal_spi.c ****        |    R    |     Interrupt  | Fpclk/8  | Fpclk/8  | Fpclk/64  | Fpclk/2  | Fpclk/64  | Fpclk/
 156:Drivers/STM32F4xx_HAL_Driver/Src/stm32f4xx_hal_spi.c ****        |    X    |----------------|----------|----------|-----------|----------|-----------|-------
 157:Drivers/STM32F4xx_HAL_Driver/Src/stm32f4xx_hal_spi.c ****        |         |       DMA      | Fpclk/2  | Fpclk/2  | Fpclk/64  | Fpclk/2  | Fpclk/128 | Fpclk/
 158:Drivers/STM32F4xx_HAL_Driver/Src/stm32f4xx_hal_spi.c ****        |=========|================|==========|==========|===========|==========|===========|=======
 159:Drivers/STM32F4xx_HAL_Driver/Src/stm32f4xx_hal_spi.c ****        |         |     Polling    | Fpclk/2  | Fpclk/4  |     NA    |    NA    | Fpclk/2   | Fpclk/
 160:Drivers/STM32F4xx_HAL_Driver/Src/stm32f4xx_hal_spi.c ****        |         |----------------|----------|----------|-----------|----------|-----------|-------
 161:Drivers/STM32F4xx_HAL_Driver/Src/stm32f4xx_hal_spi.c ****        |    T    |     Interrupt  | Fpclk/2  | Fpclk/4  |     NA    |    NA    | Fpclk/2   | Fpclk/
 162:Drivers/STM32F4xx_HAL_Driver/Src/stm32f4xx_hal_spi.c ****        |    X    |----------------|----------|----------|-----------|----------|-----------|-------
 163:Drivers/STM32F4xx_HAL_Driver/Src/stm32f4xx_hal_spi.c ****        |         |       DMA      | Fpclk/2  | Fpclk/2  |     NA    |    NA    | Fpclk/2   | Fpclk/
 164:Drivers/STM32F4xx_HAL_Driver/Src/stm32f4xx_hal_spi.c ****        +-------------------------------------------------------------------------------------------
 165:Drivers/STM32F4xx_HAL_Driver/Src/stm32f4xx_hal_spi.c **** 
 166:Drivers/STM32F4xx_HAL_Driver/Src/stm32f4xx_hal_spi.c ****        DataSize = SPI_DATASIZE_16BIT:
 167:Drivers/STM32F4xx_HAL_Driver/Src/stm32f4xx_hal_spi.c ****        +-------------------------------------------------------------------------------------------
 168:Drivers/STM32F4xx_HAL_Driver/Src/stm32f4xx_hal_spi.c ****        |         |                | 2Lines Fullduplex   |     2Lines RxOnly    |         1Line     
 169:Drivers/STM32F4xx_HAL_Driver/Src/stm32f4xx_hal_spi.c ****        | Process | Transfer mode  |---------------------|----------------------|-------------------
 170:Drivers/STM32F4xx_HAL_Driver/Src/stm32f4xx_hal_spi.c ****        |         |                |  Master  |  Slave   |  Master   |  Slave   |  Master   |  Slave
 171:Drivers/STM32F4xx_HAL_Driver/Src/stm32f4xx_hal_spi.c ****        |===========================================================================================
 172:Drivers/STM32F4xx_HAL_Driver/Src/stm32f4xx_hal_spi.c ****        |    T    |     Polling    | Fpclk/2  | Fpclk/2  |    NA     |    NA    |    NA     |   NA  
 173:Drivers/STM32F4xx_HAL_Driver/Src/stm32f4xx_hal_spi.c ****        |    X    |----------------|----------|----------|-----------|----------|-----------|-------
 174:Drivers/STM32F4xx_HAL_Driver/Src/stm32f4xx_hal_spi.c ****        |    /    |     Interrupt  | Fpclk/4  | Fpclk/4  |    NA     |    NA    |    NA     |   NA  
 175:Drivers/STM32F4xx_HAL_Driver/Src/stm32f4xx_hal_spi.c ****        |    R    |----------------|----------|----------|-----------|----------|-----------|-------
 176:Drivers/STM32F4xx_HAL_Driver/Src/stm32f4xx_hal_spi.c ****        |    X    |       DMA      | Fpclk/2  | Fpclk/2  |    NA     |    NA    |    NA     |   NA  
 177:Drivers/STM32F4xx_HAL_Driver/Src/stm32f4xx_hal_spi.c ****        |=========|================|==========|==========|===========|==========|===========|=======
 178:Drivers/STM32F4xx_HAL_Driver/Src/stm32f4xx_hal_spi.c ****        |         |     Polling    | Fpclk/2  | Fpclk/2  | Fpclk/64  | Fpclk/2  | Fpclk/32  | Fpclk/
 179:Drivers/STM32F4xx_HAL_Driver/Src/stm32f4xx_hal_spi.c ****        |         |----------------|----------|----------|-----------|----------|-----------|-------
 180:Drivers/STM32F4xx_HAL_Driver/Src/stm32f4xx_hal_spi.c ****        |    R    |     Interrupt  | Fpclk/4  | Fpclk/4  | Fpclk/64  | Fpclk/2  | Fpclk/64  | Fpclk/
 181:Drivers/STM32F4xx_HAL_Driver/Src/stm32f4xx_hal_spi.c ****        |    X    |----------------|----------|----------|-----------|----------|-----------|-------
 182:Drivers/STM32F4xx_HAL_Driver/Src/stm32f4xx_hal_spi.c ****        |         |       DMA      | Fpclk/2  | Fpclk/2  | Fpclk/64  | Fpclk/2  | Fpclk/128 | Fpclk/
 183:Drivers/STM32F4xx_HAL_Driver/Src/stm32f4xx_hal_spi.c ****        |=========|================|==========|==========|===========|==========|===========|=======
 184:Drivers/STM32F4xx_HAL_Driver/Src/stm32f4xx_hal_spi.c ****        |         |     Polling    | Fpclk/2  | Fpclk/2  |     NA    |    NA    | Fpclk/2   | Fpclk/
 185:Drivers/STM32F4xx_HAL_Driver/Src/stm32f4xx_hal_spi.c ****        |         |----------------|----------|----------|-----------|----------|-----------|-------
 186:Drivers/STM32F4xx_HAL_Driver/Src/stm32f4xx_hal_spi.c ****        |    T    |     Interrupt  | Fpclk/2  | Fpclk/2  |     NA    |    NA    | Fpclk/2   | Fpclk/
 187:Drivers/STM32F4xx_HAL_Driver/Src/stm32f4xx_hal_spi.c ****        |    X    |----------------|----------|----------|-----------|----------|-----------|-------
 188:Drivers/STM32F4xx_HAL_Driver/Src/stm32f4xx_hal_spi.c ****        |         |       DMA      | Fpclk/2  | Fpclk/2  |     NA    |    NA    | Fpclk/2   | Fpclk/
 189:Drivers/STM32F4xx_HAL_Driver/Src/stm32f4xx_hal_spi.c ****        +-------------------------------------------------------------------------------------------
 190:Drivers/STM32F4xx_HAL_Driver/Src/stm32f4xx_hal_spi.c ****        @note The max SPI frequency depend on SPI data size (8bits, 16bits),
 191:Drivers/STM32F4xx_HAL_Driver/Src/stm32f4xx_hal_spi.c ****              SPI mode(2 Lines fullduplex, 2 lines RxOnly, 1 line TX/RX) and Process mode (Polling, 
 192:Drivers/STM32F4xx_HAL_Driver/Src/stm32f4xx_hal_spi.c ****        @note
 193:Drivers/STM32F4xx_HAL_Driver/Src/stm32f4xx_hal_spi.c ****             (#) TX/RX processes are HAL_SPI_TransmitReceive(), HAL_SPI_TransmitReceive_IT() and HAL
 194:Drivers/STM32F4xx_HAL_Driver/Src/stm32f4xx_hal_spi.c ****             (#) RX processes are HAL_SPI_Receive(), HAL_SPI_Receive_IT() and HAL_SPI_Receive_DMA()
 195:Drivers/STM32F4xx_HAL_Driver/Src/stm32f4xx_hal_spi.c ****             (#) TX processes are HAL_SPI_Transmit(), HAL_SPI_Transmit_IT() and HAL_SPI_Transmit_DMA
 196:Drivers/STM32F4xx_HAL_Driver/Src/stm32f4xx_hal_spi.c **** 
 197:Drivers/STM32F4xx_HAL_Driver/Src/stm32f4xx_hal_spi.c ****   */
 198:Drivers/STM32F4xx_HAL_Driver/Src/stm32f4xx_hal_spi.c **** 
 199:Drivers/STM32F4xx_HAL_Driver/Src/stm32f4xx_hal_spi.c **** /* Includes ------------------------------------------------------------------*/
 200:Drivers/STM32F4xx_HAL_Driver/Src/stm32f4xx_hal_spi.c **** #include "stm32f4xx_hal.h"
 201:Drivers/STM32F4xx_HAL_Driver/Src/stm32f4xx_hal_spi.c **** 
ARM GAS  C:\Users\16323\AppData\Local\Temp\ccbQ7VoP.s 			page 5


 202:Drivers/STM32F4xx_HAL_Driver/Src/stm32f4xx_hal_spi.c **** /** @addtogroup STM32F4xx_HAL_Driver
 203:Drivers/STM32F4xx_HAL_Driver/Src/stm32f4xx_hal_spi.c ****   * @{
 204:Drivers/STM32F4xx_HAL_Driver/Src/stm32f4xx_hal_spi.c ****   */
 205:Drivers/STM32F4xx_HAL_Driver/Src/stm32f4xx_hal_spi.c **** 
 206:Drivers/STM32F4xx_HAL_Driver/Src/stm32f4xx_hal_spi.c **** /** @defgroup SPI SPI
 207:Drivers/STM32F4xx_HAL_Driver/Src/stm32f4xx_hal_spi.c ****   * @brief SPI HAL module driver
 208:Drivers/STM32F4xx_HAL_Driver/Src/stm32f4xx_hal_spi.c ****   * @{
 209:Drivers/STM32F4xx_HAL_Driver/Src/stm32f4xx_hal_spi.c ****   */
 210:Drivers/STM32F4xx_HAL_Driver/Src/stm32f4xx_hal_spi.c **** #ifdef HAL_SPI_MODULE_ENABLED
 211:Drivers/STM32F4xx_HAL_Driver/Src/stm32f4xx_hal_spi.c **** 
 212:Drivers/STM32F4xx_HAL_Driver/Src/stm32f4xx_hal_spi.c **** /* Private typedef -----------------------------------------------------------*/
 213:Drivers/STM32F4xx_HAL_Driver/Src/stm32f4xx_hal_spi.c **** /* Private defines -----------------------------------------------------------*/
 214:Drivers/STM32F4xx_HAL_Driver/Src/stm32f4xx_hal_spi.c **** /** @defgroup SPI_Private_Constants SPI Private Constants
 215:Drivers/STM32F4xx_HAL_Driver/Src/stm32f4xx_hal_spi.c ****   * @{
 216:Drivers/STM32F4xx_HAL_Driver/Src/stm32f4xx_hal_spi.c ****   */
 217:Drivers/STM32F4xx_HAL_Driver/Src/stm32f4xx_hal_spi.c **** #define SPI_DEFAULT_TIMEOUT 100U
 218:Drivers/STM32F4xx_HAL_Driver/Src/stm32f4xx_hal_spi.c **** #define SPI_BSY_FLAG_WORKAROUND_TIMEOUT 1000U /*!< Timeout 1000 µs             */
 219:Drivers/STM32F4xx_HAL_Driver/Src/stm32f4xx_hal_spi.c **** /**
 220:Drivers/STM32F4xx_HAL_Driver/Src/stm32f4xx_hal_spi.c ****   * @}
 221:Drivers/STM32F4xx_HAL_Driver/Src/stm32f4xx_hal_spi.c ****   */
 222:Drivers/STM32F4xx_HAL_Driver/Src/stm32f4xx_hal_spi.c **** 
 223:Drivers/STM32F4xx_HAL_Driver/Src/stm32f4xx_hal_spi.c **** /* Private macros ------------------------------------------------------------*/
 224:Drivers/STM32F4xx_HAL_Driver/Src/stm32f4xx_hal_spi.c **** /* Private variables ---------------------------------------------------------*/
 225:Drivers/STM32F4xx_HAL_Driver/Src/stm32f4xx_hal_spi.c **** /* Private function prototypes -----------------------------------------------*/
 226:Drivers/STM32F4xx_HAL_Driver/Src/stm32f4xx_hal_spi.c **** /** @defgroup SPI_Private_Functions SPI Private Functions
 227:Drivers/STM32F4xx_HAL_Driver/Src/stm32f4xx_hal_spi.c ****   * @{
 228:Drivers/STM32F4xx_HAL_Driver/Src/stm32f4xx_hal_spi.c ****   */
 229:Drivers/STM32F4xx_HAL_Driver/Src/stm32f4xx_hal_spi.c **** static void SPI_DMATransmitCplt(DMA_HandleTypeDef *hdma);
 230:Drivers/STM32F4xx_HAL_Driver/Src/stm32f4xx_hal_spi.c **** static void SPI_DMAReceiveCplt(DMA_HandleTypeDef *hdma);
 231:Drivers/STM32F4xx_HAL_Driver/Src/stm32f4xx_hal_spi.c **** static void SPI_DMATransmitReceiveCplt(DMA_HandleTypeDef *hdma);
 232:Drivers/STM32F4xx_HAL_Driver/Src/stm32f4xx_hal_spi.c **** static void SPI_DMAHalfTransmitCplt(DMA_HandleTypeDef *hdma);
 233:Drivers/STM32F4xx_HAL_Driver/Src/stm32f4xx_hal_spi.c **** static void SPI_DMAHalfReceiveCplt(DMA_HandleTypeDef *hdma);
 234:Drivers/STM32F4xx_HAL_Driver/Src/stm32f4xx_hal_spi.c **** static void SPI_DMAHalfTransmitReceiveCplt(DMA_HandleTypeDef *hdma);
 235:Drivers/STM32F4xx_HAL_Driver/Src/stm32f4xx_hal_spi.c **** static void SPI_DMAError(DMA_HandleTypeDef *hdma);
 236:Drivers/STM32F4xx_HAL_Driver/Src/stm32f4xx_hal_spi.c **** static void SPI_DMAAbortOnError(DMA_HandleTypeDef *hdma);
 237:Drivers/STM32F4xx_HAL_Driver/Src/stm32f4xx_hal_spi.c **** static void SPI_DMATxAbortCallback(DMA_HandleTypeDef *hdma);
 238:Drivers/STM32F4xx_HAL_Driver/Src/stm32f4xx_hal_spi.c **** static void SPI_DMARxAbortCallback(DMA_HandleTypeDef *hdma);
 239:Drivers/STM32F4xx_HAL_Driver/Src/stm32f4xx_hal_spi.c **** static HAL_StatusTypeDef SPI_WaitFlagStateUntilTimeout(SPI_HandleTypeDef *hspi, uint32_t Flag, Flag
 240:Drivers/STM32F4xx_HAL_Driver/Src/stm32f4xx_hal_spi.c ****                                                        uint32_t Timeout, uint32_t Tickstart);
 241:Drivers/STM32F4xx_HAL_Driver/Src/stm32f4xx_hal_spi.c **** static void SPI_TxISR_8BIT(struct __SPI_HandleTypeDef *hspi);
 242:Drivers/STM32F4xx_HAL_Driver/Src/stm32f4xx_hal_spi.c **** static void SPI_TxISR_16BIT(struct __SPI_HandleTypeDef *hspi);
 243:Drivers/STM32F4xx_HAL_Driver/Src/stm32f4xx_hal_spi.c **** static void SPI_RxISR_8BIT(struct __SPI_HandleTypeDef *hspi);
 244:Drivers/STM32F4xx_HAL_Driver/Src/stm32f4xx_hal_spi.c **** static void SPI_RxISR_16BIT(struct __SPI_HandleTypeDef *hspi);
 245:Drivers/STM32F4xx_HAL_Driver/Src/stm32f4xx_hal_spi.c **** static void SPI_2linesRxISR_8BIT(struct __SPI_HandleTypeDef *hspi);
 246:Drivers/STM32F4xx_HAL_Driver/Src/stm32f4xx_hal_spi.c **** static void SPI_2linesTxISR_8BIT(struct __SPI_HandleTypeDef *hspi);
 247:Drivers/STM32F4xx_HAL_Driver/Src/stm32f4xx_hal_spi.c **** static void SPI_2linesTxISR_16BIT(struct __SPI_HandleTypeDef *hspi);
 248:Drivers/STM32F4xx_HAL_Driver/Src/stm32f4xx_hal_spi.c **** static void SPI_2linesRxISR_16BIT(struct __SPI_HandleTypeDef *hspi);
 249:Drivers/STM32F4xx_HAL_Driver/Src/stm32f4xx_hal_spi.c **** #if (USE_SPI_CRC != 0U)
 250:Drivers/STM32F4xx_HAL_Driver/Src/stm32f4xx_hal_spi.c **** static void SPI_RxISR_8BITCRC(struct __SPI_HandleTypeDef *hspi);
 251:Drivers/STM32F4xx_HAL_Driver/Src/stm32f4xx_hal_spi.c **** static void SPI_RxISR_16BITCRC(struct __SPI_HandleTypeDef *hspi);
 252:Drivers/STM32F4xx_HAL_Driver/Src/stm32f4xx_hal_spi.c **** static void SPI_2linesRxISR_8BITCRC(struct __SPI_HandleTypeDef *hspi);
 253:Drivers/STM32F4xx_HAL_Driver/Src/stm32f4xx_hal_spi.c **** static void SPI_2linesRxISR_16BITCRC(struct __SPI_HandleTypeDef *hspi);
 254:Drivers/STM32F4xx_HAL_Driver/Src/stm32f4xx_hal_spi.c **** #endif /* USE_SPI_CRC */
 255:Drivers/STM32F4xx_HAL_Driver/Src/stm32f4xx_hal_spi.c **** static void SPI_AbortRx_ISR(SPI_HandleTypeDef *hspi);
 256:Drivers/STM32F4xx_HAL_Driver/Src/stm32f4xx_hal_spi.c **** static void SPI_AbortTx_ISR(SPI_HandleTypeDef *hspi);
 257:Drivers/STM32F4xx_HAL_Driver/Src/stm32f4xx_hal_spi.c **** static void SPI_CloseRxTx_ISR(SPI_HandleTypeDef *hspi);
 258:Drivers/STM32F4xx_HAL_Driver/Src/stm32f4xx_hal_spi.c **** static void SPI_CloseRx_ISR(SPI_HandleTypeDef *hspi);
ARM GAS  C:\Users\16323\AppData\Local\Temp\ccbQ7VoP.s 			page 6


 259:Drivers/STM32F4xx_HAL_Driver/Src/stm32f4xx_hal_spi.c **** static void SPI_CloseTx_ISR(SPI_HandleTypeDef *hspi);
 260:Drivers/STM32F4xx_HAL_Driver/Src/stm32f4xx_hal_spi.c **** static HAL_StatusTypeDef SPI_EndRxTransaction(SPI_HandleTypeDef *hspi, uint32_t Timeout, uint32_t T
 261:Drivers/STM32F4xx_HAL_Driver/Src/stm32f4xx_hal_spi.c **** static HAL_StatusTypeDef SPI_EndRxTxTransaction(SPI_HandleTypeDef *hspi, uint32_t Timeout, uint32_t
 262:Drivers/STM32F4xx_HAL_Driver/Src/stm32f4xx_hal_spi.c **** /**
 263:Drivers/STM32F4xx_HAL_Driver/Src/stm32f4xx_hal_spi.c ****   * @}
 264:Drivers/STM32F4xx_HAL_Driver/Src/stm32f4xx_hal_spi.c ****   */
 265:Drivers/STM32F4xx_HAL_Driver/Src/stm32f4xx_hal_spi.c **** 
 266:Drivers/STM32F4xx_HAL_Driver/Src/stm32f4xx_hal_spi.c **** /* Exported functions --------------------------------------------------------*/
 267:Drivers/STM32F4xx_HAL_Driver/Src/stm32f4xx_hal_spi.c **** /** @defgroup SPI_Exported_Functions SPI Exported Functions
 268:Drivers/STM32F4xx_HAL_Driver/Src/stm32f4xx_hal_spi.c ****   * @{
 269:Drivers/STM32F4xx_HAL_Driver/Src/stm32f4xx_hal_spi.c ****   */
 270:Drivers/STM32F4xx_HAL_Driver/Src/stm32f4xx_hal_spi.c **** 
 271:Drivers/STM32F4xx_HAL_Driver/Src/stm32f4xx_hal_spi.c **** /** @defgroup SPI_Exported_Functions_Group1 Initialization and de-initialization functions
 272:Drivers/STM32F4xx_HAL_Driver/Src/stm32f4xx_hal_spi.c ****   *  @brief    Initialization and Configuration functions
 273:Drivers/STM32F4xx_HAL_Driver/Src/stm32f4xx_hal_spi.c ****   *
 274:Drivers/STM32F4xx_HAL_Driver/Src/stm32f4xx_hal_spi.c **** @verbatim
 275:Drivers/STM32F4xx_HAL_Driver/Src/stm32f4xx_hal_spi.c ****  ===============================================================================
 276:Drivers/STM32F4xx_HAL_Driver/Src/stm32f4xx_hal_spi.c ****               ##### Initialization and de-initialization functions #####
 277:Drivers/STM32F4xx_HAL_Driver/Src/stm32f4xx_hal_spi.c ****  ===============================================================================
 278:Drivers/STM32F4xx_HAL_Driver/Src/stm32f4xx_hal_spi.c ****     [..]  This subsection provides a set of functions allowing to initialize and
 279:Drivers/STM32F4xx_HAL_Driver/Src/stm32f4xx_hal_spi.c ****           de-initialize the SPIx peripheral:
 280:Drivers/STM32F4xx_HAL_Driver/Src/stm32f4xx_hal_spi.c **** 
 281:Drivers/STM32F4xx_HAL_Driver/Src/stm32f4xx_hal_spi.c ****       (+) User must implement HAL_SPI_MspInit() function in which he configures
 282:Drivers/STM32F4xx_HAL_Driver/Src/stm32f4xx_hal_spi.c ****           all related peripherals resources (CLOCK, GPIO, DMA, IT and NVIC ).
 283:Drivers/STM32F4xx_HAL_Driver/Src/stm32f4xx_hal_spi.c **** 
 284:Drivers/STM32F4xx_HAL_Driver/Src/stm32f4xx_hal_spi.c ****       (+) Call the function HAL_SPI_Init() to configure the selected device with
 285:Drivers/STM32F4xx_HAL_Driver/Src/stm32f4xx_hal_spi.c ****           the selected configuration:
 286:Drivers/STM32F4xx_HAL_Driver/Src/stm32f4xx_hal_spi.c ****         (++) Mode
 287:Drivers/STM32F4xx_HAL_Driver/Src/stm32f4xx_hal_spi.c ****         (++) Direction
 288:Drivers/STM32F4xx_HAL_Driver/Src/stm32f4xx_hal_spi.c ****         (++) Data Size
 289:Drivers/STM32F4xx_HAL_Driver/Src/stm32f4xx_hal_spi.c ****         (++) Clock Polarity and Phase
 290:Drivers/STM32F4xx_HAL_Driver/Src/stm32f4xx_hal_spi.c ****         (++) NSS Management
 291:Drivers/STM32F4xx_HAL_Driver/Src/stm32f4xx_hal_spi.c ****         (++) BaudRate Prescaler
 292:Drivers/STM32F4xx_HAL_Driver/Src/stm32f4xx_hal_spi.c ****         (++) FirstBit
 293:Drivers/STM32F4xx_HAL_Driver/Src/stm32f4xx_hal_spi.c ****         (++) TIMode
 294:Drivers/STM32F4xx_HAL_Driver/Src/stm32f4xx_hal_spi.c ****         (++) CRC Calculation
 295:Drivers/STM32F4xx_HAL_Driver/Src/stm32f4xx_hal_spi.c ****         (++) CRC Polynomial if CRC enabled
 296:Drivers/STM32F4xx_HAL_Driver/Src/stm32f4xx_hal_spi.c **** 
 297:Drivers/STM32F4xx_HAL_Driver/Src/stm32f4xx_hal_spi.c ****       (+) Call the function HAL_SPI_DeInit() to restore the default configuration
 298:Drivers/STM32F4xx_HAL_Driver/Src/stm32f4xx_hal_spi.c ****           of the selected SPIx peripheral.
 299:Drivers/STM32F4xx_HAL_Driver/Src/stm32f4xx_hal_spi.c **** 
 300:Drivers/STM32F4xx_HAL_Driver/Src/stm32f4xx_hal_spi.c **** @endverbatim
 301:Drivers/STM32F4xx_HAL_Driver/Src/stm32f4xx_hal_spi.c ****   * @{
 302:Drivers/STM32F4xx_HAL_Driver/Src/stm32f4xx_hal_spi.c ****   */
 303:Drivers/STM32F4xx_HAL_Driver/Src/stm32f4xx_hal_spi.c **** 
 304:Drivers/STM32F4xx_HAL_Driver/Src/stm32f4xx_hal_spi.c **** /**
 305:Drivers/STM32F4xx_HAL_Driver/Src/stm32f4xx_hal_spi.c ****   * @brief  Initialize the SPI according to the specified parameters
 306:Drivers/STM32F4xx_HAL_Driver/Src/stm32f4xx_hal_spi.c ****   *         in the SPI_InitTypeDef and initialize the associated handle.
 307:Drivers/STM32F4xx_HAL_Driver/Src/stm32f4xx_hal_spi.c ****   * @param  hspi pointer to a SPI_HandleTypeDef structure that contains
 308:Drivers/STM32F4xx_HAL_Driver/Src/stm32f4xx_hal_spi.c ****   *               the configuration information for SPI module.
 309:Drivers/STM32F4xx_HAL_Driver/Src/stm32f4xx_hal_spi.c ****   * @retval HAL status
 310:Drivers/STM32F4xx_HAL_Driver/Src/stm32f4xx_hal_spi.c ****   */
 311:Drivers/STM32F4xx_HAL_Driver/Src/stm32f4xx_hal_spi.c **** HAL_StatusTypeDef HAL_SPI_Init(SPI_HandleTypeDef *hspi)
 312:Drivers/STM32F4xx_HAL_Driver/Src/stm32f4xx_hal_spi.c **** {
  29              		.loc 1 312 1
  30              		.cfi_startproc
  31              		@ args = 0, pretend = 0, frame = 8
ARM GAS  C:\Users\16323\AppData\Local\Temp\ccbQ7VoP.s 			page 7


  32              		@ frame_needed = 1, uses_anonymous_args = 0
  33 0000 80B5     		push	{r7, lr}
  34              	.LCFI0:
  35              		.cfi_def_cfa_offset 8
  36              		.cfi_offset 7, -8
  37              		.cfi_offset 14, -4
  38 0002 82B0     		sub	sp, sp, #8
  39              	.LCFI1:
  40              		.cfi_def_cfa_offset 16
  41 0004 00AF     		add	r7, sp, #0
  42              	.LCFI2:
  43              		.cfi_def_cfa_register 7
  44 0006 7860     		str	r0, [r7, #4]
 313:Drivers/STM32F4xx_HAL_Driver/Src/stm32f4xx_hal_spi.c ****   /* Check the SPI handle allocation */
 314:Drivers/STM32F4xx_HAL_Driver/Src/stm32f4xx_hal_spi.c ****   if (hspi == NULL)
  45              		.loc 1 314 6
  46 0008 7B68     		ldr	r3, [r7, #4]
  47 000a 002B     		cmp	r3, #0
  48 000c 01D1     		bne	.L2
 315:Drivers/STM32F4xx_HAL_Driver/Src/stm32f4xx_hal_spi.c ****   {
 316:Drivers/STM32F4xx_HAL_Driver/Src/stm32f4xx_hal_spi.c ****     return HAL_ERROR;
  49              		.loc 1 316 12
  50 000e 0123     		movs	r3, #1
  51 0010 7BE0     		b	.L3
  52              	.L2:
 317:Drivers/STM32F4xx_HAL_Driver/Src/stm32f4xx_hal_spi.c ****   }
 318:Drivers/STM32F4xx_HAL_Driver/Src/stm32f4xx_hal_spi.c **** 
 319:Drivers/STM32F4xx_HAL_Driver/Src/stm32f4xx_hal_spi.c ****   /* Check the parameters */
 320:Drivers/STM32F4xx_HAL_Driver/Src/stm32f4xx_hal_spi.c ****   assert_param(IS_SPI_ALL_INSTANCE(hspi->Instance));
 321:Drivers/STM32F4xx_HAL_Driver/Src/stm32f4xx_hal_spi.c ****   assert_param(IS_SPI_MODE(hspi->Init.Mode));
 322:Drivers/STM32F4xx_HAL_Driver/Src/stm32f4xx_hal_spi.c ****   assert_param(IS_SPI_DIRECTION(hspi->Init.Direction));
 323:Drivers/STM32F4xx_HAL_Driver/Src/stm32f4xx_hal_spi.c ****   assert_param(IS_SPI_DATASIZE(hspi->Init.DataSize));
 324:Drivers/STM32F4xx_HAL_Driver/Src/stm32f4xx_hal_spi.c ****   assert_param(IS_SPI_NSS(hspi->Init.NSS));
 325:Drivers/STM32F4xx_HAL_Driver/Src/stm32f4xx_hal_spi.c ****   assert_param(IS_SPI_BAUDRATE_PRESCALER(hspi->Init.BaudRatePrescaler));
 326:Drivers/STM32F4xx_HAL_Driver/Src/stm32f4xx_hal_spi.c ****   assert_param(IS_SPI_FIRST_BIT(hspi->Init.FirstBit));
 327:Drivers/STM32F4xx_HAL_Driver/Src/stm32f4xx_hal_spi.c ****   assert_param(IS_SPI_TIMODE(hspi->Init.TIMode));
 328:Drivers/STM32F4xx_HAL_Driver/Src/stm32f4xx_hal_spi.c ****   if (hspi->Init.TIMode == SPI_TIMODE_DISABLE)
  53              		.loc 1 328 17
  54 0012 7B68     		ldr	r3, [r7, #4]
  55 0014 5B6A     		ldr	r3, [r3, #36]
  56              		.loc 1 328 6
  57 0016 002B     		cmp	r3, #0
  58 0018 08D1     		bne	.L4
 329:Drivers/STM32F4xx_HAL_Driver/Src/stm32f4xx_hal_spi.c ****   {
 330:Drivers/STM32F4xx_HAL_Driver/Src/stm32f4xx_hal_spi.c ****     assert_param(IS_SPI_CPOL(hspi->Init.CLKPolarity));
 331:Drivers/STM32F4xx_HAL_Driver/Src/stm32f4xx_hal_spi.c ****     assert_param(IS_SPI_CPHA(hspi->Init.CLKPhase));
 332:Drivers/STM32F4xx_HAL_Driver/Src/stm32f4xx_hal_spi.c **** 
 333:Drivers/STM32F4xx_HAL_Driver/Src/stm32f4xx_hal_spi.c ****     if (hspi->Init.Mode == SPI_MODE_MASTER)
  59              		.loc 1 333 19
  60 001a 7B68     		ldr	r3, [r7, #4]
  61 001c 5B68     		ldr	r3, [r3, #4]
  62              		.loc 1 333 8
  63 001e B3F5827F 		cmp	r3, #260
  64 0022 09D0     		beq	.L5
 334:Drivers/STM32F4xx_HAL_Driver/Src/stm32f4xx_hal_spi.c ****     {
 335:Drivers/STM32F4xx_HAL_Driver/Src/stm32f4xx_hal_spi.c ****       assert_param(IS_SPI_BAUDRATE_PRESCALER(hspi->Init.BaudRatePrescaler));
 336:Drivers/STM32F4xx_HAL_Driver/Src/stm32f4xx_hal_spi.c ****     }
ARM GAS  C:\Users\16323\AppData\Local\Temp\ccbQ7VoP.s 			page 8


 337:Drivers/STM32F4xx_HAL_Driver/Src/stm32f4xx_hal_spi.c ****     else
 338:Drivers/STM32F4xx_HAL_Driver/Src/stm32f4xx_hal_spi.c ****     {
 339:Drivers/STM32F4xx_HAL_Driver/Src/stm32f4xx_hal_spi.c ****       /* Baudrate prescaler not use in Motoraola Slave mode. force to default value */
 340:Drivers/STM32F4xx_HAL_Driver/Src/stm32f4xx_hal_spi.c ****       hspi->Init.BaudRatePrescaler = SPI_BAUDRATEPRESCALER_2;
  65              		.loc 1 340 36
  66 0024 7B68     		ldr	r3, [r7, #4]
  67 0026 0022     		movs	r2, #0
  68 0028 DA61     		str	r2, [r3, #28]
  69 002a 05E0     		b	.L5
  70              	.L4:
 341:Drivers/STM32F4xx_HAL_Driver/Src/stm32f4xx_hal_spi.c ****     }
 342:Drivers/STM32F4xx_HAL_Driver/Src/stm32f4xx_hal_spi.c ****   }
 343:Drivers/STM32F4xx_HAL_Driver/Src/stm32f4xx_hal_spi.c ****   else
 344:Drivers/STM32F4xx_HAL_Driver/Src/stm32f4xx_hal_spi.c ****   {
 345:Drivers/STM32F4xx_HAL_Driver/Src/stm32f4xx_hal_spi.c ****     assert_param(IS_SPI_BAUDRATE_PRESCALER(hspi->Init.BaudRatePrescaler));
 346:Drivers/STM32F4xx_HAL_Driver/Src/stm32f4xx_hal_spi.c **** 
 347:Drivers/STM32F4xx_HAL_Driver/Src/stm32f4xx_hal_spi.c ****     /* Force polarity and phase to TI protocaol requirements */
 348:Drivers/STM32F4xx_HAL_Driver/Src/stm32f4xx_hal_spi.c ****     hspi->Init.CLKPolarity = SPI_POLARITY_LOW;
  71              		.loc 1 348 28
  72 002c 7B68     		ldr	r3, [r7, #4]
  73 002e 0022     		movs	r2, #0
  74 0030 1A61     		str	r2, [r3, #16]
 349:Drivers/STM32F4xx_HAL_Driver/Src/stm32f4xx_hal_spi.c ****     hspi->Init.CLKPhase    = SPI_PHASE_1EDGE;
  75              		.loc 1 349 28
  76 0032 7B68     		ldr	r3, [r7, #4]
  77 0034 0022     		movs	r2, #0
  78 0036 5A61     		str	r2, [r3, #20]
  79              	.L5:
 350:Drivers/STM32F4xx_HAL_Driver/Src/stm32f4xx_hal_spi.c ****   }
 351:Drivers/STM32F4xx_HAL_Driver/Src/stm32f4xx_hal_spi.c **** #if (USE_SPI_CRC != 0U)
 352:Drivers/STM32F4xx_HAL_Driver/Src/stm32f4xx_hal_spi.c ****   assert_param(IS_SPI_CRC_CALCULATION(hspi->Init.CRCCalculation));
 353:Drivers/STM32F4xx_HAL_Driver/Src/stm32f4xx_hal_spi.c ****   if (hspi->Init.CRCCalculation == SPI_CRCCALCULATION_ENABLE)
 354:Drivers/STM32F4xx_HAL_Driver/Src/stm32f4xx_hal_spi.c ****   {
 355:Drivers/STM32F4xx_HAL_Driver/Src/stm32f4xx_hal_spi.c ****     assert_param(IS_SPI_CRC_POLYNOMIAL(hspi->Init.CRCPolynomial));
 356:Drivers/STM32F4xx_HAL_Driver/Src/stm32f4xx_hal_spi.c ****   }
 357:Drivers/STM32F4xx_HAL_Driver/Src/stm32f4xx_hal_spi.c **** #else
 358:Drivers/STM32F4xx_HAL_Driver/Src/stm32f4xx_hal_spi.c ****   hspi->Init.CRCCalculation = SPI_CRCCALCULATION_DISABLE;
  80              		.loc 1 358 29
  81 0038 7B68     		ldr	r3, [r7, #4]
  82 003a 0022     		movs	r2, #0
  83 003c 9A62     		str	r2, [r3, #40]
 359:Drivers/STM32F4xx_HAL_Driver/Src/stm32f4xx_hal_spi.c **** #endif /* USE_SPI_CRC */
 360:Drivers/STM32F4xx_HAL_Driver/Src/stm32f4xx_hal_spi.c **** 
 361:Drivers/STM32F4xx_HAL_Driver/Src/stm32f4xx_hal_spi.c ****   if (hspi->State == HAL_SPI_STATE_RESET)
  84              		.loc 1 361 11
  85 003e 7B68     		ldr	r3, [r7, #4]
  86 0040 93F85130 		ldrb	r3, [r3, #81]
  87 0044 DBB2     		uxtb	r3, r3
  88              		.loc 1 361 6
  89 0046 002B     		cmp	r3, #0
  90 0048 06D1     		bne	.L6
 362:Drivers/STM32F4xx_HAL_Driver/Src/stm32f4xx_hal_spi.c ****   {
 363:Drivers/STM32F4xx_HAL_Driver/Src/stm32f4xx_hal_spi.c ****     /* Allocate lock resource and initialize it */
 364:Drivers/STM32F4xx_HAL_Driver/Src/stm32f4xx_hal_spi.c ****     hspi->Lock = HAL_UNLOCKED;
  91              		.loc 1 364 16
  92 004a 7B68     		ldr	r3, [r7, #4]
  93 004c 0022     		movs	r2, #0
ARM GAS  C:\Users\16323\AppData\Local\Temp\ccbQ7VoP.s 			page 9


  94 004e 83F85020 		strb	r2, [r3, #80]
 365:Drivers/STM32F4xx_HAL_Driver/Src/stm32f4xx_hal_spi.c **** 
 366:Drivers/STM32F4xx_HAL_Driver/Src/stm32f4xx_hal_spi.c **** #if (USE_HAL_SPI_REGISTER_CALLBACKS == 1U)
 367:Drivers/STM32F4xx_HAL_Driver/Src/stm32f4xx_hal_spi.c ****     /* Init the SPI Callback settings */
 368:Drivers/STM32F4xx_HAL_Driver/Src/stm32f4xx_hal_spi.c ****     hspi->TxCpltCallback       = HAL_SPI_TxCpltCallback;       /* Legacy weak TxCpltCallback       
 369:Drivers/STM32F4xx_HAL_Driver/Src/stm32f4xx_hal_spi.c ****     hspi->RxCpltCallback       = HAL_SPI_RxCpltCallback;       /* Legacy weak RxCpltCallback       
 370:Drivers/STM32F4xx_HAL_Driver/Src/stm32f4xx_hal_spi.c ****     hspi->TxRxCpltCallback     = HAL_SPI_TxRxCpltCallback;     /* Legacy weak TxRxCpltCallback     
 371:Drivers/STM32F4xx_HAL_Driver/Src/stm32f4xx_hal_spi.c ****     hspi->TxHalfCpltCallback   = HAL_SPI_TxHalfCpltCallback;   /* Legacy weak TxHalfCpltCallback   
 372:Drivers/STM32F4xx_HAL_Driver/Src/stm32f4xx_hal_spi.c ****     hspi->RxHalfCpltCallback   = HAL_SPI_RxHalfCpltCallback;   /* Legacy weak RxHalfCpltCallback   
 373:Drivers/STM32F4xx_HAL_Driver/Src/stm32f4xx_hal_spi.c ****     hspi->TxRxHalfCpltCallback = HAL_SPI_TxRxHalfCpltCallback; /* Legacy weak TxRxHalfCpltCallback 
 374:Drivers/STM32F4xx_HAL_Driver/Src/stm32f4xx_hal_spi.c ****     hspi->ErrorCallback        = HAL_SPI_ErrorCallback;        /* Legacy weak ErrorCallback        
 375:Drivers/STM32F4xx_HAL_Driver/Src/stm32f4xx_hal_spi.c ****     hspi->AbortCpltCallback    = HAL_SPI_AbortCpltCallback;    /* Legacy weak AbortCpltCallback    
 376:Drivers/STM32F4xx_HAL_Driver/Src/stm32f4xx_hal_spi.c **** 
 377:Drivers/STM32F4xx_HAL_Driver/Src/stm32f4xx_hal_spi.c ****     if (hspi->MspInitCallback == NULL)
 378:Drivers/STM32F4xx_HAL_Driver/Src/stm32f4xx_hal_spi.c ****     {
 379:Drivers/STM32F4xx_HAL_Driver/Src/stm32f4xx_hal_spi.c ****       hspi->MspInitCallback = HAL_SPI_MspInit; /* Legacy weak MspInit  */
 380:Drivers/STM32F4xx_HAL_Driver/Src/stm32f4xx_hal_spi.c ****     }
 381:Drivers/STM32F4xx_HAL_Driver/Src/stm32f4xx_hal_spi.c **** 
 382:Drivers/STM32F4xx_HAL_Driver/Src/stm32f4xx_hal_spi.c ****     /* Init the low level hardware : GPIO, CLOCK, NVIC... */
 383:Drivers/STM32F4xx_HAL_Driver/Src/stm32f4xx_hal_spi.c ****     hspi->MspInitCallback(hspi);
 384:Drivers/STM32F4xx_HAL_Driver/Src/stm32f4xx_hal_spi.c **** #else
 385:Drivers/STM32F4xx_HAL_Driver/Src/stm32f4xx_hal_spi.c ****     /* Init the low level hardware : GPIO, CLOCK, NVIC... */
 386:Drivers/STM32F4xx_HAL_Driver/Src/stm32f4xx_hal_spi.c ****     HAL_SPI_MspInit(hspi);
  95              		.loc 1 386 5
  96 0052 7868     		ldr	r0, [r7, #4]
  97 0054 FFF7FEFF 		bl	HAL_SPI_MspInit
  98              	.L6:
 387:Drivers/STM32F4xx_HAL_Driver/Src/stm32f4xx_hal_spi.c **** #endif /* USE_HAL_SPI_REGISTER_CALLBACKS */
 388:Drivers/STM32F4xx_HAL_Driver/Src/stm32f4xx_hal_spi.c ****   }
 389:Drivers/STM32F4xx_HAL_Driver/Src/stm32f4xx_hal_spi.c **** 
 390:Drivers/STM32F4xx_HAL_Driver/Src/stm32f4xx_hal_spi.c ****   hspi->State = HAL_SPI_STATE_BUSY;
  99              		.loc 1 390 15
 100 0058 7B68     		ldr	r3, [r7, #4]
 101 005a 0222     		movs	r2, #2
 102 005c 83F85120 		strb	r2, [r3, #81]
 391:Drivers/STM32F4xx_HAL_Driver/Src/stm32f4xx_hal_spi.c **** 
 392:Drivers/STM32F4xx_HAL_Driver/Src/stm32f4xx_hal_spi.c ****   /* Disable the selected SPI peripheral */
 393:Drivers/STM32F4xx_HAL_Driver/Src/stm32f4xx_hal_spi.c ****   __HAL_SPI_DISABLE(hspi);
 103              		.loc 1 393 3
 104 0060 7B68     		ldr	r3, [r7, #4]
 105 0062 1B68     		ldr	r3, [r3]
 106 0064 1A68     		ldr	r2, [r3]
 107 0066 7B68     		ldr	r3, [r7, #4]
 108 0068 1B68     		ldr	r3, [r3]
 109 006a 22F04002 		bic	r2, r2, #64
 110 006e 1A60     		str	r2, [r3]
 394:Drivers/STM32F4xx_HAL_Driver/Src/stm32f4xx_hal_spi.c **** 
 395:Drivers/STM32F4xx_HAL_Driver/Src/stm32f4xx_hal_spi.c ****   /*----------------------- SPIx CR1 & CR2 Configuration ---------------------*/
 396:Drivers/STM32F4xx_HAL_Driver/Src/stm32f4xx_hal_spi.c ****   /* Configure : SPI Mode, Communication Mode, Data size, Clock polarity and phase, NSS management,
 397:Drivers/STM32F4xx_HAL_Driver/Src/stm32f4xx_hal_spi.c ****   Communication speed, First bit and CRC calculation state */
 398:Drivers/STM32F4xx_HAL_Driver/Src/stm32f4xx_hal_spi.c ****   WRITE_REG(hspi->Instance->CR1, ((hspi->Init.Mode & (SPI_CR1_MSTR | SPI_CR1_SSI)) |
 111              		.loc 1 398 3
 112 0070 7B68     		ldr	r3, [r7, #4]
 113 0072 5B68     		ldr	r3, [r3, #4]
 114 0074 03F48272 		and	r2, r3, #260
 115 0078 7B68     		ldr	r3, [r7, #4]
 116 007a 9B68     		ldr	r3, [r3, #8]
ARM GAS  C:\Users\16323\AppData\Local\Temp\ccbQ7VoP.s 			page 10


 117 007c 03F40443 		and	r3, r3, #33792
 118 0080 1A43     		orrs	r2, r2, r3
 119 0082 7B68     		ldr	r3, [r7, #4]
 120 0084 DB68     		ldr	r3, [r3, #12]
 121 0086 03F40063 		and	r3, r3, #2048
 122 008a 1A43     		orrs	r2, r2, r3
 123 008c 7B68     		ldr	r3, [r7, #4]
 124 008e 1B69     		ldr	r3, [r3, #16]
 125 0090 03F00203 		and	r3, r3, #2
 126 0094 1A43     		orrs	r2, r2, r3
 127 0096 7B68     		ldr	r3, [r7, #4]
 128 0098 5B69     		ldr	r3, [r3, #20]
 129 009a 03F00103 		and	r3, r3, #1
 130 009e 1A43     		orrs	r2, r2, r3
 131 00a0 7B68     		ldr	r3, [r7, #4]
 132 00a2 9B69     		ldr	r3, [r3, #24]
 133 00a4 03F40073 		and	r3, r3, #512
 134 00a8 1A43     		orrs	r2, r2, r3
 135 00aa 7B68     		ldr	r3, [r7, #4]
 136 00ac DB69     		ldr	r3, [r3, #28]
 137 00ae 03F03803 		and	r3, r3, #56
 138 00b2 1A43     		orrs	r2, r2, r3
 139 00b4 7B68     		ldr	r3, [r7, #4]
 140 00b6 1B6A     		ldr	r3, [r3, #32]
 141 00b8 03F08003 		and	r3, r3, #128
 142 00bc 42EA0301 		orr	r1, r2, r3
 143 00c0 7B68     		ldr	r3, [r7, #4]
 144 00c2 9B6A     		ldr	r3, [r3, #40]
 145 00c4 03F40052 		and	r2, r3, #8192
 146 00c8 7B68     		ldr	r3, [r7, #4]
 147 00ca 1B68     		ldr	r3, [r3]
 148 00cc 0A43     		orrs	r2, r2, r1
 149 00ce 1A60     		str	r2, [r3]
 399:Drivers/STM32F4xx_HAL_Driver/Src/stm32f4xx_hal_spi.c ****                                   (hspi->Init.Direction & (SPI_CR1_RXONLY | SPI_CR1_BIDIMODE)) |
 400:Drivers/STM32F4xx_HAL_Driver/Src/stm32f4xx_hal_spi.c ****                                   (hspi->Init.DataSize & SPI_CR1_DFF) |
 401:Drivers/STM32F4xx_HAL_Driver/Src/stm32f4xx_hal_spi.c ****                                   (hspi->Init.CLKPolarity & SPI_CR1_CPOL) |
 402:Drivers/STM32F4xx_HAL_Driver/Src/stm32f4xx_hal_spi.c ****                                   (hspi->Init.CLKPhase & SPI_CR1_CPHA) |
 403:Drivers/STM32F4xx_HAL_Driver/Src/stm32f4xx_hal_spi.c ****                                   (hspi->Init.NSS & SPI_CR1_SSM) |
 404:Drivers/STM32F4xx_HAL_Driver/Src/stm32f4xx_hal_spi.c ****                                   (hspi->Init.BaudRatePrescaler & SPI_CR1_BR_Msk) |
 405:Drivers/STM32F4xx_HAL_Driver/Src/stm32f4xx_hal_spi.c ****                                   (hspi->Init.FirstBit  & SPI_CR1_LSBFIRST) |
 406:Drivers/STM32F4xx_HAL_Driver/Src/stm32f4xx_hal_spi.c ****                                   (hspi->Init.CRCCalculation & SPI_CR1_CRCEN)));
 407:Drivers/STM32F4xx_HAL_Driver/Src/stm32f4xx_hal_spi.c **** 
 408:Drivers/STM32F4xx_HAL_Driver/Src/stm32f4xx_hal_spi.c ****   /* Configure : NSS management, TI Mode */
 409:Drivers/STM32F4xx_HAL_Driver/Src/stm32f4xx_hal_spi.c ****   WRITE_REG(hspi->Instance->CR2, (((hspi->Init.NSS >> 16U) & SPI_CR2_SSOE) | (hspi->Init.TIMode & S
 150              		.loc 1 409 3
 151 00d0 7B68     		ldr	r3, [r7, #4]
 152 00d2 9B69     		ldr	r3, [r3, #24]
 153 00d4 1B0C     		lsrs	r3, r3, #16
 154 00d6 03F00401 		and	r1, r3, #4
 155 00da 7B68     		ldr	r3, [r7, #4]
 156 00dc 5B6A     		ldr	r3, [r3, #36]
 157 00de 03F01002 		and	r2, r3, #16
 158 00e2 7B68     		ldr	r3, [r7, #4]
 159 00e4 1B68     		ldr	r3, [r3]
 160 00e6 0A43     		orrs	r2, r2, r1
 161 00e8 5A60     		str	r2, [r3, #4]
 410:Drivers/STM32F4xx_HAL_Driver/Src/stm32f4xx_hal_spi.c **** 
ARM GAS  C:\Users\16323\AppData\Local\Temp\ccbQ7VoP.s 			page 11


 411:Drivers/STM32F4xx_HAL_Driver/Src/stm32f4xx_hal_spi.c **** #if (USE_SPI_CRC != 0U)
 412:Drivers/STM32F4xx_HAL_Driver/Src/stm32f4xx_hal_spi.c ****   /*---------------------------- SPIx CRCPOLY Configuration ------------------*/
 413:Drivers/STM32F4xx_HAL_Driver/Src/stm32f4xx_hal_spi.c ****   /* Configure : CRC Polynomial */
 414:Drivers/STM32F4xx_HAL_Driver/Src/stm32f4xx_hal_spi.c ****   if (hspi->Init.CRCCalculation == SPI_CRCCALCULATION_ENABLE)
 415:Drivers/STM32F4xx_HAL_Driver/Src/stm32f4xx_hal_spi.c ****   {
 416:Drivers/STM32F4xx_HAL_Driver/Src/stm32f4xx_hal_spi.c ****     WRITE_REG(hspi->Instance->CRCPR, (hspi->Init.CRCPolynomial & SPI_CRCPR_CRCPOLY_Msk));
 417:Drivers/STM32F4xx_HAL_Driver/Src/stm32f4xx_hal_spi.c ****   }
 418:Drivers/STM32F4xx_HAL_Driver/Src/stm32f4xx_hal_spi.c **** #endif /* USE_SPI_CRC */
 419:Drivers/STM32F4xx_HAL_Driver/Src/stm32f4xx_hal_spi.c **** 
 420:Drivers/STM32F4xx_HAL_Driver/Src/stm32f4xx_hal_spi.c **** #if defined(SPI_I2SCFGR_I2SMOD)
 421:Drivers/STM32F4xx_HAL_Driver/Src/stm32f4xx_hal_spi.c ****   /* Activate the SPI mode (Make sure that I2SMOD bit in I2SCFGR register is reset) */
 422:Drivers/STM32F4xx_HAL_Driver/Src/stm32f4xx_hal_spi.c ****   CLEAR_BIT(hspi->Instance->I2SCFGR, SPI_I2SCFGR_I2SMOD);
 162              		.loc 1 422 3
 163 00ea 7B68     		ldr	r3, [r7, #4]
 164 00ec 1B68     		ldr	r3, [r3]
 165 00ee DA69     		ldr	r2, [r3, #28]
 166 00f0 7B68     		ldr	r3, [r7, #4]
 167 00f2 1B68     		ldr	r3, [r3]
 168 00f4 22F40062 		bic	r2, r2, #2048
 169 00f8 DA61     		str	r2, [r3, #28]
 423:Drivers/STM32F4xx_HAL_Driver/Src/stm32f4xx_hal_spi.c **** #endif /* SPI_I2SCFGR_I2SMOD */
 424:Drivers/STM32F4xx_HAL_Driver/Src/stm32f4xx_hal_spi.c **** 
 425:Drivers/STM32F4xx_HAL_Driver/Src/stm32f4xx_hal_spi.c ****   hspi->ErrorCode = HAL_SPI_ERROR_NONE;
 170              		.loc 1 425 19
 171 00fa 7B68     		ldr	r3, [r7, #4]
 172 00fc 0022     		movs	r2, #0
 173 00fe 5A65     		str	r2, [r3, #84]
 426:Drivers/STM32F4xx_HAL_Driver/Src/stm32f4xx_hal_spi.c ****   hspi->State     = HAL_SPI_STATE_READY;
 174              		.loc 1 426 19
 175 0100 7B68     		ldr	r3, [r7, #4]
 176 0102 0122     		movs	r2, #1
 177 0104 83F85120 		strb	r2, [r3, #81]
 427:Drivers/STM32F4xx_HAL_Driver/Src/stm32f4xx_hal_spi.c **** 
 428:Drivers/STM32F4xx_HAL_Driver/Src/stm32f4xx_hal_spi.c ****   return HAL_OK;
 178              		.loc 1 428 10
 179 0108 0023     		movs	r3, #0
 180              	.L3:
 429:Drivers/STM32F4xx_HAL_Driver/Src/stm32f4xx_hal_spi.c **** }
 181              		.loc 1 429 1
 182 010a 1846     		mov	r0, r3
 183 010c 0837     		adds	r7, r7, #8
 184              	.LCFI3:
 185              		.cfi_def_cfa_offset 8
 186 010e BD46     		mov	sp, r7
 187              	.LCFI4:
 188              		.cfi_def_cfa_register 13
 189              		@ sp needed
 190 0110 80BD     		pop	{r7, pc}
 191              		.cfi_endproc
 192              	.LFE239:
 194              		.section	.text.HAL_SPI_DeInit,"ax",%progbits
 195              		.align	1
 196              		.global	HAL_SPI_DeInit
 197              		.syntax unified
 198              		.thumb
 199              		.thumb_func
 201              	HAL_SPI_DeInit:
ARM GAS  C:\Users\16323\AppData\Local\Temp\ccbQ7VoP.s 			page 12


 202              	.LFB240:
 430:Drivers/STM32F4xx_HAL_Driver/Src/stm32f4xx_hal_spi.c **** 
 431:Drivers/STM32F4xx_HAL_Driver/Src/stm32f4xx_hal_spi.c **** /**
 432:Drivers/STM32F4xx_HAL_Driver/Src/stm32f4xx_hal_spi.c ****   * @brief  De-Initialize the SPI peripheral.
 433:Drivers/STM32F4xx_HAL_Driver/Src/stm32f4xx_hal_spi.c ****   * @param  hspi pointer to a SPI_HandleTypeDef structure that contains
 434:Drivers/STM32F4xx_HAL_Driver/Src/stm32f4xx_hal_spi.c ****   *               the configuration information for SPI module.
 435:Drivers/STM32F4xx_HAL_Driver/Src/stm32f4xx_hal_spi.c ****   * @retval HAL status
 436:Drivers/STM32F4xx_HAL_Driver/Src/stm32f4xx_hal_spi.c ****   */
 437:Drivers/STM32F4xx_HAL_Driver/Src/stm32f4xx_hal_spi.c **** HAL_StatusTypeDef HAL_SPI_DeInit(SPI_HandleTypeDef *hspi)
 438:Drivers/STM32F4xx_HAL_Driver/Src/stm32f4xx_hal_spi.c **** {
 203              		.loc 1 438 1
 204              		.cfi_startproc
 205              		@ args = 0, pretend = 0, frame = 8
 206              		@ frame_needed = 1, uses_anonymous_args = 0
 207 0000 80B5     		push	{r7, lr}
 208              	.LCFI5:
 209              		.cfi_def_cfa_offset 8
 210              		.cfi_offset 7, -8
 211              		.cfi_offset 14, -4
 212 0002 82B0     		sub	sp, sp, #8
 213              	.LCFI6:
 214              		.cfi_def_cfa_offset 16
 215 0004 00AF     		add	r7, sp, #0
 216              	.LCFI7:
 217              		.cfi_def_cfa_register 7
 218 0006 7860     		str	r0, [r7, #4]
 439:Drivers/STM32F4xx_HAL_Driver/Src/stm32f4xx_hal_spi.c ****   /* Check the SPI handle allocation */
 440:Drivers/STM32F4xx_HAL_Driver/Src/stm32f4xx_hal_spi.c ****   if (hspi == NULL)
 219              		.loc 1 440 6
 220 0008 7B68     		ldr	r3, [r7, #4]
 221 000a 002B     		cmp	r3, #0
 222 000c 01D1     		bne	.L8
 441:Drivers/STM32F4xx_HAL_Driver/Src/stm32f4xx_hal_spi.c ****   {
 442:Drivers/STM32F4xx_HAL_Driver/Src/stm32f4xx_hal_spi.c ****     return HAL_ERROR;
 223              		.loc 1 442 12
 224 000e 0123     		movs	r3, #1
 225 0010 1AE0     		b	.L9
 226              	.L8:
 443:Drivers/STM32F4xx_HAL_Driver/Src/stm32f4xx_hal_spi.c ****   }
 444:Drivers/STM32F4xx_HAL_Driver/Src/stm32f4xx_hal_spi.c **** 
 445:Drivers/STM32F4xx_HAL_Driver/Src/stm32f4xx_hal_spi.c ****   /* Check SPI Instance parameter */
 446:Drivers/STM32F4xx_HAL_Driver/Src/stm32f4xx_hal_spi.c ****   assert_param(IS_SPI_ALL_INSTANCE(hspi->Instance));
 447:Drivers/STM32F4xx_HAL_Driver/Src/stm32f4xx_hal_spi.c **** 
 448:Drivers/STM32F4xx_HAL_Driver/Src/stm32f4xx_hal_spi.c ****   hspi->State = HAL_SPI_STATE_BUSY;
 227              		.loc 1 448 15
 228 0012 7B68     		ldr	r3, [r7, #4]
 229 0014 0222     		movs	r2, #2
 230 0016 83F85120 		strb	r2, [r3, #81]
 449:Drivers/STM32F4xx_HAL_Driver/Src/stm32f4xx_hal_spi.c **** 
 450:Drivers/STM32F4xx_HAL_Driver/Src/stm32f4xx_hal_spi.c ****   /* Disable the SPI Peripheral Clock */
 451:Drivers/STM32F4xx_HAL_Driver/Src/stm32f4xx_hal_spi.c ****   __HAL_SPI_DISABLE(hspi);
 231              		.loc 1 451 3
 232 001a 7B68     		ldr	r3, [r7, #4]
 233 001c 1B68     		ldr	r3, [r3]
 234 001e 1A68     		ldr	r2, [r3]
 235 0020 7B68     		ldr	r3, [r7, #4]
 236 0022 1B68     		ldr	r3, [r3]
ARM GAS  C:\Users\16323\AppData\Local\Temp\ccbQ7VoP.s 			page 13


 237 0024 22F04002 		bic	r2, r2, #64
 238 0028 1A60     		str	r2, [r3]
 452:Drivers/STM32F4xx_HAL_Driver/Src/stm32f4xx_hal_spi.c **** 
 453:Drivers/STM32F4xx_HAL_Driver/Src/stm32f4xx_hal_spi.c **** #if (USE_HAL_SPI_REGISTER_CALLBACKS == 1U)
 454:Drivers/STM32F4xx_HAL_Driver/Src/stm32f4xx_hal_spi.c ****   if (hspi->MspDeInitCallback == NULL)
 455:Drivers/STM32F4xx_HAL_Driver/Src/stm32f4xx_hal_spi.c ****   {
 456:Drivers/STM32F4xx_HAL_Driver/Src/stm32f4xx_hal_spi.c ****     hspi->MspDeInitCallback = HAL_SPI_MspDeInit; /* Legacy weak MspDeInit  */
 457:Drivers/STM32F4xx_HAL_Driver/Src/stm32f4xx_hal_spi.c ****   }
 458:Drivers/STM32F4xx_HAL_Driver/Src/stm32f4xx_hal_spi.c **** 
 459:Drivers/STM32F4xx_HAL_Driver/Src/stm32f4xx_hal_spi.c ****   /* DeInit the low level hardware: GPIO, CLOCK, NVIC... */
 460:Drivers/STM32F4xx_HAL_Driver/Src/stm32f4xx_hal_spi.c ****   hspi->MspDeInitCallback(hspi);
 461:Drivers/STM32F4xx_HAL_Driver/Src/stm32f4xx_hal_spi.c **** #else
 462:Drivers/STM32F4xx_HAL_Driver/Src/stm32f4xx_hal_spi.c ****   /* DeInit the low level hardware: GPIO, CLOCK, NVIC... */
 463:Drivers/STM32F4xx_HAL_Driver/Src/stm32f4xx_hal_spi.c ****   HAL_SPI_MspDeInit(hspi);
 239              		.loc 1 463 3
 240 002a 7868     		ldr	r0, [r7, #4]
 241 002c FFF7FEFF 		bl	HAL_SPI_MspDeInit
 464:Drivers/STM32F4xx_HAL_Driver/Src/stm32f4xx_hal_spi.c **** #endif /* USE_HAL_SPI_REGISTER_CALLBACKS */
 465:Drivers/STM32F4xx_HAL_Driver/Src/stm32f4xx_hal_spi.c **** 
 466:Drivers/STM32F4xx_HAL_Driver/Src/stm32f4xx_hal_spi.c ****   hspi->ErrorCode = HAL_SPI_ERROR_NONE;
 242              		.loc 1 466 19
 243 0030 7B68     		ldr	r3, [r7, #4]
 244 0032 0022     		movs	r2, #0
 245 0034 5A65     		str	r2, [r3, #84]
 467:Drivers/STM32F4xx_HAL_Driver/Src/stm32f4xx_hal_spi.c ****   hspi->State = HAL_SPI_STATE_RESET;
 246              		.loc 1 467 15
 247 0036 7B68     		ldr	r3, [r7, #4]
 248 0038 0022     		movs	r2, #0
 249 003a 83F85120 		strb	r2, [r3, #81]
 468:Drivers/STM32F4xx_HAL_Driver/Src/stm32f4xx_hal_spi.c **** 
 469:Drivers/STM32F4xx_HAL_Driver/Src/stm32f4xx_hal_spi.c ****   /* Release Lock */
 470:Drivers/STM32F4xx_HAL_Driver/Src/stm32f4xx_hal_spi.c ****   __HAL_UNLOCK(hspi);
 250              		.loc 1 470 3
 251 003e 7B68     		ldr	r3, [r7, #4]
 252 0040 0022     		movs	r2, #0
 253 0042 83F85020 		strb	r2, [r3, #80]
 471:Drivers/STM32F4xx_HAL_Driver/Src/stm32f4xx_hal_spi.c **** 
 472:Drivers/STM32F4xx_HAL_Driver/Src/stm32f4xx_hal_spi.c ****   return HAL_OK;
 254              		.loc 1 472 10
 255 0046 0023     		movs	r3, #0
 256              	.L9:
 473:Drivers/STM32F4xx_HAL_Driver/Src/stm32f4xx_hal_spi.c **** }
 257              		.loc 1 473 1
 258 0048 1846     		mov	r0, r3
 259 004a 0837     		adds	r7, r7, #8
 260              	.LCFI8:
 261              		.cfi_def_cfa_offset 8
 262 004c BD46     		mov	sp, r7
 263              	.LCFI9:
 264              		.cfi_def_cfa_register 13
 265              		@ sp needed
 266 004e 80BD     		pop	{r7, pc}
 267              		.cfi_endproc
 268              	.LFE240:
 270              		.section	.text.HAL_SPI_MspInit,"ax",%progbits
 271              		.align	1
 272              		.weak	HAL_SPI_MspInit
ARM GAS  C:\Users\16323\AppData\Local\Temp\ccbQ7VoP.s 			page 14


 273              		.syntax unified
 274              		.thumb
 275              		.thumb_func
 277              	HAL_SPI_MspInit:
 278              	.LFB241:
 474:Drivers/STM32F4xx_HAL_Driver/Src/stm32f4xx_hal_spi.c **** 
 475:Drivers/STM32F4xx_HAL_Driver/Src/stm32f4xx_hal_spi.c **** /**
 476:Drivers/STM32F4xx_HAL_Driver/Src/stm32f4xx_hal_spi.c ****   * @brief  Initialize the SPI MSP.
 477:Drivers/STM32F4xx_HAL_Driver/Src/stm32f4xx_hal_spi.c ****   * @param  hspi pointer to a SPI_HandleTypeDef structure that contains
 478:Drivers/STM32F4xx_HAL_Driver/Src/stm32f4xx_hal_spi.c ****   *               the configuration information for SPI module.
 479:Drivers/STM32F4xx_HAL_Driver/Src/stm32f4xx_hal_spi.c ****   * @retval None
 480:Drivers/STM32F4xx_HAL_Driver/Src/stm32f4xx_hal_spi.c ****   */
 481:Drivers/STM32F4xx_HAL_Driver/Src/stm32f4xx_hal_spi.c **** __weak void HAL_SPI_MspInit(SPI_HandleTypeDef *hspi)
 482:Drivers/STM32F4xx_HAL_Driver/Src/stm32f4xx_hal_spi.c **** {
 279              		.loc 1 482 1
 280              		.cfi_startproc
 281              		@ args = 0, pretend = 0, frame = 8
 282              		@ frame_needed = 1, uses_anonymous_args = 0
 283              		@ link register save eliminated.
 284 0000 80B4     		push	{r7}
 285              	.LCFI10:
 286              		.cfi_def_cfa_offset 4
 287              		.cfi_offset 7, -4
 288 0002 83B0     		sub	sp, sp, #12
 289              	.LCFI11:
 290              		.cfi_def_cfa_offset 16
 291 0004 00AF     		add	r7, sp, #0
 292              	.LCFI12:
 293              		.cfi_def_cfa_register 7
 294 0006 7860     		str	r0, [r7, #4]
 483:Drivers/STM32F4xx_HAL_Driver/Src/stm32f4xx_hal_spi.c ****   /* Prevent unused argument(s) compilation warning */
 484:Drivers/STM32F4xx_HAL_Driver/Src/stm32f4xx_hal_spi.c ****   UNUSED(hspi);
 485:Drivers/STM32F4xx_HAL_Driver/Src/stm32f4xx_hal_spi.c **** 
 486:Drivers/STM32F4xx_HAL_Driver/Src/stm32f4xx_hal_spi.c ****   /* NOTE : This function should not be modified, when the callback is needed,
 487:Drivers/STM32F4xx_HAL_Driver/Src/stm32f4xx_hal_spi.c ****             the HAL_SPI_MspInit should be implemented in the user file
 488:Drivers/STM32F4xx_HAL_Driver/Src/stm32f4xx_hal_spi.c ****    */
 489:Drivers/STM32F4xx_HAL_Driver/Src/stm32f4xx_hal_spi.c **** }
 295              		.loc 1 489 1
 296 0008 00BF     		nop
 297 000a 0C37     		adds	r7, r7, #12
 298              	.LCFI13:
 299              		.cfi_def_cfa_offset 4
 300 000c BD46     		mov	sp, r7
 301              	.LCFI14:
 302              		.cfi_def_cfa_register 13
 303              		@ sp needed
 304 000e 5DF8047B 		ldr	r7, [sp], #4
 305              	.LCFI15:
 306              		.cfi_restore 7
 307              		.cfi_def_cfa_offset 0
 308 0012 7047     		bx	lr
 309              		.cfi_endproc
 310              	.LFE241:
 312              		.section	.text.HAL_SPI_MspDeInit,"ax",%progbits
 313              		.align	1
 314              		.weak	HAL_SPI_MspDeInit
 315              		.syntax unified
ARM GAS  C:\Users\16323\AppData\Local\Temp\ccbQ7VoP.s 			page 15


 316              		.thumb
 317              		.thumb_func
 319              	HAL_SPI_MspDeInit:
 320              	.LFB242:
 490:Drivers/STM32F4xx_HAL_Driver/Src/stm32f4xx_hal_spi.c **** 
 491:Drivers/STM32F4xx_HAL_Driver/Src/stm32f4xx_hal_spi.c **** /**
 492:Drivers/STM32F4xx_HAL_Driver/Src/stm32f4xx_hal_spi.c ****   * @brief  De-Initialize the SPI MSP.
 493:Drivers/STM32F4xx_HAL_Driver/Src/stm32f4xx_hal_spi.c ****   * @param  hspi pointer to a SPI_HandleTypeDef structure that contains
 494:Drivers/STM32F4xx_HAL_Driver/Src/stm32f4xx_hal_spi.c ****   *               the configuration information for SPI module.
 495:Drivers/STM32F4xx_HAL_Driver/Src/stm32f4xx_hal_spi.c ****   * @retval None
 496:Drivers/STM32F4xx_HAL_Driver/Src/stm32f4xx_hal_spi.c ****   */
 497:Drivers/STM32F4xx_HAL_Driver/Src/stm32f4xx_hal_spi.c **** __weak void HAL_SPI_MspDeInit(SPI_HandleTypeDef *hspi)
 498:Drivers/STM32F4xx_HAL_Driver/Src/stm32f4xx_hal_spi.c **** {
 321              		.loc 1 498 1
 322              		.cfi_startproc
 323              		@ args = 0, pretend = 0, frame = 8
 324              		@ frame_needed = 1, uses_anonymous_args = 0
 325              		@ link register save eliminated.
 326 0000 80B4     		push	{r7}
 327              	.LCFI16:
 328              		.cfi_def_cfa_offset 4
 329              		.cfi_offset 7, -4
 330 0002 83B0     		sub	sp, sp, #12
 331              	.LCFI17:
 332              		.cfi_def_cfa_offset 16
 333 0004 00AF     		add	r7, sp, #0
 334              	.LCFI18:
 335              		.cfi_def_cfa_register 7
 336 0006 7860     		str	r0, [r7, #4]
 499:Drivers/STM32F4xx_HAL_Driver/Src/stm32f4xx_hal_spi.c ****   /* Prevent unused argument(s) compilation warning */
 500:Drivers/STM32F4xx_HAL_Driver/Src/stm32f4xx_hal_spi.c ****   UNUSED(hspi);
 501:Drivers/STM32F4xx_HAL_Driver/Src/stm32f4xx_hal_spi.c **** 
 502:Drivers/STM32F4xx_HAL_Driver/Src/stm32f4xx_hal_spi.c ****   /* NOTE : This function should not be modified, when the callback is needed,
 503:Drivers/STM32F4xx_HAL_Driver/Src/stm32f4xx_hal_spi.c ****             the HAL_SPI_MspDeInit should be implemented in the user file
 504:Drivers/STM32F4xx_HAL_Driver/Src/stm32f4xx_hal_spi.c ****    */
 505:Drivers/STM32F4xx_HAL_Driver/Src/stm32f4xx_hal_spi.c **** }
 337              		.loc 1 505 1
 338 0008 00BF     		nop
 339 000a 0C37     		adds	r7, r7, #12
 340              	.LCFI19:
 341              		.cfi_def_cfa_offset 4
 342 000c BD46     		mov	sp, r7
 343              	.LCFI20:
 344              		.cfi_def_cfa_register 13
 345              		@ sp needed
 346 000e 5DF8047B 		ldr	r7, [sp], #4
 347              	.LCFI21:
 348              		.cfi_restore 7
 349              		.cfi_def_cfa_offset 0
 350 0012 7047     		bx	lr
 351              		.cfi_endproc
 352              	.LFE242:
 354              		.section	.text.HAL_SPI_Transmit,"ax",%progbits
 355              		.align	1
 356              		.global	HAL_SPI_Transmit
 357              		.syntax unified
 358              		.thumb
ARM GAS  C:\Users\16323\AppData\Local\Temp\ccbQ7VoP.s 			page 16


 359              		.thumb_func
 361              	HAL_SPI_Transmit:
 362              	.LFB243:
 506:Drivers/STM32F4xx_HAL_Driver/Src/stm32f4xx_hal_spi.c **** 
 507:Drivers/STM32F4xx_HAL_Driver/Src/stm32f4xx_hal_spi.c **** #if (USE_HAL_SPI_REGISTER_CALLBACKS == 1U)
 508:Drivers/STM32F4xx_HAL_Driver/Src/stm32f4xx_hal_spi.c **** /**
 509:Drivers/STM32F4xx_HAL_Driver/Src/stm32f4xx_hal_spi.c ****   * @brief  Register a User SPI Callback
 510:Drivers/STM32F4xx_HAL_Driver/Src/stm32f4xx_hal_spi.c ****   *         To be used instead of the weak predefined callback
 511:Drivers/STM32F4xx_HAL_Driver/Src/stm32f4xx_hal_spi.c ****   * @param  hspi Pointer to a SPI_HandleTypeDef structure that contains
 512:Drivers/STM32F4xx_HAL_Driver/Src/stm32f4xx_hal_spi.c ****   *                the configuration information for the specified SPI.
 513:Drivers/STM32F4xx_HAL_Driver/Src/stm32f4xx_hal_spi.c ****   * @param  CallbackID ID of the callback to be registered
 514:Drivers/STM32F4xx_HAL_Driver/Src/stm32f4xx_hal_spi.c ****   * @param  pCallback pointer to the Callback function
 515:Drivers/STM32F4xx_HAL_Driver/Src/stm32f4xx_hal_spi.c ****   * @retval HAL status
 516:Drivers/STM32F4xx_HAL_Driver/Src/stm32f4xx_hal_spi.c ****   */
 517:Drivers/STM32F4xx_HAL_Driver/Src/stm32f4xx_hal_spi.c **** HAL_StatusTypeDef HAL_SPI_RegisterCallback(SPI_HandleTypeDef *hspi, HAL_SPI_CallbackIDTypeDef Callb
 518:Drivers/STM32F4xx_HAL_Driver/Src/stm32f4xx_hal_spi.c ****                                            pSPI_CallbackTypeDef pCallback)
 519:Drivers/STM32F4xx_HAL_Driver/Src/stm32f4xx_hal_spi.c **** {
 520:Drivers/STM32F4xx_HAL_Driver/Src/stm32f4xx_hal_spi.c ****   HAL_StatusTypeDef status = HAL_OK;
 521:Drivers/STM32F4xx_HAL_Driver/Src/stm32f4xx_hal_spi.c **** 
 522:Drivers/STM32F4xx_HAL_Driver/Src/stm32f4xx_hal_spi.c ****   if (pCallback == NULL)
 523:Drivers/STM32F4xx_HAL_Driver/Src/stm32f4xx_hal_spi.c ****   {
 524:Drivers/STM32F4xx_HAL_Driver/Src/stm32f4xx_hal_spi.c ****     /* Update the error code */
 525:Drivers/STM32F4xx_HAL_Driver/Src/stm32f4xx_hal_spi.c ****     hspi->ErrorCode |= HAL_SPI_ERROR_INVALID_CALLBACK;
 526:Drivers/STM32F4xx_HAL_Driver/Src/stm32f4xx_hal_spi.c **** 
 527:Drivers/STM32F4xx_HAL_Driver/Src/stm32f4xx_hal_spi.c ****     return HAL_ERROR;
 528:Drivers/STM32F4xx_HAL_Driver/Src/stm32f4xx_hal_spi.c ****   }
 529:Drivers/STM32F4xx_HAL_Driver/Src/stm32f4xx_hal_spi.c ****   /* Process locked */
 530:Drivers/STM32F4xx_HAL_Driver/Src/stm32f4xx_hal_spi.c ****   __HAL_LOCK(hspi);
 531:Drivers/STM32F4xx_HAL_Driver/Src/stm32f4xx_hal_spi.c **** 
 532:Drivers/STM32F4xx_HAL_Driver/Src/stm32f4xx_hal_spi.c ****   if (HAL_SPI_STATE_READY == hspi->State)
 533:Drivers/STM32F4xx_HAL_Driver/Src/stm32f4xx_hal_spi.c ****   {
 534:Drivers/STM32F4xx_HAL_Driver/Src/stm32f4xx_hal_spi.c ****     switch (CallbackID)
 535:Drivers/STM32F4xx_HAL_Driver/Src/stm32f4xx_hal_spi.c ****     {
 536:Drivers/STM32F4xx_HAL_Driver/Src/stm32f4xx_hal_spi.c ****       case HAL_SPI_TX_COMPLETE_CB_ID :
 537:Drivers/STM32F4xx_HAL_Driver/Src/stm32f4xx_hal_spi.c ****         hspi->TxCpltCallback = pCallback;
 538:Drivers/STM32F4xx_HAL_Driver/Src/stm32f4xx_hal_spi.c ****         break;
 539:Drivers/STM32F4xx_HAL_Driver/Src/stm32f4xx_hal_spi.c **** 
 540:Drivers/STM32F4xx_HAL_Driver/Src/stm32f4xx_hal_spi.c ****       case HAL_SPI_RX_COMPLETE_CB_ID :
 541:Drivers/STM32F4xx_HAL_Driver/Src/stm32f4xx_hal_spi.c ****         hspi->RxCpltCallback = pCallback;
 542:Drivers/STM32F4xx_HAL_Driver/Src/stm32f4xx_hal_spi.c ****         break;
 543:Drivers/STM32F4xx_HAL_Driver/Src/stm32f4xx_hal_spi.c **** 
 544:Drivers/STM32F4xx_HAL_Driver/Src/stm32f4xx_hal_spi.c ****       case HAL_SPI_TX_RX_COMPLETE_CB_ID :
 545:Drivers/STM32F4xx_HAL_Driver/Src/stm32f4xx_hal_spi.c ****         hspi->TxRxCpltCallback = pCallback;
 546:Drivers/STM32F4xx_HAL_Driver/Src/stm32f4xx_hal_spi.c ****         break;
 547:Drivers/STM32F4xx_HAL_Driver/Src/stm32f4xx_hal_spi.c **** 
 548:Drivers/STM32F4xx_HAL_Driver/Src/stm32f4xx_hal_spi.c ****       case HAL_SPI_TX_HALF_COMPLETE_CB_ID :
 549:Drivers/STM32F4xx_HAL_Driver/Src/stm32f4xx_hal_spi.c ****         hspi->TxHalfCpltCallback = pCallback;
 550:Drivers/STM32F4xx_HAL_Driver/Src/stm32f4xx_hal_spi.c ****         break;
 551:Drivers/STM32F4xx_HAL_Driver/Src/stm32f4xx_hal_spi.c **** 
 552:Drivers/STM32F4xx_HAL_Driver/Src/stm32f4xx_hal_spi.c ****       case HAL_SPI_RX_HALF_COMPLETE_CB_ID :
 553:Drivers/STM32F4xx_HAL_Driver/Src/stm32f4xx_hal_spi.c ****         hspi->RxHalfCpltCallback = pCallback;
 554:Drivers/STM32F4xx_HAL_Driver/Src/stm32f4xx_hal_spi.c ****         break;
 555:Drivers/STM32F4xx_HAL_Driver/Src/stm32f4xx_hal_spi.c **** 
 556:Drivers/STM32F4xx_HAL_Driver/Src/stm32f4xx_hal_spi.c ****       case HAL_SPI_TX_RX_HALF_COMPLETE_CB_ID :
 557:Drivers/STM32F4xx_HAL_Driver/Src/stm32f4xx_hal_spi.c ****         hspi->TxRxHalfCpltCallback = pCallback;
 558:Drivers/STM32F4xx_HAL_Driver/Src/stm32f4xx_hal_spi.c ****         break;
 559:Drivers/STM32F4xx_HAL_Driver/Src/stm32f4xx_hal_spi.c **** 
ARM GAS  C:\Users\16323\AppData\Local\Temp\ccbQ7VoP.s 			page 17


 560:Drivers/STM32F4xx_HAL_Driver/Src/stm32f4xx_hal_spi.c ****       case HAL_SPI_ERROR_CB_ID :
 561:Drivers/STM32F4xx_HAL_Driver/Src/stm32f4xx_hal_spi.c ****         hspi->ErrorCallback = pCallback;
 562:Drivers/STM32F4xx_HAL_Driver/Src/stm32f4xx_hal_spi.c ****         break;
 563:Drivers/STM32F4xx_HAL_Driver/Src/stm32f4xx_hal_spi.c **** 
 564:Drivers/STM32F4xx_HAL_Driver/Src/stm32f4xx_hal_spi.c ****       case HAL_SPI_ABORT_CB_ID :
 565:Drivers/STM32F4xx_HAL_Driver/Src/stm32f4xx_hal_spi.c ****         hspi->AbortCpltCallback = pCallback;
 566:Drivers/STM32F4xx_HAL_Driver/Src/stm32f4xx_hal_spi.c ****         break;
 567:Drivers/STM32F4xx_HAL_Driver/Src/stm32f4xx_hal_spi.c **** 
 568:Drivers/STM32F4xx_HAL_Driver/Src/stm32f4xx_hal_spi.c ****       case HAL_SPI_MSPINIT_CB_ID :
 569:Drivers/STM32F4xx_HAL_Driver/Src/stm32f4xx_hal_spi.c ****         hspi->MspInitCallback = pCallback;
 570:Drivers/STM32F4xx_HAL_Driver/Src/stm32f4xx_hal_spi.c ****         break;
 571:Drivers/STM32F4xx_HAL_Driver/Src/stm32f4xx_hal_spi.c **** 
 572:Drivers/STM32F4xx_HAL_Driver/Src/stm32f4xx_hal_spi.c ****       case HAL_SPI_MSPDEINIT_CB_ID :
 573:Drivers/STM32F4xx_HAL_Driver/Src/stm32f4xx_hal_spi.c ****         hspi->MspDeInitCallback = pCallback;
 574:Drivers/STM32F4xx_HAL_Driver/Src/stm32f4xx_hal_spi.c ****         break;
 575:Drivers/STM32F4xx_HAL_Driver/Src/stm32f4xx_hal_spi.c **** 
 576:Drivers/STM32F4xx_HAL_Driver/Src/stm32f4xx_hal_spi.c ****       default :
 577:Drivers/STM32F4xx_HAL_Driver/Src/stm32f4xx_hal_spi.c ****         /* Update the error code */
 578:Drivers/STM32F4xx_HAL_Driver/Src/stm32f4xx_hal_spi.c ****         SET_BIT(hspi->ErrorCode, HAL_SPI_ERROR_INVALID_CALLBACK);
 579:Drivers/STM32F4xx_HAL_Driver/Src/stm32f4xx_hal_spi.c **** 
 580:Drivers/STM32F4xx_HAL_Driver/Src/stm32f4xx_hal_spi.c ****         /* Return error status */
 581:Drivers/STM32F4xx_HAL_Driver/Src/stm32f4xx_hal_spi.c ****         status =  HAL_ERROR;
 582:Drivers/STM32F4xx_HAL_Driver/Src/stm32f4xx_hal_spi.c ****         break;
 583:Drivers/STM32F4xx_HAL_Driver/Src/stm32f4xx_hal_spi.c ****     }
 584:Drivers/STM32F4xx_HAL_Driver/Src/stm32f4xx_hal_spi.c ****   }
 585:Drivers/STM32F4xx_HAL_Driver/Src/stm32f4xx_hal_spi.c ****   else if (HAL_SPI_STATE_RESET == hspi->State)
 586:Drivers/STM32F4xx_HAL_Driver/Src/stm32f4xx_hal_spi.c ****   {
 587:Drivers/STM32F4xx_HAL_Driver/Src/stm32f4xx_hal_spi.c ****     switch (CallbackID)
 588:Drivers/STM32F4xx_HAL_Driver/Src/stm32f4xx_hal_spi.c ****     {
 589:Drivers/STM32F4xx_HAL_Driver/Src/stm32f4xx_hal_spi.c ****       case HAL_SPI_MSPINIT_CB_ID :
 590:Drivers/STM32F4xx_HAL_Driver/Src/stm32f4xx_hal_spi.c ****         hspi->MspInitCallback = pCallback;
 591:Drivers/STM32F4xx_HAL_Driver/Src/stm32f4xx_hal_spi.c ****         break;
 592:Drivers/STM32F4xx_HAL_Driver/Src/stm32f4xx_hal_spi.c **** 
 593:Drivers/STM32F4xx_HAL_Driver/Src/stm32f4xx_hal_spi.c ****       case HAL_SPI_MSPDEINIT_CB_ID :
 594:Drivers/STM32F4xx_HAL_Driver/Src/stm32f4xx_hal_spi.c ****         hspi->MspDeInitCallback = pCallback;
 595:Drivers/STM32F4xx_HAL_Driver/Src/stm32f4xx_hal_spi.c ****         break;
 596:Drivers/STM32F4xx_HAL_Driver/Src/stm32f4xx_hal_spi.c **** 
 597:Drivers/STM32F4xx_HAL_Driver/Src/stm32f4xx_hal_spi.c ****       default :
 598:Drivers/STM32F4xx_HAL_Driver/Src/stm32f4xx_hal_spi.c ****         /* Update the error code */
 599:Drivers/STM32F4xx_HAL_Driver/Src/stm32f4xx_hal_spi.c ****         SET_BIT(hspi->ErrorCode, HAL_SPI_ERROR_INVALID_CALLBACK);
 600:Drivers/STM32F4xx_HAL_Driver/Src/stm32f4xx_hal_spi.c **** 
 601:Drivers/STM32F4xx_HAL_Driver/Src/stm32f4xx_hal_spi.c ****         /* Return error status */
 602:Drivers/STM32F4xx_HAL_Driver/Src/stm32f4xx_hal_spi.c ****         status =  HAL_ERROR;
 603:Drivers/STM32F4xx_HAL_Driver/Src/stm32f4xx_hal_spi.c ****         break;
 604:Drivers/STM32F4xx_HAL_Driver/Src/stm32f4xx_hal_spi.c ****     }
 605:Drivers/STM32F4xx_HAL_Driver/Src/stm32f4xx_hal_spi.c ****   }
 606:Drivers/STM32F4xx_HAL_Driver/Src/stm32f4xx_hal_spi.c ****   else
 607:Drivers/STM32F4xx_HAL_Driver/Src/stm32f4xx_hal_spi.c ****   {
 608:Drivers/STM32F4xx_HAL_Driver/Src/stm32f4xx_hal_spi.c ****     /* Update the error code */
 609:Drivers/STM32F4xx_HAL_Driver/Src/stm32f4xx_hal_spi.c ****     SET_BIT(hspi->ErrorCode, HAL_SPI_ERROR_INVALID_CALLBACK);
 610:Drivers/STM32F4xx_HAL_Driver/Src/stm32f4xx_hal_spi.c **** 
 611:Drivers/STM32F4xx_HAL_Driver/Src/stm32f4xx_hal_spi.c ****     /* Return error status */
 612:Drivers/STM32F4xx_HAL_Driver/Src/stm32f4xx_hal_spi.c ****     status =  HAL_ERROR;
 613:Drivers/STM32F4xx_HAL_Driver/Src/stm32f4xx_hal_spi.c ****   }
 614:Drivers/STM32F4xx_HAL_Driver/Src/stm32f4xx_hal_spi.c **** 
 615:Drivers/STM32F4xx_HAL_Driver/Src/stm32f4xx_hal_spi.c ****   /* Release Lock */
 616:Drivers/STM32F4xx_HAL_Driver/Src/stm32f4xx_hal_spi.c ****   __HAL_UNLOCK(hspi);
ARM GAS  C:\Users\16323\AppData\Local\Temp\ccbQ7VoP.s 			page 18


 617:Drivers/STM32F4xx_HAL_Driver/Src/stm32f4xx_hal_spi.c ****   return status;
 618:Drivers/STM32F4xx_HAL_Driver/Src/stm32f4xx_hal_spi.c **** }
 619:Drivers/STM32F4xx_HAL_Driver/Src/stm32f4xx_hal_spi.c **** 
 620:Drivers/STM32F4xx_HAL_Driver/Src/stm32f4xx_hal_spi.c **** /**
 621:Drivers/STM32F4xx_HAL_Driver/Src/stm32f4xx_hal_spi.c ****   * @brief  Unregister an SPI Callback
 622:Drivers/STM32F4xx_HAL_Driver/Src/stm32f4xx_hal_spi.c ****   *         SPI callback is redirected to the weak predefined callback
 623:Drivers/STM32F4xx_HAL_Driver/Src/stm32f4xx_hal_spi.c ****   * @param  hspi Pointer to a SPI_HandleTypeDef structure that contains
 624:Drivers/STM32F4xx_HAL_Driver/Src/stm32f4xx_hal_spi.c ****   *                the configuration information for the specified SPI.
 625:Drivers/STM32F4xx_HAL_Driver/Src/stm32f4xx_hal_spi.c ****   * @param  CallbackID ID of the callback to be unregistered
 626:Drivers/STM32F4xx_HAL_Driver/Src/stm32f4xx_hal_spi.c ****   * @retval HAL status
 627:Drivers/STM32F4xx_HAL_Driver/Src/stm32f4xx_hal_spi.c ****   */
 628:Drivers/STM32F4xx_HAL_Driver/Src/stm32f4xx_hal_spi.c **** HAL_StatusTypeDef HAL_SPI_UnRegisterCallback(SPI_HandleTypeDef *hspi, HAL_SPI_CallbackIDTypeDef Cal
 629:Drivers/STM32F4xx_HAL_Driver/Src/stm32f4xx_hal_spi.c **** {
 630:Drivers/STM32F4xx_HAL_Driver/Src/stm32f4xx_hal_spi.c ****   HAL_StatusTypeDef status = HAL_OK;
 631:Drivers/STM32F4xx_HAL_Driver/Src/stm32f4xx_hal_spi.c **** 
 632:Drivers/STM32F4xx_HAL_Driver/Src/stm32f4xx_hal_spi.c ****   /* Process locked */
 633:Drivers/STM32F4xx_HAL_Driver/Src/stm32f4xx_hal_spi.c ****   __HAL_LOCK(hspi);
 634:Drivers/STM32F4xx_HAL_Driver/Src/stm32f4xx_hal_spi.c **** 
 635:Drivers/STM32F4xx_HAL_Driver/Src/stm32f4xx_hal_spi.c ****   if (HAL_SPI_STATE_READY == hspi->State)
 636:Drivers/STM32F4xx_HAL_Driver/Src/stm32f4xx_hal_spi.c ****   {
 637:Drivers/STM32F4xx_HAL_Driver/Src/stm32f4xx_hal_spi.c ****     switch (CallbackID)
 638:Drivers/STM32F4xx_HAL_Driver/Src/stm32f4xx_hal_spi.c ****     {
 639:Drivers/STM32F4xx_HAL_Driver/Src/stm32f4xx_hal_spi.c ****       case HAL_SPI_TX_COMPLETE_CB_ID :
 640:Drivers/STM32F4xx_HAL_Driver/Src/stm32f4xx_hal_spi.c ****         hspi->TxCpltCallback = HAL_SPI_TxCpltCallback;             /* Legacy weak TxCpltCallback   
 641:Drivers/STM32F4xx_HAL_Driver/Src/stm32f4xx_hal_spi.c ****         break;
 642:Drivers/STM32F4xx_HAL_Driver/Src/stm32f4xx_hal_spi.c **** 
 643:Drivers/STM32F4xx_HAL_Driver/Src/stm32f4xx_hal_spi.c ****       case HAL_SPI_RX_COMPLETE_CB_ID :
 644:Drivers/STM32F4xx_HAL_Driver/Src/stm32f4xx_hal_spi.c ****         hspi->RxCpltCallback = HAL_SPI_RxCpltCallback;             /* Legacy weak RxCpltCallback   
 645:Drivers/STM32F4xx_HAL_Driver/Src/stm32f4xx_hal_spi.c ****         break;
 646:Drivers/STM32F4xx_HAL_Driver/Src/stm32f4xx_hal_spi.c **** 
 647:Drivers/STM32F4xx_HAL_Driver/Src/stm32f4xx_hal_spi.c ****       case HAL_SPI_TX_RX_COMPLETE_CB_ID :
 648:Drivers/STM32F4xx_HAL_Driver/Src/stm32f4xx_hal_spi.c ****         hspi->TxRxCpltCallback = HAL_SPI_TxRxCpltCallback;         /* Legacy weak TxRxCpltCallback 
 649:Drivers/STM32F4xx_HAL_Driver/Src/stm32f4xx_hal_spi.c ****         break;
 650:Drivers/STM32F4xx_HAL_Driver/Src/stm32f4xx_hal_spi.c **** 
 651:Drivers/STM32F4xx_HAL_Driver/Src/stm32f4xx_hal_spi.c ****       case HAL_SPI_TX_HALF_COMPLETE_CB_ID :
 652:Drivers/STM32F4xx_HAL_Driver/Src/stm32f4xx_hal_spi.c ****         hspi->TxHalfCpltCallback = HAL_SPI_TxHalfCpltCallback;     /* Legacy weak TxHalfCpltCallbac
 653:Drivers/STM32F4xx_HAL_Driver/Src/stm32f4xx_hal_spi.c ****         break;
 654:Drivers/STM32F4xx_HAL_Driver/Src/stm32f4xx_hal_spi.c **** 
 655:Drivers/STM32F4xx_HAL_Driver/Src/stm32f4xx_hal_spi.c ****       case HAL_SPI_RX_HALF_COMPLETE_CB_ID :
 656:Drivers/STM32F4xx_HAL_Driver/Src/stm32f4xx_hal_spi.c ****         hspi->RxHalfCpltCallback = HAL_SPI_RxHalfCpltCallback;     /* Legacy weak RxHalfCpltCallbac
 657:Drivers/STM32F4xx_HAL_Driver/Src/stm32f4xx_hal_spi.c ****         break;
 658:Drivers/STM32F4xx_HAL_Driver/Src/stm32f4xx_hal_spi.c **** 
 659:Drivers/STM32F4xx_HAL_Driver/Src/stm32f4xx_hal_spi.c ****       case HAL_SPI_TX_RX_HALF_COMPLETE_CB_ID :
 660:Drivers/STM32F4xx_HAL_Driver/Src/stm32f4xx_hal_spi.c ****         hspi->TxRxHalfCpltCallback = HAL_SPI_TxRxHalfCpltCallback; /* Legacy weak TxRxHalfCpltCallb
 661:Drivers/STM32F4xx_HAL_Driver/Src/stm32f4xx_hal_spi.c ****         break;
 662:Drivers/STM32F4xx_HAL_Driver/Src/stm32f4xx_hal_spi.c **** 
 663:Drivers/STM32F4xx_HAL_Driver/Src/stm32f4xx_hal_spi.c ****       case HAL_SPI_ERROR_CB_ID :
 664:Drivers/STM32F4xx_HAL_Driver/Src/stm32f4xx_hal_spi.c ****         hspi->ErrorCallback = HAL_SPI_ErrorCallback;               /* Legacy weak ErrorCallback    
 665:Drivers/STM32F4xx_HAL_Driver/Src/stm32f4xx_hal_spi.c ****         break;
 666:Drivers/STM32F4xx_HAL_Driver/Src/stm32f4xx_hal_spi.c **** 
 667:Drivers/STM32F4xx_HAL_Driver/Src/stm32f4xx_hal_spi.c ****       case HAL_SPI_ABORT_CB_ID :
 668:Drivers/STM32F4xx_HAL_Driver/Src/stm32f4xx_hal_spi.c ****         hspi->AbortCpltCallback = HAL_SPI_AbortCpltCallback;       /* Legacy weak AbortCpltCallback
 669:Drivers/STM32F4xx_HAL_Driver/Src/stm32f4xx_hal_spi.c ****         break;
 670:Drivers/STM32F4xx_HAL_Driver/Src/stm32f4xx_hal_spi.c **** 
 671:Drivers/STM32F4xx_HAL_Driver/Src/stm32f4xx_hal_spi.c ****       case HAL_SPI_MSPINIT_CB_ID :
 672:Drivers/STM32F4xx_HAL_Driver/Src/stm32f4xx_hal_spi.c ****         hspi->MspInitCallback = HAL_SPI_MspInit;                   /* Legacy weak MspInit          
 673:Drivers/STM32F4xx_HAL_Driver/Src/stm32f4xx_hal_spi.c ****         break;
ARM GAS  C:\Users\16323\AppData\Local\Temp\ccbQ7VoP.s 			page 19


 674:Drivers/STM32F4xx_HAL_Driver/Src/stm32f4xx_hal_spi.c **** 
 675:Drivers/STM32F4xx_HAL_Driver/Src/stm32f4xx_hal_spi.c ****       case HAL_SPI_MSPDEINIT_CB_ID :
 676:Drivers/STM32F4xx_HAL_Driver/Src/stm32f4xx_hal_spi.c ****         hspi->MspDeInitCallback = HAL_SPI_MspDeInit;               /* Legacy weak MspDeInit        
 677:Drivers/STM32F4xx_HAL_Driver/Src/stm32f4xx_hal_spi.c ****         break;
 678:Drivers/STM32F4xx_HAL_Driver/Src/stm32f4xx_hal_spi.c **** 
 679:Drivers/STM32F4xx_HAL_Driver/Src/stm32f4xx_hal_spi.c ****       default :
 680:Drivers/STM32F4xx_HAL_Driver/Src/stm32f4xx_hal_spi.c ****         /* Update the error code */
 681:Drivers/STM32F4xx_HAL_Driver/Src/stm32f4xx_hal_spi.c ****         SET_BIT(hspi->ErrorCode, HAL_SPI_ERROR_INVALID_CALLBACK);
 682:Drivers/STM32F4xx_HAL_Driver/Src/stm32f4xx_hal_spi.c **** 
 683:Drivers/STM32F4xx_HAL_Driver/Src/stm32f4xx_hal_spi.c ****         /* Return error status */
 684:Drivers/STM32F4xx_HAL_Driver/Src/stm32f4xx_hal_spi.c ****         status =  HAL_ERROR;
 685:Drivers/STM32F4xx_HAL_Driver/Src/stm32f4xx_hal_spi.c ****         break;
 686:Drivers/STM32F4xx_HAL_Driver/Src/stm32f4xx_hal_spi.c ****     }
 687:Drivers/STM32F4xx_HAL_Driver/Src/stm32f4xx_hal_spi.c ****   }
 688:Drivers/STM32F4xx_HAL_Driver/Src/stm32f4xx_hal_spi.c ****   else if (HAL_SPI_STATE_RESET == hspi->State)
 689:Drivers/STM32F4xx_HAL_Driver/Src/stm32f4xx_hal_spi.c ****   {
 690:Drivers/STM32F4xx_HAL_Driver/Src/stm32f4xx_hal_spi.c ****     switch (CallbackID)
 691:Drivers/STM32F4xx_HAL_Driver/Src/stm32f4xx_hal_spi.c ****     {
 692:Drivers/STM32F4xx_HAL_Driver/Src/stm32f4xx_hal_spi.c ****       case HAL_SPI_MSPINIT_CB_ID :
 693:Drivers/STM32F4xx_HAL_Driver/Src/stm32f4xx_hal_spi.c ****         hspi->MspInitCallback = HAL_SPI_MspInit;                   /* Legacy weak MspInit          
 694:Drivers/STM32F4xx_HAL_Driver/Src/stm32f4xx_hal_spi.c ****         break;
 695:Drivers/STM32F4xx_HAL_Driver/Src/stm32f4xx_hal_spi.c **** 
 696:Drivers/STM32F4xx_HAL_Driver/Src/stm32f4xx_hal_spi.c ****       case HAL_SPI_MSPDEINIT_CB_ID :
 697:Drivers/STM32F4xx_HAL_Driver/Src/stm32f4xx_hal_spi.c ****         hspi->MspDeInitCallback = HAL_SPI_MspDeInit;               /* Legacy weak MspDeInit        
 698:Drivers/STM32F4xx_HAL_Driver/Src/stm32f4xx_hal_spi.c ****         break;
 699:Drivers/STM32F4xx_HAL_Driver/Src/stm32f4xx_hal_spi.c **** 
 700:Drivers/STM32F4xx_HAL_Driver/Src/stm32f4xx_hal_spi.c ****       default :
 701:Drivers/STM32F4xx_HAL_Driver/Src/stm32f4xx_hal_spi.c ****         /* Update the error code */
 702:Drivers/STM32F4xx_HAL_Driver/Src/stm32f4xx_hal_spi.c ****         SET_BIT(hspi->ErrorCode, HAL_SPI_ERROR_INVALID_CALLBACK);
 703:Drivers/STM32F4xx_HAL_Driver/Src/stm32f4xx_hal_spi.c **** 
 704:Drivers/STM32F4xx_HAL_Driver/Src/stm32f4xx_hal_spi.c ****         /* Return error status */
 705:Drivers/STM32F4xx_HAL_Driver/Src/stm32f4xx_hal_spi.c ****         status =  HAL_ERROR;
 706:Drivers/STM32F4xx_HAL_Driver/Src/stm32f4xx_hal_spi.c ****         break;
 707:Drivers/STM32F4xx_HAL_Driver/Src/stm32f4xx_hal_spi.c ****     }
 708:Drivers/STM32F4xx_HAL_Driver/Src/stm32f4xx_hal_spi.c ****   }
 709:Drivers/STM32F4xx_HAL_Driver/Src/stm32f4xx_hal_spi.c ****   else
 710:Drivers/STM32F4xx_HAL_Driver/Src/stm32f4xx_hal_spi.c ****   {
 711:Drivers/STM32F4xx_HAL_Driver/Src/stm32f4xx_hal_spi.c ****     /* Update the error code */
 712:Drivers/STM32F4xx_HAL_Driver/Src/stm32f4xx_hal_spi.c ****     SET_BIT(hspi->ErrorCode, HAL_SPI_ERROR_INVALID_CALLBACK);
 713:Drivers/STM32F4xx_HAL_Driver/Src/stm32f4xx_hal_spi.c **** 
 714:Drivers/STM32F4xx_HAL_Driver/Src/stm32f4xx_hal_spi.c ****     /* Return error status */
 715:Drivers/STM32F4xx_HAL_Driver/Src/stm32f4xx_hal_spi.c ****     status =  HAL_ERROR;
 716:Drivers/STM32F4xx_HAL_Driver/Src/stm32f4xx_hal_spi.c ****   }
 717:Drivers/STM32F4xx_HAL_Driver/Src/stm32f4xx_hal_spi.c **** 
 718:Drivers/STM32F4xx_HAL_Driver/Src/stm32f4xx_hal_spi.c ****   /* Release Lock */
 719:Drivers/STM32F4xx_HAL_Driver/Src/stm32f4xx_hal_spi.c ****   __HAL_UNLOCK(hspi);
 720:Drivers/STM32F4xx_HAL_Driver/Src/stm32f4xx_hal_spi.c ****   return status;
 721:Drivers/STM32F4xx_HAL_Driver/Src/stm32f4xx_hal_spi.c **** }
 722:Drivers/STM32F4xx_HAL_Driver/Src/stm32f4xx_hal_spi.c **** #endif /* USE_HAL_SPI_REGISTER_CALLBACKS */
 723:Drivers/STM32F4xx_HAL_Driver/Src/stm32f4xx_hal_spi.c **** /**
 724:Drivers/STM32F4xx_HAL_Driver/Src/stm32f4xx_hal_spi.c ****   * @}
 725:Drivers/STM32F4xx_HAL_Driver/Src/stm32f4xx_hal_spi.c ****   */
 726:Drivers/STM32F4xx_HAL_Driver/Src/stm32f4xx_hal_spi.c **** 
 727:Drivers/STM32F4xx_HAL_Driver/Src/stm32f4xx_hal_spi.c **** /** @defgroup SPI_Exported_Functions_Group2 IO operation functions
 728:Drivers/STM32F4xx_HAL_Driver/Src/stm32f4xx_hal_spi.c ****   *  @brief   Data transfers functions
 729:Drivers/STM32F4xx_HAL_Driver/Src/stm32f4xx_hal_spi.c ****   *
 730:Drivers/STM32F4xx_HAL_Driver/Src/stm32f4xx_hal_spi.c **** @verbatim
ARM GAS  C:\Users\16323\AppData\Local\Temp\ccbQ7VoP.s 			page 20


 731:Drivers/STM32F4xx_HAL_Driver/Src/stm32f4xx_hal_spi.c ****   ==============================================================================
 732:Drivers/STM32F4xx_HAL_Driver/Src/stm32f4xx_hal_spi.c ****                       ##### IO operation functions #####
 733:Drivers/STM32F4xx_HAL_Driver/Src/stm32f4xx_hal_spi.c ****  ===============================================================================
 734:Drivers/STM32F4xx_HAL_Driver/Src/stm32f4xx_hal_spi.c ****  [..]
 735:Drivers/STM32F4xx_HAL_Driver/Src/stm32f4xx_hal_spi.c ****     This subsection provides a set of functions allowing to manage the SPI
 736:Drivers/STM32F4xx_HAL_Driver/Src/stm32f4xx_hal_spi.c ****     data transfers.
 737:Drivers/STM32F4xx_HAL_Driver/Src/stm32f4xx_hal_spi.c **** 
 738:Drivers/STM32F4xx_HAL_Driver/Src/stm32f4xx_hal_spi.c ****     [..] The SPI supports master and slave mode :
 739:Drivers/STM32F4xx_HAL_Driver/Src/stm32f4xx_hal_spi.c **** 
 740:Drivers/STM32F4xx_HAL_Driver/Src/stm32f4xx_hal_spi.c ****     (#) There are two modes of transfer:
 741:Drivers/STM32F4xx_HAL_Driver/Src/stm32f4xx_hal_spi.c ****        (++) Blocking mode: The communication is performed in polling mode.
 742:Drivers/STM32F4xx_HAL_Driver/Src/stm32f4xx_hal_spi.c ****             The HAL status of all data processing is returned by the same function
 743:Drivers/STM32F4xx_HAL_Driver/Src/stm32f4xx_hal_spi.c ****             after finishing transfer.
 744:Drivers/STM32F4xx_HAL_Driver/Src/stm32f4xx_hal_spi.c ****        (++) No-Blocking mode: The communication is performed using Interrupts
 745:Drivers/STM32F4xx_HAL_Driver/Src/stm32f4xx_hal_spi.c ****             or DMA, These APIs return the HAL status.
 746:Drivers/STM32F4xx_HAL_Driver/Src/stm32f4xx_hal_spi.c ****             The end of the data processing will be indicated through the
 747:Drivers/STM32F4xx_HAL_Driver/Src/stm32f4xx_hal_spi.c ****             dedicated SPI IRQ when using Interrupt mode or the DMA IRQ when
 748:Drivers/STM32F4xx_HAL_Driver/Src/stm32f4xx_hal_spi.c ****             using DMA mode.
 749:Drivers/STM32F4xx_HAL_Driver/Src/stm32f4xx_hal_spi.c ****             The HAL_SPI_TxCpltCallback(), HAL_SPI_RxCpltCallback() and HAL_SPI_TxRxCpltCallback() u
 750:Drivers/STM32F4xx_HAL_Driver/Src/stm32f4xx_hal_spi.c ****             will be executed respectively at the end of the transmit or Receive process
 751:Drivers/STM32F4xx_HAL_Driver/Src/stm32f4xx_hal_spi.c ****             The HAL_SPI_ErrorCallback()user callback will be executed when a communication error is
 752:Drivers/STM32F4xx_HAL_Driver/Src/stm32f4xx_hal_spi.c **** 
 753:Drivers/STM32F4xx_HAL_Driver/Src/stm32f4xx_hal_spi.c ****     (#) APIs provided for these 2 transfer modes (Blocking mode or Non blocking mode using either I
 754:Drivers/STM32F4xx_HAL_Driver/Src/stm32f4xx_hal_spi.c ****         exist for 1Line (simplex) and 2Lines (full duplex) modes.
 755:Drivers/STM32F4xx_HAL_Driver/Src/stm32f4xx_hal_spi.c **** 
 756:Drivers/STM32F4xx_HAL_Driver/Src/stm32f4xx_hal_spi.c **** @endverbatim
 757:Drivers/STM32F4xx_HAL_Driver/Src/stm32f4xx_hal_spi.c ****   * @{
 758:Drivers/STM32F4xx_HAL_Driver/Src/stm32f4xx_hal_spi.c ****   */
 759:Drivers/STM32F4xx_HAL_Driver/Src/stm32f4xx_hal_spi.c **** 
 760:Drivers/STM32F4xx_HAL_Driver/Src/stm32f4xx_hal_spi.c **** /**
 761:Drivers/STM32F4xx_HAL_Driver/Src/stm32f4xx_hal_spi.c ****   * @brief  Transmit an amount of data in blocking mode.
 762:Drivers/STM32F4xx_HAL_Driver/Src/stm32f4xx_hal_spi.c ****   * @param  hspi pointer to a SPI_HandleTypeDef structure that contains
 763:Drivers/STM32F4xx_HAL_Driver/Src/stm32f4xx_hal_spi.c ****   *               the configuration information for SPI module.
 764:Drivers/STM32F4xx_HAL_Driver/Src/stm32f4xx_hal_spi.c ****   * @param  pData pointer to data buffer
 765:Drivers/STM32F4xx_HAL_Driver/Src/stm32f4xx_hal_spi.c ****   * @param  Size amount of data to be sent
 766:Drivers/STM32F4xx_HAL_Driver/Src/stm32f4xx_hal_spi.c ****   * @param  Timeout Timeout duration
 767:Drivers/STM32F4xx_HAL_Driver/Src/stm32f4xx_hal_spi.c ****   * @retval HAL status
 768:Drivers/STM32F4xx_HAL_Driver/Src/stm32f4xx_hal_spi.c ****   */
 769:Drivers/STM32F4xx_HAL_Driver/Src/stm32f4xx_hal_spi.c **** HAL_StatusTypeDef HAL_SPI_Transmit(SPI_HandleTypeDef *hspi, const uint8_t *pData, uint16_t Size, ui
 770:Drivers/STM32F4xx_HAL_Driver/Src/stm32f4xx_hal_spi.c **** {
 363              		.loc 1 770 1
 364              		.cfi_startproc
 365              		@ args = 0, pretend = 0, frame = 32
 366              		@ frame_needed = 1, uses_anonymous_args = 0
 367 0000 80B5     		push	{r7, lr}
 368              	.LCFI22:
 369              		.cfi_def_cfa_offset 8
 370              		.cfi_offset 7, -8
 371              		.cfi_offset 14, -4
 372 0002 88B0     		sub	sp, sp, #32
 373              	.LCFI23:
 374              		.cfi_def_cfa_offset 40
 375 0004 00AF     		add	r7, sp, #0
 376              	.LCFI24:
 377              		.cfi_def_cfa_register 7
 378 0006 F860     		str	r0, [r7, #12]
 379 0008 B960     		str	r1, [r7, #8]
ARM GAS  C:\Users\16323\AppData\Local\Temp\ccbQ7VoP.s 			page 21


 380 000a 3B60     		str	r3, [r7]
 381 000c 1346     		mov	r3, r2	@ movhi
 382 000e FB80     		strh	r3, [r7, #6]	@ movhi
 771:Drivers/STM32F4xx_HAL_Driver/Src/stm32f4xx_hal_spi.c ****   uint32_t tickstart;
 772:Drivers/STM32F4xx_HAL_Driver/Src/stm32f4xx_hal_spi.c ****   uint16_t initial_TxXferCount;
 773:Drivers/STM32F4xx_HAL_Driver/Src/stm32f4xx_hal_spi.c **** 
 774:Drivers/STM32F4xx_HAL_Driver/Src/stm32f4xx_hal_spi.c ****   /* Check Direction parameter */
 775:Drivers/STM32F4xx_HAL_Driver/Src/stm32f4xx_hal_spi.c ****   assert_param(IS_SPI_DIRECTION_2LINES_OR_1LINE(hspi->Init.Direction));
 776:Drivers/STM32F4xx_HAL_Driver/Src/stm32f4xx_hal_spi.c **** 
 777:Drivers/STM32F4xx_HAL_Driver/Src/stm32f4xx_hal_spi.c ****   /* Init tickstart for timeout management*/
 778:Drivers/STM32F4xx_HAL_Driver/Src/stm32f4xx_hal_spi.c ****   tickstart = HAL_GetTick();
 383              		.loc 1 778 15
 384 0010 FFF7FEFF 		bl	HAL_GetTick
 385 0014 F861     		str	r0, [r7, #28]
 779:Drivers/STM32F4xx_HAL_Driver/Src/stm32f4xx_hal_spi.c ****   initial_TxXferCount = Size;
 386              		.loc 1 779 23
 387 0016 FB88     		ldrh	r3, [r7, #6]	@ movhi
 388 0018 7B83     		strh	r3, [r7, #26]	@ movhi
 780:Drivers/STM32F4xx_HAL_Driver/Src/stm32f4xx_hal_spi.c **** 
 781:Drivers/STM32F4xx_HAL_Driver/Src/stm32f4xx_hal_spi.c ****   if (hspi->State != HAL_SPI_STATE_READY)
 389              		.loc 1 781 11
 390 001a FB68     		ldr	r3, [r7, #12]
 391 001c 93F85130 		ldrb	r3, [r3, #81]
 392 0020 DBB2     		uxtb	r3, r3
 393              		.loc 1 781 6
 394 0022 012B     		cmp	r3, #1
 395 0024 01D0     		beq	.L13
 782:Drivers/STM32F4xx_HAL_Driver/Src/stm32f4xx_hal_spi.c ****   {
 783:Drivers/STM32F4xx_HAL_Driver/Src/stm32f4xx_hal_spi.c ****     return HAL_BUSY;
 396              		.loc 1 783 12
 397 0026 0223     		movs	r3, #2
 398 0028 2AE1     		b	.L14
 399              	.L13:
 784:Drivers/STM32F4xx_HAL_Driver/Src/stm32f4xx_hal_spi.c ****   }
 785:Drivers/STM32F4xx_HAL_Driver/Src/stm32f4xx_hal_spi.c **** 
 786:Drivers/STM32F4xx_HAL_Driver/Src/stm32f4xx_hal_spi.c ****   if ((pData == NULL) || (Size == 0U))
 400              		.loc 1 786 6
 401 002a BB68     		ldr	r3, [r7, #8]
 402 002c 002B     		cmp	r3, #0
 403 002e 02D0     		beq	.L15
 404              		.loc 1 786 23 discriminator 1
 405 0030 FB88     		ldrh	r3, [r7, #6]
 406 0032 002B     		cmp	r3, #0
 407 0034 01D1     		bne	.L16
 408              	.L15:
 787:Drivers/STM32F4xx_HAL_Driver/Src/stm32f4xx_hal_spi.c ****   {
 788:Drivers/STM32F4xx_HAL_Driver/Src/stm32f4xx_hal_spi.c ****     return HAL_ERROR;
 409              		.loc 1 788 12
 410 0036 0123     		movs	r3, #1
 411 0038 22E1     		b	.L14
 412              	.L16:
 789:Drivers/STM32F4xx_HAL_Driver/Src/stm32f4xx_hal_spi.c ****   }
 790:Drivers/STM32F4xx_HAL_Driver/Src/stm32f4xx_hal_spi.c **** 
 791:Drivers/STM32F4xx_HAL_Driver/Src/stm32f4xx_hal_spi.c ****   /* Process Locked */
 792:Drivers/STM32F4xx_HAL_Driver/Src/stm32f4xx_hal_spi.c ****   __HAL_LOCK(hspi);
 413              		.loc 1 792 3
 414 003a FB68     		ldr	r3, [r7, #12]
ARM GAS  C:\Users\16323\AppData\Local\Temp\ccbQ7VoP.s 			page 22


 415 003c 93F85030 		ldrb	r3, [r3, #80]	@ zero_extendqisi2
 416 0040 012B     		cmp	r3, #1
 417 0042 01D1     		bne	.L17
 418              		.loc 1 792 3 is_stmt 0 discriminator 1
 419 0044 0223     		movs	r3, #2
 420 0046 1BE1     		b	.L14
 421              	.L17:
 422              		.loc 1 792 3 discriminator 2
 423 0048 FB68     		ldr	r3, [r7, #12]
 424 004a 0122     		movs	r2, #1
 425 004c 83F85020 		strb	r2, [r3, #80]
 793:Drivers/STM32F4xx_HAL_Driver/Src/stm32f4xx_hal_spi.c **** 
 794:Drivers/STM32F4xx_HAL_Driver/Src/stm32f4xx_hal_spi.c ****   /* Set the transaction information */
 795:Drivers/STM32F4xx_HAL_Driver/Src/stm32f4xx_hal_spi.c ****   hspi->State       = HAL_SPI_STATE_BUSY_TX;
 426              		.loc 1 795 21 is_stmt 1 discriminator 2
 427 0050 FB68     		ldr	r3, [r7, #12]
 428 0052 0322     		movs	r2, #3
 429 0054 83F85120 		strb	r2, [r3, #81]
 796:Drivers/STM32F4xx_HAL_Driver/Src/stm32f4xx_hal_spi.c ****   hspi->ErrorCode   = HAL_SPI_ERROR_NONE;
 430              		.loc 1 796 21 discriminator 2
 431 0058 FB68     		ldr	r3, [r7, #12]
 432 005a 0022     		movs	r2, #0
 433 005c 5A65     		str	r2, [r3, #84]
 797:Drivers/STM32F4xx_HAL_Driver/Src/stm32f4xx_hal_spi.c ****   hspi->pTxBuffPtr  = (const uint8_t *)pData;
 434              		.loc 1 797 21 discriminator 2
 435 005e FB68     		ldr	r3, [r7, #12]
 436 0060 BA68     		ldr	r2, [r7, #8]
 437 0062 1A63     		str	r2, [r3, #48]
 798:Drivers/STM32F4xx_HAL_Driver/Src/stm32f4xx_hal_spi.c ****   hspi->TxXferSize  = Size;
 438              		.loc 1 798 21 discriminator 2
 439 0064 FB68     		ldr	r3, [r7, #12]
 440 0066 FA88     		ldrh	r2, [r7, #6]	@ movhi
 441 0068 9A86     		strh	r2, [r3, #52]	@ movhi
 799:Drivers/STM32F4xx_HAL_Driver/Src/stm32f4xx_hal_spi.c ****   hspi->TxXferCount = Size;
 442              		.loc 1 799 21 discriminator 2
 443 006a FB68     		ldr	r3, [r7, #12]
 444 006c FA88     		ldrh	r2, [r7, #6]	@ movhi
 445 006e DA86     		strh	r2, [r3, #54]	@ movhi
 800:Drivers/STM32F4xx_HAL_Driver/Src/stm32f4xx_hal_spi.c **** 
 801:Drivers/STM32F4xx_HAL_Driver/Src/stm32f4xx_hal_spi.c ****   /*Init field not used in handle to zero */
 802:Drivers/STM32F4xx_HAL_Driver/Src/stm32f4xx_hal_spi.c ****   hspi->pRxBuffPtr  = (uint8_t *)NULL;
 446              		.loc 1 802 21 discriminator 2
 447 0070 FB68     		ldr	r3, [r7, #12]
 448 0072 0022     		movs	r2, #0
 449 0074 9A63     		str	r2, [r3, #56]
 803:Drivers/STM32F4xx_HAL_Driver/Src/stm32f4xx_hal_spi.c ****   hspi->RxXferSize  = 0U;
 450              		.loc 1 803 21 discriminator 2
 451 0076 FB68     		ldr	r3, [r7, #12]
 452 0078 0022     		movs	r2, #0
 453 007a 9A87     		strh	r2, [r3, #60]	@ movhi
 804:Drivers/STM32F4xx_HAL_Driver/Src/stm32f4xx_hal_spi.c ****   hspi->RxXferCount = 0U;
 454              		.loc 1 804 21 discriminator 2
 455 007c FB68     		ldr	r3, [r7, #12]
 456 007e 0022     		movs	r2, #0
 457 0080 DA87     		strh	r2, [r3, #62]	@ movhi
 805:Drivers/STM32F4xx_HAL_Driver/Src/stm32f4xx_hal_spi.c ****   hspi->TxISR       = NULL;
 458              		.loc 1 805 21 discriminator 2
ARM GAS  C:\Users\16323\AppData\Local\Temp\ccbQ7VoP.s 			page 23


 459 0082 FB68     		ldr	r3, [r7, #12]
 460 0084 0022     		movs	r2, #0
 461 0086 5A64     		str	r2, [r3, #68]
 806:Drivers/STM32F4xx_HAL_Driver/Src/stm32f4xx_hal_spi.c ****   hspi->RxISR       = NULL;
 462              		.loc 1 806 21 discriminator 2
 463 0088 FB68     		ldr	r3, [r7, #12]
 464 008a 0022     		movs	r2, #0
 465 008c 1A64     		str	r2, [r3, #64]
 807:Drivers/STM32F4xx_HAL_Driver/Src/stm32f4xx_hal_spi.c **** 
 808:Drivers/STM32F4xx_HAL_Driver/Src/stm32f4xx_hal_spi.c ****   /* Configure communication direction : 1Line */
 809:Drivers/STM32F4xx_HAL_Driver/Src/stm32f4xx_hal_spi.c ****   if (hspi->Init.Direction == SPI_DIRECTION_1LINE)
 466              		.loc 1 809 17 discriminator 2
 467 008e FB68     		ldr	r3, [r7, #12]
 468 0090 9B68     		ldr	r3, [r3, #8]
 469              		.loc 1 809 6 discriminator 2
 470 0092 B3F5004F 		cmp	r3, #32768
 471 0096 0FD1     		bne	.L18
 810:Drivers/STM32F4xx_HAL_Driver/Src/stm32f4xx_hal_spi.c ****   {
 811:Drivers/STM32F4xx_HAL_Driver/Src/stm32f4xx_hal_spi.c ****     /* Disable SPI Peripheral before set 1Line direction (BIDIOE bit) */
 812:Drivers/STM32F4xx_HAL_Driver/Src/stm32f4xx_hal_spi.c ****     __HAL_SPI_DISABLE(hspi);
 472              		.loc 1 812 5
 473 0098 FB68     		ldr	r3, [r7, #12]
 474 009a 1B68     		ldr	r3, [r3]
 475 009c 1A68     		ldr	r2, [r3]
 476 009e FB68     		ldr	r3, [r7, #12]
 477 00a0 1B68     		ldr	r3, [r3]
 478 00a2 22F04002 		bic	r2, r2, #64
 479 00a6 1A60     		str	r2, [r3]
 813:Drivers/STM32F4xx_HAL_Driver/Src/stm32f4xx_hal_spi.c ****     SPI_1LINE_TX(hspi);
 480              		.loc 1 813 5
 481 00a8 FB68     		ldr	r3, [r7, #12]
 482 00aa 1B68     		ldr	r3, [r3]
 483 00ac 1A68     		ldr	r2, [r3]
 484 00ae FB68     		ldr	r3, [r7, #12]
 485 00b0 1B68     		ldr	r3, [r3]
 486 00b2 42F48042 		orr	r2, r2, #16384
 487 00b6 1A60     		str	r2, [r3]
 488              	.L18:
 814:Drivers/STM32F4xx_HAL_Driver/Src/stm32f4xx_hal_spi.c ****   }
 815:Drivers/STM32F4xx_HAL_Driver/Src/stm32f4xx_hal_spi.c **** 
 816:Drivers/STM32F4xx_HAL_Driver/Src/stm32f4xx_hal_spi.c **** #if (USE_SPI_CRC != 0U)
 817:Drivers/STM32F4xx_HAL_Driver/Src/stm32f4xx_hal_spi.c ****   /* Reset CRC Calculation */
 818:Drivers/STM32F4xx_HAL_Driver/Src/stm32f4xx_hal_spi.c ****   if (hspi->Init.CRCCalculation == SPI_CRCCALCULATION_ENABLE)
 819:Drivers/STM32F4xx_HAL_Driver/Src/stm32f4xx_hal_spi.c ****   {
 820:Drivers/STM32F4xx_HAL_Driver/Src/stm32f4xx_hal_spi.c ****     SPI_RESET_CRC(hspi);
 821:Drivers/STM32F4xx_HAL_Driver/Src/stm32f4xx_hal_spi.c ****   }
 822:Drivers/STM32F4xx_HAL_Driver/Src/stm32f4xx_hal_spi.c **** #endif /* USE_SPI_CRC */
 823:Drivers/STM32F4xx_HAL_Driver/Src/stm32f4xx_hal_spi.c **** 
 824:Drivers/STM32F4xx_HAL_Driver/Src/stm32f4xx_hal_spi.c ****   /* Check if the SPI is already enabled */
 825:Drivers/STM32F4xx_HAL_Driver/Src/stm32f4xx_hal_spi.c ****   if ((hspi->Instance->CR1 & SPI_CR1_SPE) != SPI_CR1_SPE)
 489              		.loc 1 825 12
 490 00b8 FB68     		ldr	r3, [r7, #12]
 491 00ba 1B68     		ldr	r3, [r3]
 492              		.loc 1 825 22
 493 00bc 1B68     		ldr	r3, [r3]
 494              		.loc 1 825 28
 495 00be 03F04003 		and	r3, r3, #64
ARM GAS  C:\Users\16323\AppData\Local\Temp\ccbQ7VoP.s 			page 24


 496              		.loc 1 825 6
 497 00c2 402B     		cmp	r3, #64
 498 00c4 07D0     		beq	.L19
 826:Drivers/STM32F4xx_HAL_Driver/Src/stm32f4xx_hal_spi.c ****   {
 827:Drivers/STM32F4xx_HAL_Driver/Src/stm32f4xx_hal_spi.c ****     /* Enable SPI peripheral */
 828:Drivers/STM32F4xx_HAL_Driver/Src/stm32f4xx_hal_spi.c ****     __HAL_SPI_ENABLE(hspi);
 499              		.loc 1 828 5
 500 00c6 FB68     		ldr	r3, [r7, #12]
 501 00c8 1B68     		ldr	r3, [r3]
 502 00ca 1A68     		ldr	r2, [r3]
 503 00cc FB68     		ldr	r3, [r7, #12]
 504 00ce 1B68     		ldr	r3, [r3]
 505 00d0 42F04002 		orr	r2, r2, #64
 506 00d4 1A60     		str	r2, [r3]
 507              	.L19:
 829:Drivers/STM32F4xx_HAL_Driver/Src/stm32f4xx_hal_spi.c ****   }
 830:Drivers/STM32F4xx_HAL_Driver/Src/stm32f4xx_hal_spi.c **** 
 831:Drivers/STM32F4xx_HAL_Driver/Src/stm32f4xx_hal_spi.c ****   /* Transmit data in 16 Bit mode */
 832:Drivers/STM32F4xx_HAL_Driver/Src/stm32f4xx_hal_spi.c ****   if (hspi->Init.DataSize == SPI_DATASIZE_16BIT)
 508              		.loc 1 832 17
 509 00d6 FB68     		ldr	r3, [r7, #12]
 510 00d8 DB68     		ldr	r3, [r3, #12]
 511              		.loc 1 832 6
 512 00da B3F5006F 		cmp	r3, #2048
 513 00de 52D1     		bne	.L20
 833:Drivers/STM32F4xx_HAL_Driver/Src/stm32f4xx_hal_spi.c ****   {
 834:Drivers/STM32F4xx_HAL_Driver/Src/stm32f4xx_hal_spi.c ****     if ((hspi->Init.Mode == SPI_MODE_SLAVE) || (initial_TxXferCount == 0x01U))
 514              		.loc 1 834 20
 515 00e0 FB68     		ldr	r3, [r7, #12]
 516 00e2 5B68     		ldr	r3, [r3, #4]
 517              		.loc 1 834 8
 518 00e4 002B     		cmp	r3, #0
 519 00e6 02D0     		beq	.L21
 520              		.loc 1 834 45 discriminator 1
 521 00e8 7B8B     		ldrh	r3, [r7, #26]
 522 00ea 012B     		cmp	r3, #1
 523 00ec 45D1     		bne	.L23
 524              	.L21:
 835:Drivers/STM32F4xx_HAL_Driver/Src/stm32f4xx_hal_spi.c ****     {
 836:Drivers/STM32F4xx_HAL_Driver/Src/stm32f4xx_hal_spi.c ****       hspi->Instance->DR = *((const uint16_t *)hspi->pTxBuffPtr);
 525              		.loc 1 836 52
 526 00ee FB68     		ldr	r3, [r7, #12]
 527 00f0 1B6B     		ldr	r3, [r3, #48]
 528              		.loc 1 836 28
 529 00f2 1A88     		ldrh	r2, [r3]
 530              		.loc 1 836 11
 531 00f4 FB68     		ldr	r3, [r7, #12]
 532 00f6 1B68     		ldr	r3, [r3]
 533              		.loc 1 836 26
 534 00f8 DA60     		str	r2, [r3, #12]
 837:Drivers/STM32F4xx_HAL_Driver/Src/stm32f4xx_hal_spi.c ****       hspi->pTxBuffPtr += sizeof(uint16_t);
 535              		.loc 1 837 24
 536 00fa FB68     		ldr	r3, [r7, #12]
 537 00fc 1B6B     		ldr	r3, [r3, #48]
 538 00fe 9A1C     		adds	r2, r3, #2
 539 0100 FB68     		ldr	r3, [r7, #12]
 540 0102 1A63     		str	r2, [r3, #48]
ARM GAS  C:\Users\16323\AppData\Local\Temp\ccbQ7VoP.s 			page 25


 838:Drivers/STM32F4xx_HAL_Driver/Src/stm32f4xx_hal_spi.c ****       hspi->TxXferCount--;
 541              		.loc 1 838 11
 542 0104 FB68     		ldr	r3, [r7, #12]
 543 0106 DB8E     		ldrh	r3, [r3, #54]	@ movhi
 544 0108 9BB2     		uxth	r3, r3
 545              		.loc 1 838 24
 546 010a 013B     		subs	r3, r3, #1
 547 010c 9AB2     		uxth	r2, r3
 548 010e FB68     		ldr	r3, [r7, #12]
 549 0110 DA86     		strh	r2, [r3, #54]	@ movhi
 839:Drivers/STM32F4xx_HAL_Driver/Src/stm32f4xx_hal_spi.c ****     }
 840:Drivers/STM32F4xx_HAL_Driver/Src/stm32f4xx_hal_spi.c ****     /* Transmit data in 16 Bit mode */
 841:Drivers/STM32F4xx_HAL_Driver/Src/stm32f4xx_hal_spi.c ****     while (hspi->TxXferCount > 0U)
 550              		.loc 1 841 11
 551 0112 32E0     		b	.L23
 552              	.L27:
 842:Drivers/STM32F4xx_HAL_Driver/Src/stm32f4xx_hal_spi.c ****     {
 843:Drivers/STM32F4xx_HAL_Driver/Src/stm32f4xx_hal_spi.c ****       /* Wait until TXE flag is set to send data */
 844:Drivers/STM32F4xx_HAL_Driver/Src/stm32f4xx_hal_spi.c ****       if (__HAL_SPI_GET_FLAG(hspi, SPI_FLAG_TXE))
 553              		.loc 1 844 11
 554 0114 FB68     		ldr	r3, [r7, #12]
 555 0116 1B68     		ldr	r3, [r3]
 556 0118 9B68     		ldr	r3, [r3, #8]
 557 011a 03F00203 		and	r3, r3, #2
 558              		.loc 1 844 10
 559 011e 022B     		cmp	r3, #2
 560 0120 12D1     		bne	.L24
 845:Drivers/STM32F4xx_HAL_Driver/Src/stm32f4xx_hal_spi.c ****       {
 846:Drivers/STM32F4xx_HAL_Driver/Src/stm32f4xx_hal_spi.c ****         hspi->Instance->DR = *((const uint16_t *)hspi->pTxBuffPtr);
 561              		.loc 1 846 54
 562 0122 FB68     		ldr	r3, [r7, #12]
 563 0124 1B6B     		ldr	r3, [r3, #48]
 564              		.loc 1 846 30
 565 0126 1A88     		ldrh	r2, [r3]
 566              		.loc 1 846 13
 567 0128 FB68     		ldr	r3, [r7, #12]
 568 012a 1B68     		ldr	r3, [r3]
 569              		.loc 1 846 28
 570 012c DA60     		str	r2, [r3, #12]
 847:Drivers/STM32F4xx_HAL_Driver/Src/stm32f4xx_hal_spi.c ****         hspi->pTxBuffPtr += sizeof(uint16_t);
 571              		.loc 1 847 26
 572 012e FB68     		ldr	r3, [r7, #12]
 573 0130 1B6B     		ldr	r3, [r3, #48]
 574 0132 9A1C     		adds	r2, r3, #2
 575 0134 FB68     		ldr	r3, [r7, #12]
 576 0136 1A63     		str	r2, [r3, #48]
 848:Drivers/STM32F4xx_HAL_Driver/Src/stm32f4xx_hal_spi.c ****         hspi->TxXferCount--;
 577              		.loc 1 848 13
 578 0138 FB68     		ldr	r3, [r7, #12]
 579 013a DB8E     		ldrh	r3, [r3, #54]	@ movhi
 580 013c 9BB2     		uxth	r3, r3
 581              		.loc 1 848 26
 582 013e 013B     		subs	r3, r3, #1
 583 0140 9AB2     		uxth	r2, r3
 584 0142 FB68     		ldr	r3, [r7, #12]
 585 0144 DA86     		strh	r2, [r3, #54]	@ movhi
 586 0146 18E0     		b	.L23
ARM GAS  C:\Users\16323\AppData\Local\Temp\ccbQ7VoP.s 			page 26


 587              	.L24:
 849:Drivers/STM32F4xx_HAL_Driver/Src/stm32f4xx_hal_spi.c ****       }
 850:Drivers/STM32F4xx_HAL_Driver/Src/stm32f4xx_hal_spi.c ****       else
 851:Drivers/STM32F4xx_HAL_Driver/Src/stm32f4xx_hal_spi.c ****       {
 852:Drivers/STM32F4xx_HAL_Driver/Src/stm32f4xx_hal_spi.c ****         /* Timeout management */
 853:Drivers/STM32F4xx_HAL_Driver/Src/stm32f4xx_hal_spi.c ****         if ((((HAL_GetTick() - tickstart) >=  Timeout) && (Timeout != HAL_MAX_DELAY)) || (Timeout =
 588              		.loc 1 853 16
 589 0148 FFF7FEFF 		bl	HAL_GetTick
 590 014c 0246     		mov	r2, r0
 591              		.loc 1 853 30
 592 014e FB69     		ldr	r3, [r7, #28]
 593 0150 D31A     		subs	r3, r2, r3
 594              		.loc 1 853 12
 595 0152 3A68     		ldr	r2, [r7]
 596 0154 9A42     		cmp	r2, r3
 597 0156 03D8     		bhi	.L25
 598              		.loc 1 853 56 discriminator 1
 599 0158 3B68     		ldr	r3, [r7]
 600 015a B3F1FF3F 		cmp	r3, #-1
 601 015e 02D1     		bne	.L26
 602              	.L25:
 603              		.loc 1 853 87 discriminator 3
 604 0160 3B68     		ldr	r3, [r7]
 605 0162 002B     		cmp	r3, #0
 606 0164 09D1     		bne	.L23
 607              	.L26:
 854:Drivers/STM32F4xx_HAL_Driver/Src/stm32f4xx_hal_spi.c ****         {
 855:Drivers/STM32F4xx_HAL_Driver/Src/stm32f4xx_hal_spi.c ****           hspi->State = HAL_SPI_STATE_READY;
 608              		.loc 1 855 23
 609 0166 FB68     		ldr	r3, [r7, #12]
 610 0168 0122     		movs	r2, #1
 611 016a 83F85120 		strb	r2, [r3, #81]
 856:Drivers/STM32F4xx_HAL_Driver/Src/stm32f4xx_hal_spi.c ****           __HAL_UNLOCK(hspi);
 612              		.loc 1 856 11
 613 016e FB68     		ldr	r3, [r7, #12]
 614 0170 0022     		movs	r2, #0
 615 0172 83F85020 		strb	r2, [r3, #80]
 857:Drivers/STM32F4xx_HAL_Driver/Src/stm32f4xx_hal_spi.c ****           return HAL_TIMEOUT;
 616              		.loc 1 857 18
 617 0176 0323     		movs	r3, #3
 618 0178 82E0     		b	.L14
 619              	.L23:
 841:Drivers/STM32F4xx_HAL_Driver/Src/stm32f4xx_hal_spi.c ****     {
 620              		.loc 1 841 16
 621 017a FB68     		ldr	r3, [r7, #12]
 622 017c DB8E     		ldrh	r3, [r3, #54]	@ movhi
 623 017e 9BB2     		uxth	r3, r3
 841:Drivers/STM32F4xx_HAL_Driver/Src/stm32f4xx_hal_spi.c ****     {
 624              		.loc 1 841 11
 625 0180 002B     		cmp	r3, #0
 626 0182 C7D1     		bne	.L27
 627 0184 53E0     		b	.L28
 628              	.L20:
 858:Drivers/STM32F4xx_HAL_Driver/Src/stm32f4xx_hal_spi.c ****         }
 859:Drivers/STM32F4xx_HAL_Driver/Src/stm32f4xx_hal_spi.c ****       }
 860:Drivers/STM32F4xx_HAL_Driver/Src/stm32f4xx_hal_spi.c ****     }
 861:Drivers/STM32F4xx_HAL_Driver/Src/stm32f4xx_hal_spi.c ****   }
ARM GAS  C:\Users\16323\AppData\Local\Temp\ccbQ7VoP.s 			page 27


 862:Drivers/STM32F4xx_HAL_Driver/Src/stm32f4xx_hal_spi.c ****   /* Transmit data in 8 Bit mode */
 863:Drivers/STM32F4xx_HAL_Driver/Src/stm32f4xx_hal_spi.c ****   else
 864:Drivers/STM32F4xx_HAL_Driver/Src/stm32f4xx_hal_spi.c ****   {
 865:Drivers/STM32F4xx_HAL_Driver/Src/stm32f4xx_hal_spi.c ****     if ((hspi->Init.Mode == SPI_MODE_SLAVE) || (initial_TxXferCount == 0x01U))
 629              		.loc 1 865 20
 630 0186 FB68     		ldr	r3, [r7, #12]
 631 0188 5B68     		ldr	r3, [r3, #4]
 632              		.loc 1 865 8
 633 018a 002B     		cmp	r3, #0
 634 018c 02D0     		beq	.L29
 635              		.loc 1 865 45 discriminator 1
 636 018e 7B8B     		ldrh	r3, [r7, #26]
 637 0190 012B     		cmp	r3, #1
 638 0192 47D1     		bne	.L31
 639              	.L29:
 866:Drivers/STM32F4xx_HAL_Driver/Src/stm32f4xx_hal_spi.c ****     {
 867:Drivers/STM32F4xx_HAL_Driver/Src/stm32f4xx_hal_spi.c ****       *((__IO uint8_t *)&hspi->Instance->DR) = *((const uint8_t *)hspi->pTxBuffPtr);
 640              		.loc 1 867 71
 641 0194 FB68     		ldr	r3, [r7, #12]
 642 0196 1A6B     		ldr	r2, [r3, #48]
 643              		.loc 1 867 30
 644 0198 FB68     		ldr	r3, [r7, #12]
 645 019a 1B68     		ldr	r3, [r3]
 646              		.loc 1 867 25
 647 019c 0C33     		adds	r3, r3, #12
 648              		.loc 1 867 48
 649 019e 1278     		ldrb	r2, [r2]	@ zero_extendqisi2
 650              		.loc 1 867 46
 651 01a0 1A70     		strb	r2, [r3]
 868:Drivers/STM32F4xx_HAL_Driver/Src/stm32f4xx_hal_spi.c ****       hspi->pTxBuffPtr += sizeof(uint8_t);
 652              		.loc 1 868 24
 653 01a2 FB68     		ldr	r3, [r7, #12]
 654 01a4 1B6B     		ldr	r3, [r3, #48]
 655 01a6 5A1C     		adds	r2, r3, #1
 656 01a8 FB68     		ldr	r3, [r7, #12]
 657 01aa 1A63     		str	r2, [r3, #48]
 869:Drivers/STM32F4xx_HAL_Driver/Src/stm32f4xx_hal_spi.c ****       hspi->TxXferCount--;
 658              		.loc 1 869 11
 659 01ac FB68     		ldr	r3, [r7, #12]
 660 01ae DB8E     		ldrh	r3, [r3, #54]	@ movhi
 661 01b0 9BB2     		uxth	r3, r3
 662              		.loc 1 869 24
 663 01b2 013B     		subs	r3, r3, #1
 664 01b4 9AB2     		uxth	r2, r3
 665 01b6 FB68     		ldr	r3, [r7, #12]
 666 01b8 DA86     		strh	r2, [r3, #54]	@ movhi
 870:Drivers/STM32F4xx_HAL_Driver/Src/stm32f4xx_hal_spi.c ****     }
 871:Drivers/STM32F4xx_HAL_Driver/Src/stm32f4xx_hal_spi.c ****     while (hspi->TxXferCount > 0U)
 667              		.loc 1 871 11
 668 01ba 33E0     		b	.L31
 669              	.L35:
 872:Drivers/STM32F4xx_HAL_Driver/Src/stm32f4xx_hal_spi.c ****     {
 873:Drivers/STM32F4xx_HAL_Driver/Src/stm32f4xx_hal_spi.c ****       /* Wait until TXE flag is set to send data */
 874:Drivers/STM32F4xx_HAL_Driver/Src/stm32f4xx_hal_spi.c ****       if (__HAL_SPI_GET_FLAG(hspi, SPI_FLAG_TXE))
 670              		.loc 1 874 11
 671 01bc FB68     		ldr	r3, [r7, #12]
 672 01be 1B68     		ldr	r3, [r3]
ARM GAS  C:\Users\16323\AppData\Local\Temp\ccbQ7VoP.s 			page 28


 673 01c0 9B68     		ldr	r3, [r3, #8]
 674 01c2 03F00203 		and	r3, r3, #2
 675              		.loc 1 874 10
 676 01c6 022B     		cmp	r3, #2
 677 01c8 13D1     		bne	.L32
 875:Drivers/STM32F4xx_HAL_Driver/Src/stm32f4xx_hal_spi.c ****       {
 876:Drivers/STM32F4xx_HAL_Driver/Src/stm32f4xx_hal_spi.c ****         *((__IO uint8_t *)&hspi->Instance->DR) = *((const uint8_t *)hspi->pTxBuffPtr);
 678              		.loc 1 876 73
 679 01ca FB68     		ldr	r3, [r7, #12]
 680 01cc 1A6B     		ldr	r2, [r3, #48]
 681              		.loc 1 876 32
 682 01ce FB68     		ldr	r3, [r7, #12]
 683 01d0 1B68     		ldr	r3, [r3]
 684              		.loc 1 876 27
 685 01d2 0C33     		adds	r3, r3, #12
 686              		.loc 1 876 50
 687 01d4 1278     		ldrb	r2, [r2]	@ zero_extendqisi2
 688              		.loc 1 876 48
 689 01d6 1A70     		strb	r2, [r3]
 877:Drivers/STM32F4xx_HAL_Driver/Src/stm32f4xx_hal_spi.c ****         hspi->pTxBuffPtr += sizeof(uint8_t);
 690              		.loc 1 877 26
 691 01d8 FB68     		ldr	r3, [r7, #12]
 692 01da 1B6B     		ldr	r3, [r3, #48]
 693 01dc 5A1C     		adds	r2, r3, #1
 694 01de FB68     		ldr	r3, [r7, #12]
 695 01e0 1A63     		str	r2, [r3, #48]
 878:Drivers/STM32F4xx_HAL_Driver/Src/stm32f4xx_hal_spi.c ****         hspi->TxXferCount--;
 696              		.loc 1 878 13
 697 01e2 FB68     		ldr	r3, [r7, #12]
 698 01e4 DB8E     		ldrh	r3, [r3, #54]	@ movhi
 699 01e6 9BB2     		uxth	r3, r3
 700              		.loc 1 878 26
 701 01e8 013B     		subs	r3, r3, #1
 702 01ea 9AB2     		uxth	r2, r3
 703 01ec FB68     		ldr	r3, [r7, #12]
 704 01ee DA86     		strh	r2, [r3, #54]	@ movhi
 705 01f0 18E0     		b	.L31
 706              	.L32:
 879:Drivers/STM32F4xx_HAL_Driver/Src/stm32f4xx_hal_spi.c ****       }
 880:Drivers/STM32F4xx_HAL_Driver/Src/stm32f4xx_hal_spi.c ****       else
 881:Drivers/STM32F4xx_HAL_Driver/Src/stm32f4xx_hal_spi.c ****       {
 882:Drivers/STM32F4xx_HAL_Driver/Src/stm32f4xx_hal_spi.c ****         /* Timeout management */
 883:Drivers/STM32F4xx_HAL_Driver/Src/stm32f4xx_hal_spi.c ****         if ((((HAL_GetTick() - tickstart) >=  Timeout) && (Timeout != HAL_MAX_DELAY)) || (Timeout =
 707              		.loc 1 883 16
 708 01f2 FFF7FEFF 		bl	HAL_GetTick
 709 01f6 0246     		mov	r2, r0
 710              		.loc 1 883 30
 711 01f8 FB69     		ldr	r3, [r7, #28]
 712 01fa D31A     		subs	r3, r2, r3
 713              		.loc 1 883 12
 714 01fc 3A68     		ldr	r2, [r7]
 715 01fe 9A42     		cmp	r2, r3
 716 0200 03D8     		bhi	.L33
 717              		.loc 1 883 56 discriminator 1
 718 0202 3B68     		ldr	r3, [r7]
 719 0204 B3F1FF3F 		cmp	r3, #-1
 720 0208 02D1     		bne	.L34
ARM GAS  C:\Users\16323\AppData\Local\Temp\ccbQ7VoP.s 			page 29


 721              	.L33:
 722              		.loc 1 883 87 discriminator 3
 723 020a 3B68     		ldr	r3, [r7]
 724 020c 002B     		cmp	r3, #0
 725 020e 09D1     		bne	.L31
 726              	.L34:
 884:Drivers/STM32F4xx_HAL_Driver/Src/stm32f4xx_hal_spi.c ****         {
 885:Drivers/STM32F4xx_HAL_Driver/Src/stm32f4xx_hal_spi.c ****           hspi->State = HAL_SPI_STATE_READY;
 727              		.loc 1 885 23
 728 0210 FB68     		ldr	r3, [r7, #12]
 729 0212 0122     		movs	r2, #1
 730 0214 83F85120 		strb	r2, [r3, #81]
 886:Drivers/STM32F4xx_HAL_Driver/Src/stm32f4xx_hal_spi.c ****           __HAL_UNLOCK(hspi);
 731              		.loc 1 886 11
 732 0218 FB68     		ldr	r3, [r7, #12]
 733 021a 0022     		movs	r2, #0
 734 021c 83F85020 		strb	r2, [r3, #80]
 887:Drivers/STM32F4xx_HAL_Driver/Src/stm32f4xx_hal_spi.c ****           return HAL_TIMEOUT;
 735              		.loc 1 887 18
 736 0220 0323     		movs	r3, #3
 737 0222 2DE0     		b	.L14
 738              	.L31:
 871:Drivers/STM32F4xx_HAL_Driver/Src/stm32f4xx_hal_spi.c ****     {
 739              		.loc 1 871 16
 740 0224 FB68     		ldr	r3, [r7, #12]
 741 0226 DB8E     		ldrh	r3, [r3, #54]	@ movhi
 742 0228 9BB2     		uxth	r3, r3
 871:Drivers/STM32F4xx_HAL_Driver/Src/stm32f4xx_hal_spi.c ****     {
 743              		.loc 1 871 11
 744 022a 002B     		cmp	r3, #0
 745 022c C6D1     		bne	.L35
 746              	.L28:
 888:Drivers/STM32F4xx_HAL_Driver/Src/stm32f4xx_hal_spi.c ****         }
 889:Drivers/STM32F4xx_HAL_Driver/Src/stm32f4xx_hal_spi.c ****       }
 890:Drivers/STM32F4xx_HAL_Driver/Src/stm32f4xx_hal_spi.c ****     }
 891:Drivers/STM32F4xx_HAL_Driver/Src/stm32f4xx_hal_spi.c ****   }
 892:Drivers/STM32F4xx_HAL_Driver/Src/stm32f4xx_hal_spi.c **** #if (USE_SPI_CRC != 0U)
 893:Drivers/STM32F4xx_HAL_Driver/Src/stm32f4xx_hal_spi.c ****   /* Enable CRC Transmission */
 894:Drivers/STM32F4xx_HAL_Driver/Src/stm32f4xx_hal_spi.c ****   if (hspi->Init.CRCCalculation == SPI_CRCCALCULATION_ENABLE)
 895:Drivers/STM32F4xx_HAL_Driver/Src/stm32f4xx_hal_spi.c ****   {
 896:Drivers/STM32F4xx_HAL_Driver/Src/stm32f4xx_hal_spi.c ****     SET_BIT(hspi->Instance->CR1, SPI_CR1_CRCNEXT);
 897:Drivers/STM32F4xx_HAL_Driver/Src/stm32f4xx_hal_spi.c ****   }
 898:Drivers/STM32F4xx_HAL_Driver/Src/stm32f4xx_hal_spi.c **** #endif /* USE_SPI_CRC */
 899:Drivers/STM32F4xx_HAL_Driver/Src/stm32f4xx_hal_spi.c **** 
 900:Drivers/STM32F4xx_HAL_Driver/Src/stm32f4xx_hal_spi.c ****   /* Check the end of the transaction */
 901:Drivers/STM32F4xx_HAL_Driver/Src/stm32f4xx_hal_spi.c ****   if (SPI_EndRxTxTransaction(hspi, Timeout, tickstart) != HAL_OK)
 747              		.loc 1 901 7
 748 022e FA69     		ldr	r2, [r7, #28]
 749 0230 3968     		ldr	r1, [r7]
 750 0232 F868     		ldr	r0, [r7, #12]
 751 0234 FFF7FEFF 		bl	SPI_EndRxTxTransaction
 752 0238 0346     		mov	r3, r0
 753              		.loc 1 901 6
 754 023a 002B     		cmp	r3, #0
 755 023c 02D0     		beq	.L36
 902:Drivers/STM32F4xx_HAL_Driver/Src/stm32f4xx_hal_spi.c ****   {
 903:Drivers/STM32F4xx_HAL_Driver/Src/stm32f4xx_hal_spi.c ****     hspi->ErrorCode = HAL_SPI_ERROR_FLAG;
ARM GAS  C:\Users\16323\AppData\Local\Temp\ccbQ7VoP.s 			page 30


 756              		.loc 1 903 21
 757 023e FB68     		ldr	r3, [r7, #12]
 758 0240 2022     		movs	r2, #32
 759 0242 5A65     		str	r2, [r3, #84]
 760              	.L36:
 904:Drivers/STM32F4xx_HAL_Driver/Src/stm32f4xx_hal_spi.c ****   }
 905:Drivers/STM32F4xx_HAL_Driver/Src/stm32f4xx_hal_spi.c **** 
 906:Drivers/STM32F4xx_HAL_Driver/Src/stm32f4xx_hal_spi.c ****   /* Clear overrun flag in 2 Lines communication mode because received is not read */
 907:Drivers/STM32F4xx_HAL_Driver/Src/stm32f4xx_hal_spi.c ****   if (hspi->Init.Direction == SPI_DIRECTION_2LINES)
 761              		.loc 1 907 17
 762 0244 FB68     		ldr	r3, [r7, #12]
 763 0246 9B68     		ldr	r3, [r3, #8]
 764              		.loc 1 907 6
 765 0248 002B     		cmp	r3, #0
 766 024a 0AD1     		bne	.L37
 767              	.LBB2:
 908:Drivers/STM32F4xx_HAL_Driver/Src/stm32f4xx_hal_spi.c ****   {
 909:Drivers/STM32F4xx_HAL_Driver/Src/stm32f4xx_hal_spi.c ****     __HAL_SPI_CLEAR_OVRFLAG(hspi);
 768              		.loc 1 909 5
 769 024c 0023     		movs	r3, #0
 770 024e 7B61     		str	r3, [r7, #20]
 771 0250 FB68     		ldr	r3, [r7, #12]
 772 0252 1B68     		ldr	r3, [r3]
 773 0254 DB68     		ldr	r3, [r3, #12]
 774 0256 7B61     		str	r3, [r7, #20]
 775 0258 FB68     		ldr	r3, [r7, #12]
 776 025a 1B68     		ldr	r3, [r3]
 777 025c 9B68     		ldr	r3, [r3, #8]
 778 025e 7B61     		str	r3, [r7, #20]
 779 0260 7B69     		ldr	r3, [r7, #20]
 780              	.L37:
 781              	.LBE2:
 910:Drivers/STM32F4xx_HAL_Driver/Src/stm32f4xx_hal_spi.c ****   }
 911:Drivers/STM32F4xx_HAL_Driver/Src/stm32f4xx_hal_spi.c **** 
 912:Drivers/STM32F4xx_HAL_Driver/Src/stm32f4xx_hal_spi.c ****   hspi->State = HAL_SPI_STATE_READY;
 782              		.loc 1 912 15
 783 0262 FB68     		ldr	r3, [r7, #12]
 784 0264 0122     		movs	r2, #1
 785 0266 83F85120 		strb	r2, [r3, #81]
 913:Drivers/STM32F4xx_HAL_Driver/Src/stm32f4xx_hal_spi.c ****   /* Process Unlocked */
 914:Drivers/STM32F4xx_HAL_Driver/Src/stm32f4xx_hal_spi.c ****   __HAL_UNLOCK(hspi);
 786              		.loc 1 914 3
 787 026a FB68     		ldr	r3, [r7, #12]
 788 026c 0022     		movs	r2, #0
 789 026e 83F85020 		strb	r2, [r3, #80]
 915:Drivers/STM32F4xx_HAL_Driver/Src/stm32f4xx_hal_spi.c **** 
 916:Drivers/STM32F4xx_HAL_Driver/Src/stm32f4xx_hal_spi.c ****   if (hspi->ErrorCode != HAL_SPI_ERROR_NONE)
 790              		.loc 1 916 11
 791 0272 FB68     		ldr	r3, [r7, #12]
 792 0274 5B6D     		ldr	r3, [r3, #84]
 793              		.loc 1 916 6
 794 0276 002B     		cmp	r3, #0
 795 0278 01D0     		beq	.L38
 917:Drivers/STM32F4xx_HAL_Driver/Src/stm32f4xx_hal_spi.c ****   {
 918:Drivers/STM32F4xx_HAL_Driver/Src/stm32f4xx_hal_spi.c ****     return HAL_ERROR;
 796              		.loc 1 918 12
 797 027a 0123     		movs	r3, #1
ARM GAS  C:\Users\16323\AppData\Local\Temp\ccbQ7VoP.s 			page 31


 798 027c 00E0     		b	.L14
 799              	.L38:
 919:Drivers/STM32F4xx_HAL_Driver/Src/stm32f4xx_hal_spi.c ****   }
 920:Drivers/STM32F4xx_HAL_Driver/Src/stm32f4xx_hal_spi.c ****   else
 921:Drivers/STM32F4xx_HAL_Driver/Src/stm32f4xx_hal_spi.c ****   {
 922:Drivers/STM32F4xx_HAL_Driver/Src/stm32f4xx_hal_spi.c ****     return HAL_OK;
 800              		.loc 1 922 12
 801 027e 0023     		movs	r3, #0
 802              	.L14:
 923:Drivers/STM32F4xx_HAL_Driver/Src/stm32f4xx_hal_spi.c ****   }
 924:Drivers/STM32F4xx_HAL_Driver/Src/stm32f4xx_hal_spi.c **** }
 803              		.loc 1 924 1
 804 0280 1846     		mov	r0, r3
 805 0282 2037     		adds	r7, r7, #32
 806              	.LCFI25:
 807              		.cfi_def_cfa_offset 8
 808 0284 BD46     		mov	sp, r7
 809              	.LCFI26:
 810              		.cfi_def_cfa_register 13
 811              		@ sp needed
 812 0286 80BD     		pop	{r7, pc}
 813              		.cfi_endproc
 814              	.LFE243:
 816              		.section	.text.HAL_SPI_Receive,"ax",%progbits
 817              		.align	1
 818              		.global	HAL_SPI_Receive
 819              		.syntax unified
 820              		.thumb
 821              		.thumb_func
 823              	HAL_SPI_Receive:
 824              	.LFB244:
 925:Drivers/STM32F4xx_HAL_Driver/Src/stm32f4xx_hal_spi.c **** 
 926:Drivers/STM32F4xx_HAL_Driver/Src/stm32f4xx_hal_spi.c **** /**
 927:Drivers/STM32F4xx_HAL_Driver/Src/stm32f4xx_hal_spi.c ****   * @brief  Receive an amount of data in blocking mode.
 928:Drivers/STM32F4xx_HAL_Driver/Src/stm32f4xx_hal_spi.c ****   * @param  hspi pointer to a SPI_HandleTypeDef structure that contains
 929:Drivers/STM32F4xx_HAL_Driver/Src/stm32f4xx_hal_spi.c ****   *               the configuration information for SPI module.
 930:Drivers/STM32F4xx_HAL_Driver/Src/stm32f4xx_hal_spi.c ****   * @param  pData pointer to data buffer
 931:Drivers/STM32F4xx_HAL_Driver/Src/stm32f4xx_hal_spi.c ****   * @param  Size amount of data to be received
 932:Drivers/STM32F4xx_HAL_Driver/Src/stm32f4xx_hal_spi.c ****   * @param  Timeout Timeout duration
 933:Drivers/STM32F4xx_HAL_Driver/Src/stm32f4xx_hal_spi.c ****   * @retval HAL status
 934:Drivers/STM32F4xx_HAL_Driver/Src/stm32f4xx_hal_spi.c ****   */
 935:Drivers/STM32F4xx_HAL_Driver/Src/stm32f4xx_hal_spi.c **** HAL_StatusTypeDef HAL_SPI_Receive(SPI_HandleTypeDef *hspi, uint8_t *pData, uint16_t Size, uint32_t 
 936:Drivers/STM32F4xx_HAL_Driver/Src/stm32f4xx_hal_spi.c **** {
 825              		.loc 1 936 1
 826              		.cfi_startproc
 827              		@ args = 0, pretend = 0, frame = 24
 828              		@ frame_needed = 1, uses_anonymous_args = 0
 829 0000 80B5     		push	{r7, lr}
 830              	.LCFI27:
 831              		.cfi_def_cfa_offset 8
 832              		.cfi_offset 7, -8
 833              		.cfi_offset 14, -4
 834 0002 88B0     		sub	sp, sp, #32
 835              	.LCFI28:
 836              		.cfi_def_cfa_offset 40
 837 0004 02AF     		add	r7, sp, #8
 838              	.LCFI29:
ARM GAS  C:\Users\16323\AppData\Local\Temp\ccbQ7VoP.s 			page 32


 839              		.cfi_def_cfa 7, 32
 840 0006 F860     		str	r0, [r7, #12]
 841 0008 B960     		str	r1, [r7, #8]
 842 000a 3B60     		str	r3, [r7]
 843 000c 1346     		mov	r3, r2	@ movhi
 844 000e FB80     		strh	r3, [r7, #6]	@ movhi
 937:Drivers/STM32F4xx_HAL_Driver/Src/stm32f4xx_hal_spi.c **** #if (USE_SPI_CRC != 0U)
 938:Drivers/STM32F4xx_HAL_Driver/Src/stm32f4xx_hal_spi.c ****   __IO uint32_t tmpreg = 0U;
 939:Drivers/STM32F4xx_HAL_Driver/Src/stm32f4xx_hal_spi.c **** #endif /* USE_SPI_CRC */
 940:Drivers/STM32F4xx_HAL_Driver/Src/stm32f4xx_hal_spi.c ****   uint32_t tickstart;
 941:Drivers/STM32F4xx_HAL_Driver/Src/stm32f4xx_hal_spi.c **** 
 942:Drivers/STM32F4xx_HAL_Driver/Src/stm32f4xx_hal_spi.c ****   if (hspi->State != HAL_SPI_STATE_READY)
 845              		.loc 1 942 11
 846 0010 FB68     		ldr	r3, [r7, #12]
 847 0012 93F85130 		ldrb	r3, [r3, #81]
 848 0016 DBB2     		uxtb	r3, r3
 849              		.loc 1 942 6
 850 0018 012B     		cmp	r3, #1
 851 001a 01D0     		beq	.L40
 943:Drivers/STM32F4xx_HAL_Driver/Src/stm32f4xx_hal_spi.c ****   {
 944:Drivers/STM32F4xx_HAL_Driver/Src/stm32f4xx_hal_spi.c ****     return HAL_BUSY;
 852              		.loc 1 944 12
 853 001c 0223     		movs	r3, #2
 854 001e 04E1     		b	.L41
 855              	.L40:
 945:Drivers/STM32F4xx_HAL_Driver/Src/stm32f4xx_hal_spi.c ****   }
 946:Drivers/STM32F4xx_HAL_Driver/Src/stm32f4xx_hal_spi.c **** 
 947:Drivers/STM32F4xx_HAL_Driver/Src/stm32f4xx_hal_spi.c ****   if ((hspi->Init.Mode == SPI_MODE_MASTER) && (hspi->Init.Direction == SPI_DIRECTION_2LINES))
 856              		.loc 1 947 18
 857 0020 FB68     		ldr	r3, [r7, #12]
 858 0022 5B68     		ldr	r3, [r3, #4]
 859              		.loc 1 947 6
 860 0024 B3F5827F 		cmp	r3, #260
 861 0028 12D1     		bne	.L42
 862              		.loc 1 947 58 discriminator 1
 863 002a FB68     		ldr	r3, [r7, #12]
 864 002c 9B68     		ldr	r3, [r3, #8]
 865              		.loc 1 947 44 discriminator 1
 866 002e 002B     		cmp	r3, #0
 867 0030 0ED1     		bne	.L42
 948:Drivers/STM32F4xx_HAL_Driver/Src/stm32f4xx_hal_spi.c ****   {
 949:Drivers/STM32F4xx_HAL_Driver/Src/stm32f4xx_hal_spi.c ****     hspi->State = HAL_SPI_STATE_BUSY_RX;
 868              		.loc 1 949 17
 869 0032 FB68     		ldr	r3, [r7, #12]
 870 0034 0422     		movs	r2, #4
 871 0036 83F85120 		strb	r2, [r3, #81]
 950:Drivers/STM32F4xx_HAL_Driver/Src/stm32f4xx_hal_spi.c ****     /* Call transmit-receive function to send Dummy data on Tx line and generate clock on CLK line 
 951:Drivers/STM32F4xx_HAL_Driver/Src/stm32f4xx_hal_spi.c ****     return HAL_SPI_TransmitReceive(hspi, pData, pData, Size, Timeout);
 872              		.loc 1 951 12
 873 003a FA88     		ldrh	r2, [r7, #6]
 874 003c 3B68     		ldr	r3, [r7]
 875 003e 0093     		str	r3, [sp]
 876 0040 1346     		mov	r3, r2
 877 0042 BA68     		ldr	r2, [r7, #8]
 878 0044 B968     		ldr	r1, [r7, #8]
 879 0046 F868     		ldr	r0, [r7, #12]
 880 0048 FFF7FEFF 		bl	HAL_SPI_TransmitReceive
ARM GAS  C:\Users\16323\AppData\Local\Temp\ccbQ7VoP.s 			page 33


 881 004c 0346     		mov	r3, r0
 882 004e ECE0     		b	.L41
 883              	.L42:
 952:Drivers/STM32F4xx_HAL_Driver/Src/stm32f4xx_hal_spi.c ****   }
 953:Drivers/STM32F4xx_HAL_Driver/Src/stm32f4xx_hal_spi.c **** 
 954:Drivers/STM32F4xx_HAL_Driver/Src/stm32f4xx_hal_spi.c ****   /* Init tickstart for timeout management*/
 955:Drivers/STM32F4xx_HAL_Driver/Src/stm32f4xx_hal_spi.c ****   tickstart = HAL_GetTick();
 884              		.loc 1 955 15
 885 0050 FFF7FEFF 		bl	HAL_GetTick
 886 0054 7861     		str	r0, [r7, #20]
 956:Drivers/STM32F4xx_HAL_Driver/Src/stm32f4xx_hal_spi.c **** 
 957:Drivers/STM32F4xx_HAL_Driver/Src/stm32f4xx_hal_spi.c ****   if ((pData == NULL) || (Size == 0U))
 887              		.loc 1 957 6
 888 0056 BB68     		ldr	r3, [r7, #8]
 889 0058 002B     		cmp	r3, #0
 890 005a 02D0     		beq	.L43
 891              		.loc 1 957 23 discriminator 1
 892 005c FB88     		ldrh	r3, [r7, #6]
 893 005e 002B     		cmp	r3, #0
 894 0060 01D1     		bne	.L44
 895              	.L43:
 958:Drivers/STM32F4xx_HAL_Driver/Src/stm32f4xx_hal_spi.c ****   {
 959:Drivers/STM32F4xx_HAL_Driver/Src/stm32f4xx_hal_spi.c ****     return HAL_ERROR;
 896              		.loc 1 959 12
 897 0062 0123     		movs	r3, #1
 898 0064 E1E0     		b	.L41
 899              	.L44:
 960:Drivers/STM32F4xx_HAL_Driver/Src/stm32f4xx_hal_spi.c ****   }
 961:Drivers/STM32F4xx_HAL_Driver/Src/stm32f4xx_hal_spi.c **** 
 962:Drivers/STM32F4xx_HAL_Driver/Src/stm32f4xx_hal_spi.c ****   /* Process Locked */
 963:Drivers/STM32F4xx_HAL_Driver/Src/stm32f4xx_hal_spi.c ****   __HAL_LOCK(hspi);
 900              		.loc 1 963 3
 901 0066 FB68     		ldr	r3, [r7, #12]
 902 0068 93F85030 		ldrb	r3, [r3, #80]	@ zero_extendqisi2
 903 006c 012B     		cmp	r3, #1
 904 006e 01D1     		bne	.L45
 905              		.loc 1 963 3 is_stmt 0 discriminator 1
 906 0070 0223     		movs	r3, #2
 907 0072 DAE0     		b	.L41
 908              	.L45:
 909              		.loc 1 963 3 discriminator 2
 910 0074 FB68     		ldr	r3, [r7, #12]
 911 0076 0122     		movs	r2, #1
 912 0078 83F85020 		strb	r2, [r3, #80]
 964:Drivers/STM32F4xx_HAL_Driver/Src/stm32f4xx_hal_spi.c **** 
 965:Drivers/STM32F4xx_HAL_Driver/Src/stm32f4xx_hal_spi.c ****   /* Set the transaction information */
 966:Drivers/STM32F4xx_HAL_Driver/Src/stm32f4xx_hal_spi.c ****   hspi->State       = HAL_SPI_STATE_BUSY_RX;
 913              		.loc 1 966 21 is_stmt 1 discriminator 2
 914 007c FB68     		ldr	r3, [r7, #12]
 915 007e 0422     		movs	r2, #4
 916 0080 83F85120 		strb	r2, [r3, #81]
 967:Drivers/STM32F4xx_HAL_Driver/Src/stm32f4xx_hal_spi.c ****   hspi->ErrorCode   = HAL_SPI_ERROR_NONE;
 917              		.loc 1 967 21 discriminator 2
 918 0084 FB68     		ldr	r3, [r7, #12]
 919 0086 0022     		movs	r2, #0
 920 0088 5A65     		str	r2, [r3, #84]
 968:Drivers/STM32F4xx_HAL_Driver/Src/stm32f4xx_hal_spi.c ****   hspi->pRxBuffPtr  = (uint8_t *)pData;
ARM GAS  C:\Users\16323\AppData\Local\Temp\ccbQ7VoP.s 			page 34


 921              		.loc 1 968 21 discriminator 2
 922 008a FB68     		ldr	r3, [r7, #12]
 923 008c BA68     		ldr	r2, [r7, #8]
 924 008e 9A63     		str	r2, [r3, #56]
 969:Drivers/STM32F4xx_HAL_Driver/Src/stm32f4xx_hal_spi.c ****   hspi->RxXferSize  = Size;
 925              		.loc 1 969 21 discriminator 2
 926 0090 FB68     		ldr	r3, [r7, #12]
 927 0092 FA88     		ldrh	r2, [r7, #6]	@ movhi
 928 0094 9A87     		strh	r2, [r3, #60]	@ movhi
 970:Drivers/STM32F4xx_HAL_Driver/Src/stm32f4xx_hal_spi.c ****   hspi->RxXferCount = Size;
 929              		.loc 1 970 21 discriminator 2
 930 0096 FB68     		ldr	r3, [r7, #12]
 931 0098 FA88     		ldrh	r2, [r7, #6]	@ movhi
 932 009a DA87     		strh	r2, [r3, #62]	@ movhi
 971:Drivers/STM32F4xx_HAL_Driver/Src/stm32f4xx_hal_spi.c **** 
 972:Drivers/STM32F4xx_HAL_Driver/Src/stm32f4xx_hal_spi.c ****   /*Init field not used in handle to zero */
 973:Drivers/STM32F4xx_HAL_Driver/Src/stm32f4xx_hal_spi.c ****   hspi->pTxBuffPtr  = (uint8_t *)NULL;
 933              		.loc 1 973 21 discriminator 2
 934 009c FB68     		ldr	r3, [r7, #12]
 935 009e 0022     		movs	r2, #0
 936 00a0 1A63     		str	r2, [r3, #48]
 974:Drivers/STM32F4xx_HAL_Driver/Src/stm32f4xx_hal_spi.c ****   hspi->TxXferSize  = 0U;
 937              		.loc 1 974 21 discriminator 2
 938 00a2 FB68     		ldr	r3, [r7, #12]
 939 00a4 0022     		movs	r2, #0
 940 00a6 9A86     		strh	r2, [r3, #52]	@ movhi
 975:Drivers/STM32F4xx_HAL_Driver/Src/stm32f4xx_hal_spi.c ****   hspi->TxXferCount = 0U;
 941              		.loc 1 975 21 discriminator 2
 942 00a8 FB68     		ldr	r3, [r7, #12]
 943 00aa 0022     		movs	r2, #0
 944 00ac DA86     		strh	r2, [r3, #54]	@ movhi
 976:Drivers/STM32F4xx_HAL_Driver/Src/stm32f4xx_hal_spi.c ****   hspi->RxISR       = NULL;
 945              		.loc 1 976 21 discriminator 2
 946 00ae FB68     		ldr	r3, [r7, #12]
 947 00b0 0022     		movs	r2, #0
 948 00b2 1A64     		str	r2, [r3, #64]
 977:Drivers/STM32F4xx_HAL_Driver/Src/stm32f4xx_hal_spi.c ****   hspi->TxISR       = NULL;
 949              		.loc 1 977 21 discriminator 2
 950 00b4 FB68     		ldr	r3, [r7, #12]
 951 00b6 0022     		movs	r2, #0
 952 00b8 5A64     		str	r2, [r3, #68]
 978:Drivers/STM32F4xx_HAL_Driver/Src/stm32f4xx_hal_spi.c **** 
 979:Drivers/STM32F4xx_HAL_Driver/Src/stm32f4xx_hal_spi.c **** #if (USE_SPI_CRC != 0U)
 980:Drivers/STM32F4xx_HAL_Driver/Src/stm32f4xx_hal_spi.c ****   /* Reset CRC Calculation */
 981:Drivers/STM32F4xx_HAL_Driver/Src/stm32f4xx_hal_spi.c ****   if (hspi->Init.CRCCalculation == SPI_CRCCALCULATION_ENABLE)
 982:Drivers/STM32F4xx_HAL_Driver/Src/stm32f4xx_hal_spi.c ****   {
 983:Drivers/STM32F4xx_HAL_Driver/Src/stm32f4xx_hal_spi.c ****     SPI_RESET_CRC(hspi);
 984:Drivers/STM32F4xx_HAL_Driver/Src/stm32f4xx_hal_spi.c ****     /* this is done to handle the CRCNEXT before the latest data */
 985:Drivers/STM32F4xx_HAL_Driver/Src/stm32f4xx_hal_spi.c ****     hspi->RxXferCount--;
 986:Drivers/STM32F4xx_HAL_Driver/Src/stm32f4xx_hal_spi.c ****   }
 987:Drivers/STM32F4xx_HAL_Driver/Src/stm32f4xx_hal_spi.c **** #endif /* USE_SPI_CRC */
 988:Drivers/STM32F4xx_HAL_Driver/Src/stm32f4xx_hal_spi.c **** 
 989:Drivers/STM32F4xx_HAL_Driver/Src/stm32f4xx_hal_spi.c ****   /* Configure communication direction: 1Line */
 990:Drivers/STM32F4xx_HAL_Driver/Src/stm32f4xx_hal_spi.c ****   if (hspi->Init.Direction == SPI_DIRECTION_1LINE)
 953              		.loc 1 990 17 discriminator 2
 954 00ba FB68     		ldr	r3, [r7, #12]
 955 00bc 9B68     		ldr	r3, [r3, #8]
ARM GAS  C:\Users\16323\AppData\Local\Temp\ccbQ7VoP.s 			page 35


 956              		.loc 1 990 6 discriminator 2
 957 00be B3F5004F 		cmp	r3, #32768
 958 00c2 0FD1     		bne	.L46
 991:Drivers/STM32F4xx_HAL_Driver/Src/stm32f4xx_hal_spi.c ****   {
 992:Drivers/STM32F4xx_HAL_Driver/Src/stm32f4xx_hal_spi.c ****     /* Disable SPI Peripheral before set 1Line direction (BIDIOE bit) */
 993:Drivers/STM32F4xx_HAL_Driver/Src/stm32f4xx_hal_spi.c ****     __HAL_SPI_DISABLE(hspi);
 959              		.loc 1 993 5
 960 00c4 FB68     		ldr	r3, [r7, #12]
 961 00c6 1B68     		ldr	r3, [r3]
 962 00c8 1A68     		ldr	r2, [r3]
 963 00ca FB68     		ldr	r3, [r7, #12]
 964 00cc 1B68     		ldr	r3, [r3]
 965 00ce 22F04002 		bic	r2, r2, #64
 966 00d2 1A60     		str	r2, [r3]
 994:Drivers/STM32F4xx_HAL_Driver/Src/stm32f4xx_hal_spi.c ****     SPI_1LINE_RX(hspi);
 967              		.loc 1 994 5
 968 00d4 FB68     		ldr	r3, [r7, #12]
 969 00d6 1B68     		ldr	r3, [r3]
 970 00d8 1A68     		ldr	r2, [r3]
 971 00da FB68     		ldr	r3, [r7, #12]
 972 00dc 1B68     		ldr	r3, [r3]
 973 00de 22F48042 		bic	r2, r2, #16384
 974 00e2 1A60     		str	r2, [r3]
 975              	.L46:
 995:Drivers/STM32F4xx_HAL_Driver/Src/stm32f4xx_hal_spi.c ****   }
 996:Drivers/STM32F4xx_HAL_Driver/Src/stm32f4xx_hal_spi.c **** 
 997:Drivers/STM32F4xx_HAL_Driver/Src/stm32f4xx_hal_spi.c ****   /* Check if the SPI is already enabled */
 998:Drivers/STM32F4xx_HAL_Driver/Src/stm32f4xx_hal_spi.c ****   if ((hspi->Instance->CR1 & SPI_CR1_SPE) != SPI_CR1_SPE)
 976              		.loc 1 998 12
 977 00e4 FB68     		ldr	r3, [r7, #12]
 978 00e6 1B68     		ldr	r3, [r3]
 979              		.loc 1 998 22
 980 00e8 1B68     		ldr	r3, [r3]
 981              		.loc 1 998 28
 982 00ea 03F04003 		and	r3, r3, #64
 983              		.loc 1 998 6
 984 00ee 402B     		cmp	r3, #64
 985 00f0 07D0     		beq	.L47
 999:Drivers/STM32F4xx_HAL_Driver/Src/stm32f4xx_hal_spi.c ****   {
1000:Drivers/STM32F4xx_HAL_Driver/Src/stm32f4xx_hal_spi.c ****     /* Enable SPI peripheral */
1001:Drivers/STM32F4xx_HAL_Driver/Src/stm32f4xx_hal_spi.c ****     __HAL_SPI_ENABLE(hspi);
 986              		.loc 1 1001 5
 987 00f2 FB68     		ldr	r3, [r7, #12]
 988 00f4 1B68     		ldr	r3, [r3]
 989 00f6 1A68     		ldr	r2, [r3]
 990 00f8 FB68     		ldr	r3, [r7, #12]
 991 00fa 1B68     		ldr	r3, [r3]
 992 00fc 42F04002 		orr	r2, r2, #64
 993 0100 1A60     		str	r2, [r3]
 994              	.L47:
1002:Drivers/STM32F4xx_HAL_Driver/Src/stm32f4xx_hal_spi.c ****   }
1003:Drivers/STM32F4xx_HAL_Driver/Src/stm32f4xx_hal_spi.c **** 
1004:Drivers/STM32F4xx_HAL_Driver/Src/stm32f4xx_hal_spi.c ****   /* Receive data in 8 Bit mode */
1005:Drivers/STM32F4xx_HAL_Driver/Src/stm32f4xx_hal_spi.c ****   if (hspi->Init.DataSize == SPI_DATASIZE_8BIT)
 995              		.loc 1 1005 17
 996 0102 FB68     		ldr	r3, [r7, #12]
 997 0104 DB68     		ldr	r3, [r3, #12]
ARM GAS  C:\Users\16323\AppData\Local\Temp\ccbQ7VoP.s 			page 36


 998              		.loc 1 1005 6
 999 0106 002B     		cmp	r3, #0
 1000 0108 70D1     		bne	.L55
1006:Drivers/STM32F4xx_HAL_Driver/Src/stm32f4xx_hal_spi.c ****   {
1007:Drivers/STM32F4xx_HAL_Driver/Src/stm32f4xx_hal_spi.c ****     /* Transfer loop */
1008:Drivers/STM32F4xx_HAL_Driver/Src/stm32f4xx_hal_spi.c ****     while (hspi->RxXferCount > 0U)
 1001              		.loc 1 1008 11
 1002 010a 35E0     		b	.L49
 1003              	.L53:
1009:Drivers/STM32F4xx_HAL_Driver/Src/stm32f4xx_hal_spi.c ****     {
1010:Drivers/STM32F4xx_HAL_Driver/Src/stm32f4xx_hal_spi.c ****       /* Check the RXNE flag */
1011:Drivers/STM32F4xx_HAL_Driver/Src/stm32f4xx_hal_spi.c ****       if (__HAL_SPI_GET_FLAG(hspi, SPI_FLAG_RXNE))
 1004              		.loc 1 1011 11
 1005 010c FB68     		ldr	r3, [r7, #12]
 1006 010e 1B68     		ldr	r3, [r3]
 1007 0110 9B68     		ldr	r3, [r3, #8]
 1008 0112 03F00103 		and	r3, r3, #1
 1009              		.loc 1 1011 10
 1010 0116 012B     		cmp	r3, #1
 1011 0118 15D1     		bne	.L50
1012:Drivers/STM32F4xx_HAL_Driver/Src/stm32f4xx_hal_spi.c ****       {
1013:Drivers/STM32F4xx_HAL_Driver/Src/stm32f4xx_hal_spi.c ****         /* read the received data */
1014:Drivers/STM32F4xx_HAL_Driver/Src/stm32f4xx_hal_spi.c ****         (* (uint8_t *)hspi->pRxBuffPtr) = *(__IO uint8_t *)&hspi->Instance->DR;
 1012              		.loc 1 1014 65
 1013 011a FB68     		ldr	r3, [r7, #12]
 1014 011c 1B68     		ldr	r3, [r3]
 1015              		.loc 1 1014 60
 1016 011e 03F10C02 		add	r2, r3, #12
 1017              		.loc 1 1014 27
 1018 0122 FB68     		ldr	r3, [r7, #12]
 1019 0124 9B6B     		ldr	r3, [r3, #56]
 1020              		.loc 1 1014 43
 1021 0126 1278     		ldrb	r2, [r2]
 1022 0128 D2B2     		uxtb	r2, r2
 1023              		.loc 1 1014 41
 1024 012a 1A70     		strb	r2, [r3]
1015:Drivers/STM32F4xx_HAL_Driver/Src/stm32f4xx_hal_spi.c ****         hspi->pRxBuffPtr += sizeof(uint8_t);
 1025              		.loc 1 1015 26
 1026 012c FB68     		ldr	r3, [r7, #12]
 1027 012e 9B6B     		ldr	r3, [r3, #56]
 1028 0130 5A1C     		adds	r2, r3, #1
 1029 0132 FB68     		ldr	r3, [r7, #12]
 1030 0134 9A63     		str	r2, [r3, #56]
1016:Drivers/STM32F4xx_HAL_Driver/Src/stm32f4xx_hal_spi.c ****         hspi->RxXferCount--;
 1031              		.loc 1 1016 13
 1032 0136 FB68     		ldr	r3, [r7, #12]
 1033 0138 DB8F     		ldrh	r3, [r3, #62]	@ movhi
 1034 013a 9BB2     		uxth	r3, r3
 1035              		.loc 1 1016 26
 1036 013c 013B     		subs	r3, r3, #1
 1037 013e 9AB2     		uxth	r2, r3
 1038 0140 FB68     		ldr	r3, [r7, #12]
 1039 0142 DA87     		strh	r2, [r3, #62]	@ movhi
 1040 0144 18E0     		b	.L49
 1041              	.L50:
1017:Drivers/STM32F4xx_HAL_Driver/Src/stm32f4xx_hal_spi.c ****       }
1018:Drivers/STM32F4xx_HAL_Driver/Src/stm32f4xx_hal_spi.c ****       else
ARM GAS  C:\Users\16323\AppData\Local\Temp\ccbQ7VoP.s 			page 37


1019:Drivers/STM32F4xx_HAL_Driver/Src/stm32f4xx_hal_spi.c ****       {
1020:Drivers/STM32F4xx_HAL_Driver/Src/stm32f4xx_hal_spi.c ****         /* Timeout management */
1021:Drivers/STM32F4xx_HAL_Driver/Src/stm32f4xx_hal_spi.c ****         if ((((HAL_GetTick() - tickstart) >=  Timeout) && (Timeout != HAL_MAX_DELAY)) || (Timeout =
 1042              		.loc 1 1021 16
 1043 0146 FFF7FEFF 		bl	HAL_GetTick
 1044 014a 0246     		mov	r2, r0
 1045              		.loc 1 1021 30
 1046 014c 7B69     		ldr	r3, [r7, #20]
 1047 014e D31A     		subs	r3, r2, r3
 1048              		.loc 1 1021 12
 1049 0150 3A68     		ldr	r2, [r7]
 1050 0152 9A42     		cmp	r2, r3
 1051 0154 03D8     		bhi	.L51
 1052              		.loc 1 1021 56 discriminator 1
 1053 0156 3B68     		ldr	r3, [r7]
 1054 0158 B3F1FF3F 		cmp	r3, #-1
 1055 015c 02D1     		bne	.L52
 1056              	.L51:
 1057              		.loc 1 1021 87 discriminator 3
 1058 015e 3B68     		ldr	r3, [r7]
 1059 0160 002B     		cmp	r3, #0
 1060 0162 09D1     		bne	.L49
 1061              	.L52:
1022:Drivers/STM32F4xx_HAL_Driver/Src/stm32f4xx_hal_spi.c ****         {
1023:Drivers/STM32F4xx_HAL_Driver/Src/stm32f4xx_hal_spi.c ****           hspi->State = HAL_SPI_STATE_READY;
 1062              		.loc 1 1023 23
 1063 0164 FB68     		ldr	r3, [r7, #12]
 1064 0166 0122     		movs	r2, #1
 1065 0168 83F85120 		strb	r2, [r3, #81]
1024:Drivers/STM32F4xx_HAL_Driver/Src/stm32f4xx_hal_spi.c ****           __HAL_UNLOCK(hspi);
 1066              		.loc 1 1024 11
 1067 016c FB68     		ldr	r3, [r7, #12]
 1068 016e 0022     		movs	r2, #0
 1069 0170 83F85020 		strb	r2, [r3, #80]
1025:Drivers/STM32F4xx_HAL_Driver/Src/stm32f4xx_hal_spi.c ****           return HAL_TIMEOUT;
 1070              		.loc 1 1025 18
 1071 0174 0323     		movs	r3, #3
 1072 0176 58E0     		b	.L41
 1073              	.L49:
1008:Drivers/STM32F4xx_HAL_Driver/Src/stm32f4xx_hal_spi.c ****     {
 1074              		.loc 1 1008 16
 1075 0178 FB68     		ldr	r3, [r7, #12]
 1076 017a DB8F     		ldrh	r3, [r3, #62]	@ movhi
 1077 017c 9BB2     		uxth	r3, r3
1008:Drivers/STM32F4xx_HAL_Driver/Src/stm32f4xx_hal_spi.c ****     {
 1078              		.loc 1 1008 11
 1079 017e 002B     		cmp	r3, #0
 1080 0180 C4D1     		bne	.L53
 1081 0182 38E0     		b	.L54
 1082              	.L59:
1026:Drivers/STM32F4xx_HAL_Driver/Src/stm32f4xx_hal_spi.c ****         }
1027:Drivers/STM32F4xx_HAL_Driver/Src/stm32f4xx_hal_spi.c ****       }
1028:Drivers/STM32F4xx_HAL_Driver/Src/stm32f4xx_hal_spi.c ****     }
1029:Drivers/STM32F4xx_HAL_Driver/Src/stm32f4xx_hal_spi.c ****   }
1030:Drivers/STM32F4xx_HAL_Driver/Src/stm32f4xx_hal_spi.c ****   else
1031:Drivers/STM32F4xx_HAL_Driver/Src/stm32f4xx_hal_spi.c ****   {
1032:Drivers/STM32F4xx_HAL_Driver/Src/stm32f4xx_hal_spi.c ****     /* Transfer loop */
ARM GAS  C:\Users\16323\AppData\Local\Temp\ccbQ7VoP.s 			page 38


1033:Drivers/STM32F4xx_HAL_Driver/Src/stm32f4xx_hal_spi.c ****     while (hspi->RxXferCount > 0U)
1034:Drivers/STM32F4xx_HAL_Driver/Src/stm32f4xx_hal_spi.c ****     {
1035:Drivers/STM32F4xx_HAL_Driver/Src/stm32f4xx_hal_spi.c ****       /* Check the RXNE flag */
1036:Drivers/STM32F4xx_HAL_Driver/Src/stm32f4xx_hal_spi.c ****       if (__HAL_SPI_GET_FLAG(hspi, SPI_FLAG_RXNE))
 1083              		.loc 1 1036 11
 1084 0184 FB68     		ldr	r3, [r7, #12]
 1085 0186 1B68     		ldr	r3, [r3]
 1086 0188 9B68     		ldr	r3, [r3, #8]
 1087 018a 03F00103 		and	r3, r3, #1
 1088              		.loc 1 1036 10
 1089 018e 012B     		cmp	r3, #1
 1090 0190 13D1     		bne	.L56
1037:Drivers/STM32F4xx_HAL_Driver/Src/stm32f4xx_hal_spi.c ****       {
1038:Drivers/STM32F4xx_HAL_Driver/Src/stm32f4xx_hal_spi.c ****         *((uint16_t *)hspi->pRxBuffPtr) = (uint16_t)hspi->Instance->DR;
 1091              		.loc 1 1038 57
 1092 0192 FB68     		ldr	r3, [r7, #12]
 1093 0194 1B68     		ldr	r3, [r3]
 1094              		.loc 1 1038 67
 1095 0196 DA68     		ldr	r2, [r3, #12]
 1096              		.loc 1 1038 27
 1097 0198 FB68     		ldr	r3, [r7, #12]
 1098 019a 9B6B     		ldr	r3, [r3, #56]
 1099              		.loc 1 1038 43
 1100 019c 92B2     		uxth	r2, r2
 1101              		.loc 1 1038 41
 1102 019e 1A80     		strh	r2, [r3]	@ movhi
1039:Drivers/STM32F4xx_HAL_Driver/Src/stm32f4xx_hal_spi.c ****         hspi->pRxBuffPtr += sizeof(uint16_t);
 1103              		.loc 1 1039 26
 1104 01a0 FB68     		ldr	r3, [r7, #12]
 1105 01a2 9B6B     		ldr	r3, [r3, #56]
 1106 01a4 9A1C     		adds	r2, r3, #2
 1107 01a6 FB68     		ldr	r3, [r7, #12]
 1108 01a8 9A63     		str	r2, [r3, #56]
1040:Drivers/STM32F4xx_HAL_Driver/Src/stm32f4xx_hal_spi.c ****         hspi->RxXferCount--;
 1109              		.loc 1 1040 13
 1110 01aa FB68     		ldr	r3, [r7, #12]
 1111 01ac DB8F     		ldrh	r3, [r3, #62]	@ movhi
 1112 01ae 9BB2     		uxth	r3, r3
 1113              		.loc 1 1040 26
 1114 01b0 013B     		subs	r3, r3, #1
 1115 01b2 9AB2     		uxth	r2, r3
 1116 01b4 FB68     		ldr	r3, [r7, #12]
 1117 01b6 DA87     		strh	r2, [r3, #62]	@ movhi
 1118 01b8 18E0     		b	.L55
 1119              	.L56:
1041:Drivers/STM32F4xx_HAL_Driver/Src/stm32f4xx_hal_spi.c ****       }
1042:Drivers/STM32F4xx_HAL_Driver/Src/stm32f4xx_hal_spi.c ****       else
1043:Drivers/STM32F4xx_HAL_Driver/Src/stm32f4xx_hal_spi.c ****       {
1044:Drivers/STM32F4xx_HAL_Driver/Src/stm32f4xx_hal_spi.c ****         /* Timeout management */
1045:Drivers/STM32F4xx_HAL_Driver/Src/stm32f4xx_hal_spi.c ****         if ((((HAL_GetTick() - tickstart) >=  Timeout) && (Timeout != HAL_MAX_DELAY)) || (Timeout =
 1120              		.loc 1 1045 16
 1121 01ba FFF7FEFF 		bl	HAL_GetTick
 1122 01be 0246     		mov	r2, r0
 1123              		.loc 1 1045 30
 1124 01c0 7B69     		ldr	r3, [r7, #20]
 1125 01c2 D31A     		subs	r3, r2, r3
 1126              		.loc 1 1045 12
ARM GAS  C:\Users\16323\AppData\Local\Temp\ccbQ7VoP.s 			page 39


 1127 01c4 3A68     		ldr	r2, [r7]
 1128 01c6 9A42     		cmp	r2, r3
 1129 01c8 03D8     		bhi	.L57
 1130              		.loc 1 1045 56 discriminator 1
 1131 01ca 3B68     		ldr	r3, [r7]
 1132 01cc B3F1FF3F 		cmp	r3, #-1
 1133 01d0 02D1     		bne	.L58
 1134              	.L57:
 1135              		.loc 1 1045 87 discriminator 3
 1136 01d2 3B68     		ldr	r3, [r7]
 1137 01d4 002B     		cmp	r3, #0
 1138 01d6 09D1     		bne	.L55
 1139              	.L58:
1046:Drivers/STM32F4xx_HAL_Driver/Src/stm32f4xx_hal_spi.c ****         {
1047:Drivers/STM32F4xx_HAL_Driver/Src/stm32f4xx_hal_spi.c ****           hspi->State = HAL_SPI_STATE_READY;
 1140              		.loc 1 1047 23
 1141 01d8 FB68     		ldr	r3, [r7, #12]
 1142 01da 0122     		movs	r2, #1
 1143 01dc 83F85120 		strb	r2, [r3, #81]
1048:Drivers/STM32F4xx_HAL_Driver/Src/stm32f4xx_hal_spi.c ****           __HAL_UNLOCK(hspi);
 1144              		.loc 1 1048 11
 1145 01e0 FB68     		ldr	r3, [r7, #12]
 1146 01e2 0022     		movs	r2, #0
 1147 01e4 83F85020 		strb	r2, [r3, #80]
1049:Drivers/STM32F4xx_HAL_Driver/Src/stm32f4xx_hal_spi.c ****           return HAL_TIMEOUT;
 1148              		.loc 1 1049 18
 1149 01e8 0323     		movs	r3, #3
 1150 01ea 1EE0     		b	.L41
 1151              	.L55:
1033:Drivers/STM32F4xx_HAL_Driver/Src/stm32f4xx_hal_spi.c ****     {
 1152              		.loc 1 1033 16
 1153 01ec FB68     		ldr	r3, [r7, #12]
 1154 01ee DB8F     		ldrh	r3, [r3, #62]	@ movhi
 1155 01f0 9BB2     		uxth	r3, r3
1033:Drivers/STM32F4xx_HAL_Driver/Src/stm32f4xx_hal_spi.c ****     {
 1156              		.loc 1 1033 11
 1157 01f2 002B     		cmp	r3, #0
 1158 01f4 C6D1     		bne	.L59
 1159              	.L54:
1050:Drivers/STM32F4xx_HAL_Driver/Src/stm32f4xx_hal_spi.c ****         }
1051:Drivers/STM32F4xx_HAL_Driver/Src/stm32f4xx_hal_spi.c ****       }
1052:Drivers/STM32F4xx_HAL_Driver/Src/stm32f4xx_hal_spi.c ****     }
1053:Drivers/STM32F4xx_HAL_Driver/Src/stm32f4xx_hal_spi.c ****   }
1054:Drivers/STM32F4xx_HAL_Driver/Src/stm32f4xx_hal_spi.c **** 
1055:Drivers/STM32F4xx_HAL_Driver/Src/stm32f4xx_hal_spi.c **** #if (USE_SPI_CRC != 0U)
1056:Drivers/STM32F4xx_HAL_Driver/Src/stm32f4xx_hal_spi.c ****   /* Handle the CRC Transmission */
1057:Drivers/STM32F4xx_HAL_Driver/Src/stm32f4xx_hal_spi.c ****   if (hspi->Init.CRCCalculation == SPI_CRCCALCULATION_ENABLE)
1058:Drivers/STM32F4xx_HAL_Driver/Src/stm32f4xx_hal_spi.c ****   {
1059:Drivers/STM32F4xx_HAL_Driver/Src/stm32f4xx_hal_spi.c ****     /* freeze the CRC before the latest data */
1060:Drivers/STM32F4xx_HAL_Driver/Src/stm32f4xx_hal_spi.c ****     SET_BIT(hspi->Instance->CR1, SPI_CR1_CRCNEXT);
1061:Drivers/STM32F4xx_HAL_Driver/Src/stm32f4xx_hal_spi.c **** 
1062:Drivers/STM32F4xx_HAL_Driver/Src/stm32f4xx_hal_spi.c ****     /* Read the latest data */
1063:Drivers/STM32F4xx_HAL_Driver/Src/stm32f4xx_hal_spi.c ****     if (SPI_WaitFlagStateUntilTimeout(hspi, SPI_FLAG_RXNE, SET, Timeout, tickstart) != HAL_OK)
1064:Drivers/STM32F4xx_HAL_Driver/Src/stm32f4xx_hal_spi.c ****     {
1065:Drivers/STM32F4xx_HAL_Driver/Src/stm32f4xx_hal_spi.c ****       /* the latest data has not been received */
1066:Drivers/STM32F4xx_HAL_Driver/Src/stm32f4xx_hal_spi.c ****       __HAL_UNLOCK(hspi);
1067:Drivers/STM32F4xx_HAL_Driver/Src/stm32f4xx_hal_spi.c ****       return HAL_TIMEOUT;
ARM GAS  C:\Users\16323\AppData\Local\Temp\ccbQ7VoP.s 			page 40


1068:Drivers/STM32F4xx_HAL_Driver/Src/stm32f4xx_hal_spi.c ****     }
1069:Drivers/STM32F4xx_HAL_Driver/Src/stm32f4xx_hal_spi.c **** 
1070:Drivers/STM32F4xx_HAL_Driver/Src/stm32f4xx_hal_spi.c ****     /* Receive last data in 16 Bit mode */
1071:Drivers/STM32F4xx_HAL_Driver/Src/stm32f4xx_hal_spi.c ****     if (hspi->Init.DataSize == SPI_DATASIZE_16BIT)
1072:Drivers/STM32F4xx_HAL_Driver/Src/stm32f4xx_hal_spi.c ****     {
1073:Drivers/STM32F4xx_HAL_Driver/Src/stm32f4xx_hal_spi.c ****       *((uint16_t *)hspi->pRxBuffPtr) = (uint16_t)hspi->Instance->DR;
1074:Drivers/STM32F4xx_HAL_Driver/Src/stm32f4xx_hal_spi.c ****     }
1075:Drivers/STM32F4xx_HAL_Driver/Src/stm32f4xx_hal_spi.c ****     /* Receive last data in 8 Bit mode */
1076:Drivers/STM32F4xx_HAL_Driver/Src/stm32f4xx_hal_spi.c ****     else
1077:Drivers/STM32F4xx_HAL_Driver/Src/stm32f4xx_hal_spi.c ****     {
1078:Drivers/STM32F4xx_HAL_Driver/Src/stm32f4xx_hal_spi.c ****       (*(uint8_t *)hspi->pRxBuffPtr) = *(__IO uint8_t *)&hspi->Instance->DR;
1079:Drivers/STM32F4xx_HAL_Driver/Src/stm32f4xx_hal_spi.c ****     }
1080:Drivers/STM32F4xx_HAL_Driver/Src/stm32f4xx_hal_spi.c **** 
1081:Drivers/STM32F4xx_HAL_Driver/Src/stm32f4xx_hal_spi.c ****     /* Wait the CRC data */
1082:Drivers/STM32F4xx_HAL_Driver/Src/stm32f4xx_hal_spi.c ****     if (SPI_WaitFlagStateUntilTimeout(hspi, SPI_FLAG_RXNE, SET, Timeout, tickstart) != HAL_OK)
1083:Drivers/STM32F4xx_HAL_Driver/Src/stm32f4xx_hal_spi.c ****     {
1084:Drivers/STM32F4xx_HAL_Driver/Src/stm32f4xx_hal_spi.c ****       SET_BIT(hspi->ErrorCode, HAL_SPI_ERROR_CRC);
1085:Drivers/STM32F4xx_HAL_Driver/Src/stm32f4xx_hal_spi.c ****       hspi->State = HAL_SPI_STATE_READY;
1086:Drivers/STM32F4xx_HAL_Driver/Src/stm32f4xx_hal_spi.c ****       __HAL_UNLOCK(hspi);
1087:Drivers/STM32F4xx_HAL_Driver/Src/stm32f4xx_hal_spi.c ****       return HAL_TIMEOUT;
1088:Drivers/STM32F4xx_HAL_Driver/Src/stm32f4xx_hal_spi.c ****     }
1089:Drivers/STM32F4xx_HAL_Driver/Src/stm32f4xx_hal_spi.c **** 
1090:Drivers/STM32F4xx_HAL_Driver/Src/stm32f4xx_hal_spi.c ****     /* Read CRC to Flush DR and RXNE flag */
1091:Drivers/STM32F4xx_HAL_Driver/Src/stm32f4xx_hal_spi.c ****     tmpreg = READ_REG(hspi->Instance->DR);
1092:Drivers/STM32F4xx_HAL_Driver/Src/stm32f4xx_hal_spi.c ****     /* To avoid GCC warning */
1093:Drivers/STM32F4xx_HAL_Driver/Src/stm32f4xx_hal_spi.c ****     UNUSED(tmpreg);
1094:Drivers/STM32F4xx_HAL_Driver/Src/stm32f4xx_hal_spi.c ****   }
1095:Drivers/STM32F4xx_HAL_Driver/Src/stm32f4xx_hal_spi.c **** #endif /* USE_SPI_CRC */
1096:Drivers/STM32F4xx_HAL_Driver/Src/stm32f4xx_hal_spi.c **** 
1097:Drivers/STM32F4xx_HAL_Driver/Src/stm32f4xx_hal_spi.c ****   /* Check the end of the transaction */
1098:Drivers/STM32F4xx_HAL_Driver/Src/stm32f4xx_hal_spi.c ****   if (SPI_EndRxTransaction(hspi, Timeout, tickstart) != HAL_OK)
 1160              		.loc 1 1098 7
 1161 01f6 7A69     		ldr	r2, [r7, #20]
 1162 01f8 3968     		ldr	r1, [r7]
 1163 01fa F868     		ldr	r0, [r7, #12]
 1164 01fc FFF7FEFF 		bl	SPI_EndRxTransaction
 1165 0200 0346     		mov	r3, r0
 1166              		.loc 1 1098 6
 1167 0202 002B     		cmp	r3, #0
 1168 0204 02D0     		beq	.L60
1099:Drivers/STM32F4xx_HAL_Driver/Src/stm32f4xx_hal_spi.c ****   {
1100:Drivers/STM32F4xx_HAL_Driver/Src/stm32f4xx_hal_spi.c ****     hspi->ErrorCode = HAL_SPI_ERROR_FLAG;
 1169              		.loc 1 1100 21
 1170 0206 FB68     		ldr	r3, [r7, #12]
 1171 0208 2022     		movs	r2, #32
 1172 020a 5A65     		str	r2, [r3, #84]
 1173              	.L60:
1101:Drivers/STM32F4xx_HAL_Driver/Src/stm32f4xx_hal_spi.c ****   }
1102:Drivers/STM32F4xx_HAL_Driver/Src/stm32f4xx_hal_spi.c **** 
1103:Drivers/STM32F4xx_HAL_Driver/Src/stm32f4xx_hal_spi.c **** #if (USE_SPI_CRC != 0U)
1104:Drivers/STM32F4xx_HAL_Driver/Src/stm32f4xx_hal_spi.c ****   /* Check if CRC error occurred */
1105:Drivers/STM32F4xx_HAL_Driver/Src/stm32f4xx_hal_spi.c ****   if (__HAL_SPI_GET_FLAG(hspi, SPI_FLAG_CRCERR))
1106:Drivers/STM32F4xx_HAL_Driver/Src/stm32f4xx_hal_spi.c ****   {
1107:Drivers/STM32F4xx_HAL_Driver/Src/stm32f4xx_hal_spi.c ****     SET_BIT(hspi->ErrorCode, HAL_SPI_ERROR_CRC);
1108:Drivers/STM32F4xx_HAL_Driver/Src/stm32f4xx_hal_spi.c ****     __HAL_SPI_CLEAR_CRCERRFLAG(hspi);
1109:Drivers/STM32F4xx_HAL_Driver/Src/stm32f4xx_hal_spi.c ****   }
1110:Drivers/STM32F4xx_HAL_Driver/Src/stm32f4xx_hal_spi.c **** #endif /* USE_SPI_CRC */
ARM GAS  C:\Users\16323\AppData\Local\Temp\ccbQ7VoP.s 			page 41


1111:Drivers/STM32F4xx_HAL_Driver/Src/stm32f4xx_hal_spi.c **** 
1112:Drivers/STM32F4xx_HAL_Driver/Src/stm32f4xx_hal_spi.c ****   hspi->State = HAL_SPI_STATE_READY;
 1174              		.loc 1 1112 15
 1175 020c FB68     		ldr	r3, [r7, #12]
 1176 020e 0122     		movs	r2, #1
 1177 0210 83F85120 		strb	r2, [r3, #81]
1113:Drivers/STM32F4xx_HAL_Driver/Src/stm32f4xx_hal_spi.c ****   /* Unlock the process */
1114:Drivers/STM32F4xx_HAL_Driver/Src/stm32f4xx_hal_spi.c ****   __HAL_UNLOCK(hspi);
 1178              		.loc 1 1114 3
 1179 0214 FB68     		ldr	r3, [r7, #12]
 1180 0216 0022     		movs	r2, #0
 1181 0218 83F85020 		strb	r2, [r3, #80]
1115:Drivers/STM32F4xx_HAL_Driver/Src/stm32f4xx_hal_spi.c ****   if (hspi->ErrorCode != HAL_SPI_ERROR_NONE)
 1182              		.loc 1 1115 11
 1183 021c FB68     		ldr	r3, [r7, #12]
 1184 021e 5B6D     		ldr	r3, [r3, #84]
 1185              		.loc 1 1115 6
 1186 0220 002B     		cmp	r3, #0
 1187 0222 01D0     		beq	.L61
1116:Drivers/STM32F4xx_HAL_Driver/Src/stm32f4xx_hal_spi.c ****   {
1117:Drivers/STM32F4xx_HAL_Driver/Src/stm32f4xx_hal_spi.c ****     return HAL_ERROR;
 1188              		.loc 1 1117 12
 1189 0224 0123     		movs	r3, #1
 1190 0226 00E0     		b	.L41
 1191              	.L61:
1118:Drivers/STM32F4xx_HAL_Driver/Src/stm32f4xx_hal_spi.c ****   }
1119:Drivers/STM32F4xx_HAL_Driver/Src/stm32f4xx_hal_spi.c ****   else
1120:Drivers/STM32F4xx_HAL_Driver/Src/stm32f4xx_hal_spi.c ****   {
1121:Drivers/STM32F4xx_HAL_Driver/Src/stm32f4xx_hal_spi.c ****     return HAL_OK;
 1192              		.loc 1 1121 12
 1193 0228 0023     		movs	r3, #0
 1194              	.L41:
1122:Drivers/STM32F4xx_HAL_Driver/Src/stm32f4xx_hal_spi.c ****   }
1123:Drivers/STM32F4xx_HAL_Driver/Src/stm32f4xx_hal_spi.c **** }
 1195              		.loc 1 1123 1
 1196 022a 1846     		mov	r0, r3
 1197 022c 1837     		adds	r7, r7, #24
 1198              	.LCFI30:
 1199              		.cfi_def_cfa_offset 8
 1200 022e BD46     		mov	sp, r7
 1201              	.LCFI31:
 1202              		.cfi_def_cfa_register 13
 1203              		@ sp needed
 1204 0230 80BD     		pop	{r7, pc}
 1205              		.cfi_endproc
 1206              	.LFE244:
 1208              		.section	.text.HAL_SPI_TransmitReceive,"ax",%progbits
 1209              		.align	1
 1210              		.global	HAL_SPI_TransmitReceive
 1211              		.syntax unified
 1212              		.thumb
 1213              		.thumb_func
 1215              	HAL_SPI_TransmitReceive:
 1216              	.LFB245:
1124:Drivers/STM32F4xx_HAL_Driver/Src/stm32f4xx_hal_spi.c **** 
1125:Drivers/STM32F4xx_HAL_Driver/Src/stm32f4xx_hal_spi.c **** /**
1126:Drivers/STM32F4xx_HAL_Driver/Src/stm32f4xx_hal_spi.c ****   * @brief  Transmit and Receive an amount of data in blocking mode.
ARM GAS  C:\Users\16323\AppData\Local\Temp\ccbQ7VoP.s 			page 42


1127:Drivers/STM32F4xx_HAL_Driver/Src/stm32f4xx_hal_spi.c ****   * @param  hspi pointer to a SPI_HandleTypeDef structure that contains
1128:Drivers/STM32F4xx_HAL_Driver/Src/stm32f4xx_hal_spi.c ****   *               the configuration information for SPI module.
1129:Drivers/STM32F4xx_HAL_Driver/Src/stm32f4xx_hal_spi.c ****   * @param  pTxData pointer to transmission data buffer
1130:Drivers/STM32F4xx_HAL_Driver/Src/stm32f4xx_hal_spi.c ****   * @param  pRxData pointer to reception data buffer
1131:Drivers/STM32F4xx_HAL_Driver/Src/stm32f4xx_hal_spi.c ****   * @param  Size amount of data to be sent and received
1132:Drivers/STM32F4xx_HAL_Driver/Src/stm32f4xx_hal_spi.c ****   * @param  Timeout Timeout duration
1133:Drivers/STM32F4xx_HAL_Driver/Src/stm32f4xx_hal_spi.c ****   * @retval HAL status
1134:Drivers/STM32F4xx_HAL_Driver/Src/stm32f4xx_hal_spi.c ****   */
1135:Drivers/STM32F4xx_HAL_Driver/Src/stm32f4xx_hal_spi.c **** HAL_StatusTypeDef HAL_SPI_TransmitReceive(SPI_HandleTypeDef *hspi, const uint8_t *pTxData, uint8_t 
1136:Drivers/STM32F4xx_HAL_Driver/Src/stm32f4xx_hal_spi.c ****                                           uint16_t Size, uint32_t Timeout)
1137:Drivers/STM32F4xx_HAL_Driver/Src/stm32f4xx_hal_spi.c **** {
 1217              		.loc 1 1137 1
 1218              		.cfi_startproc
 1219              		@ args = 4, pretend = 0, frame = 40
 1220              		@ frame_needed = 1, uses_anonymous_args = 0
 1221 0000 80B5     		push	{r7, lr}
 1222              	.LCFI32:
 1223              		.cfi_def_cfa_offset 8
 1224              		.cfi_offset 7, -8
 1225              		.cfi_offset 14, -4
 1226 0002 8AB0     		sub	sp, sp, #40
 1227              	.LCFI33:
 1228              		.cfi_def_cfa_offset 48
 1229 0004 00AF     		add	r7, sp, #0
 1230              	.LCFI34:
 1231              		.cfi_def_cfa_register 7
 1232 0006 F860     		str	r0, [r7, #12]
 1233 0008 B960     		str	r1, [r7, #8]
 1234 000a 7A60     		str	r2, [r7, #4]
 1235 000c 7B80     		strh	r3, [r7, #2]	@ movhi
1138:Drivers/STM32F4xx_HAL_Driver/Src/stm32f4xx_hal_spi.c ****   uint16_t             initial_TxXferCount;
1139:Drivers/STM32F4xx_HAL_Driver/Src/stm32f4xx_hal_spi.c ****   uint32_t             tmp_mode;
1140:Drivers/STM32F4xx_HAL_Driver/Src/stm32f4xx_hal_spi.c ****   HAL_SPI_StateTypeDef tmp_state;
1141:Drivers/STM32F4xx_HAL_Driver/Src/stm32f4xx_hal_spi.c ****   uint32_t             tickstart;
1142:Drivers/STM32F4xx_HAL_Driver/Src/stm32f4xx_hal_spi.c **** #if (USE_SPI_CRC != 0U)
1143:Drivers/STM32F4xx_HAL_Driver/Src/stm32f4xx_hal_spi.c ****   __IO uint32_t tmpreg = 0U;
1144:Drivers/STM32F4xx_HAL_Driver/Src/stm32f4xx_hal_spi.c **** #endif /* USE_SPI_CRC */
1145:Drivers/STM32F4xx_HAL_Driver/Src/stm32f4xx_hal_spi.c **** 
1146:Drivers/STM32F4xx_HAL_Driver/Src/stm32f4xx_hal_spi.c ****   /* Variable used to alternate Rx and Tx during transfer */
1147:Drivers/STM32F4xx_HAL_Driver/Src/stm32f4xx_hal_spi.c ****   uint32_t             txallowed = 1U;
 1236              		.loc 1 1147 24
 1237 000e 0123     		movs	r3, #1
 1238 0010 7B62     		str	r3, [r7, #36]
1148:Drivers/STM32F4xx_HAL_Driver/Src/stm32f4xx_hal_spi.c **** 
1149:Drivers/STM32F4xx_HAL_Driver/Src/stm32f4xx_hal_spi.c ****   /* Check Direction parameter */
1150:Drivers/STM32F4xx_HAL_Driver/Src/stm32f4xx_hal_spi.c ****   assert_param(IS_SPI_DIRECTION_2LINES(hspi->Init.Direction));
1151:Drivers/STM32F4xx_HAL_Driver/Src/stm32f4xx_hal_spi.c **** 
1152:Drivers/STM32F4xx_HAL_Driver/Src/stm32f4xx_hal_spi.c ****   /* Init tickstart for timeout management*/
1153:Drivers/STM32F4xx_HAL_Driver/Src/stm32f4xx_hal_spi.c ****   tickstart = HAL_GetTick();
 1239              		.loc 1 1153 15
 1240 0012 FFF7FEFF 		bl	HAL_GetTick
 1241 0016 3862     		str	r0, [r7, #32]
1154:Drivers/STM32F4xx_HAL_Driver/Src/stm32f4xx_hal_spi.c **** 
1155:Drivers/STM32F4xx_HAL_Driver/Src/stm32f4xx_hal_spi.c ****   /* Init temporary variables */
1156:Drivers/STM32F4xx_HAL_Driver/Src/stm32f4xx_hal_spi.c ****   tmp_state           = hspi->State;
 1242              		.loc 1 1156 23
 1243 0018 FB68     		ldr	r3, [r7, #12]
ARM GAS  C:\Users\16323\AppData\Local\Temp\ccbQ7VoP.s 			page 43


 1244 001a 93F85130 		ldrb	r3, [r3, #81]
 1245 001e FB77     		strb	r3, [r7, #31]
1157:Drivers/STM32F4xx_HAL_Driver/Src/stm32f4xx_hal_spi.c ****   tmp_mode            = hspi->Init.Mode;
 1246              		.loc 1 1157 23
 1247 0020 FB68     		ldr	r3, [r7, #12]
 1248 0022 5B68     		ldr	r3, [r3, #4]
 1249 0024 BB61     		str	r3, [r7, #24]
1158:Drivers/STM32F4xx_HAL_Driver/Src/stm32f4xx_hal_spi.c ****   initial_TxXferCount = Size;
 1250              		.loc 1 1158 23
 1251 0026 7B88     		ldrh	r3, [r7, #2]	@ movhi
 1252 0028 FB82     		strh	r3, [r7, #22]	@ movhi
1159:Drivers/STM32F4xx_HAL_Driver/Src/stm32f4xx_hal_spi.c **** 
1160:Drivers/STM32F4xx_HAL_Driver/Src/stm32f4xx_hal_spi.c ****   if (!((tmp_state == HAL_SPI_STATE_READY) || \
 1253              		.loc 1 1160 6
 1254 002a FB7F     		ldrb	r3, [r7, #31]	@ zero_extendqisi2
 1255 002c 012B     		cmp	r3, #1
 1256 002e 0CD0     		beq	.L63
 1257              		.loc 1 1160 7 discriminator 1
 1258 0030 BB69     		ldr	r3, [r7, #24]
 1259 0032 B3F5827F 		cmp	r3, #260
 1260 0036 06D1     		bne	.L64
1161:Drivers/STM32F4xx_HAL_Driver/Src/stm32f4xx_hal_spi.c ****         ((tmp_mode == SPI_MODE_MASTER) && (hspi->Init.Direction == SPI_DIRECTION_2LINES) && (tmp_st
 1261              		.loc 1 1161 54
 1262 0038 FB68     		ldr	r3, [r7, #12]
 1263 003a 9B68     		ldr	r3, [r3, #8]
 1264              		.loc 1 1161 40
 1265 003c 002B     		cmp	r3, #0
 1266 003e 02D1     		bne	.L64
 1267              		.loc 1 1161 90 discriminator 1
 1268 0040 FB7F     		ldrb	r3, [r7, #31]	@ zero_extendqisi2
 1269 0042 042B     		cmp	r3, #4
 1270 0044 01D0     		beq	.L63
 1271              	.L64:
1162:Drivers/STM32F4xx_HAL_Driver/Src/stm32f4xx_hal_spi.c ****   {
1163:Drivers/STM32F4xx_HAL_Driver/Src/stm32f4xx_hal_spi.c ****     return HAL_BUSY;
 1272              		.loc 1 1163 12
 1273 0046 0223     		movs	r3, #2
 1274 0048 7FE1     		b	.L65
 1275              	.L63:
1164:Drivers/STM32F4xx_HAL_Driver/Src/stm32f4xx_hal_spi.c ****   }
1165:Drivers/STM32F4xx_HAL_Driver/Src/stm32f4xx_hal_spi.c **** 
1166:Drivers/STM32F4xx_HAL_Driver/Src/stm32f4xx_hal_spi.c ****   if ((pTxData == NULL) || (pRxData == NULL) || (Size == 0U))
 1276              		.loc 1 1166 6
 1277 004a BB68     		ldr	r3, [r7, #8]
 1278 004c 002B     		cmp	r3, #0
 1279 004e 05D0     		beq	.L66
 1280              		.loc 1 1166 25 discriminator 1
 1281 0050 7B68     		ldr	r3, [r7, #4]
 1282 0052 002B     		cmp	r3, #0
 1283 0054 02D0     		beq	.L66
 1284              		.loc 1 1166 46 discriminator 2
 1285 0056 7B88     		ldrh	r3, [r7, #2]
 1286 0058 002B     		cmp	r3, #0
 1287 005a 01D1     		bne	.L67
 1288              	.L66:
1167:Drivers/STM32F4xx_HAL_Driver/Src/stm32f4xx_hal_spi.c ****   {
1168:Drivers/STM32F4xx_HAL_Driver/Src/stm32f4xx_hal_spi.c ****     return HAL_ERROR;
ARM GAS  C:\Users\16323\AppData\Local\Temp\ccbQ7VoP.s 			page 44


 1289              		.loc 1 1168 12
 1290 005c 0123     		movs	r3, #1
 1291 005e 74E1     		b	.L65
 1292              	.L67:
1169:Drivers/STM32F4xx_HAL_Driver/Src/stm32f4xx_hal_spi.c ****   }
1170:Drivers/STM32F4xx_HAL_Driver/Src/stm32f4xx_hal_spi.c **** 
1171:Drivers/STM32F4xx_HAL_Driver/Src/stm32f4xx_hal_spi.c ****   /* Process Locked */
1172:Drivers/STM32F4xx_HAL_Driver/Src/stm32f4xx_hal_spi.c ****   __HAL_LOCK(hspi);
 1293              		.loc 1 1172 3
 1294 0060 FB68     		ldr	r3, [r7, #12]
 1295 0062 93F85030 		ldrb	r3, [r3, #80]	@ zero_extendqisi2
 1296 0066 012B     		cmp	r3, #1
 1297 0068 01D1     		bne	.L68
 1298              		.loc 1 1172 3 is_stmt 0 discriminator 1
 1299 006a 0223     		movs	r3, #2
 1300 006c 6DE1     		b	.L65
 1301              	.L68:
 1302              		.loc 1 1172 3 discriminator 2
 1303 006e FB68     		ldr	r3, [r7, #12]
 1304 0070 0122     		movs	r2, #1
 1305 0072 83F85020 		strb	r2, [r3, #80]
1173:Drivers/STM32F4xx_HAL_Driver/Src/stm32f4xx_hal_spi.c **** 
1174:Drivers/STM32F4xx_HAL_Driver/Src/stm32f4xx_hal_spi.c ****   /* Don't overwrite in case of HAL_SPI_STATE_BUSY_RX */
1175:Drivers/STM32F4xx_HAL_Driver/Src/stm32f4xx_hal_spi.c ****   if (hspi->State != HAL_SPI_STATE_BUSY_RX)
 1306              		.loc 1 1175 11 is_stmt 1 discriminator 2
 1307 0076 FB68     		ldr	r3, [r7, #12]
 1308 0078 93F85130 		ldrb	r3, [r3, #81]
 1309 007c DBB2     		uxtb	r3, r3
 1310              		.loc 1 1175 6 discriminator 2
 1311 007e 042B     		cmp	r3, #4
 1312 0080 03D0     		beq	.L69
1176:Drivers/STM32F4xx_HAL_Driver/Src/stm32f4xx_hal_spi.c ****   {
1177:Drivers/STM32F4xx_HAL_Driver/Src/stm32f4xx_hal_spi.c ****     hspi->State = HAL_SPI_STATE_BUSY_TX_RX;
 1313              		.loc 1 1177 17
 1314 0082 FB68     		ldr	r3, [r7, #12]
 1315 0084 0522     		movs	r2, #5
 1316 0086 83F85120 		strb	r2, [r3, #81]
 1317              	.L69:
1178:Drivers/STM32F4xx_HAL_Driver/Src/stm32f4xx_hal_spi.c ****   }
1179:Drivers/STM32F4xx_HAL_Driver/Src/stm32f4xx_hal_spi.c **** 
1180:Drivers/STM32F4xx_HAL_Driver/Src/stm32f4xx_hal_spi.c ****   /* Set the transaction information */
1181:Drivers/STM32F4xx_HAL_Driver/Src/stm32f4xx_hal_spi.c ****   hspi->ErrorCode   = HAL_SPI_ERROR_NONE;
 1318              		.loc 1 1181 21
 1319 008a FB68     		ldr	r3, [r7, #12]
 1320 008c 0022     		movs	r2, #0
 1321 008e 5A65     		str	r2, [r3, #84]
1182:Drivers/STM32F4xx_HAL_Driver/Src/stm32f4xx_hal_spi.c ****   hspi->pRxBuffPtr  = (uint8_t *)pRxData;
 1322              		.loc 1 1182 21
 1323 0090 FB68     		ldr	r3, [r7, #12]
 1324 0092 7A68     		ldr	r2, [r7, #4]
 1325 0094 9A63     		str	r2, [r3, #56]
1183:Drivers/STM32F4xx_HAL_Driver/Src/stm32f4xx_hal_spi.c ****   hspi->RxXferCount = Size;
 1326              		.loc 1 1183 21
 1327 0096 FB68     		ldr	r3, [r7, #12]
 1328 0098 7A88     		ldrh	r2, [r7, #2]	@ movhi
 1329 009a DA87     		strh	r2, [r3, #62]	@ movhi
1184:Drivers/STM32F4xx_HAL_Driver/Src/stm32f4xx_hal_spi.c ****   hspi->RxXferSize  = Size;
ARM GAS  C:\Users\16323\AppData\Local\Temp\ccbQ7VoP.s 			page 45


 1330              		.loc 1 1184 21
 1331 009c FB68     		ldr	r3, [r7, #12]
 1332 009e 7A88     		ldrh	r2, [r7, #2]	@ movhi
 1333 00a0 9A87     		strh	r2, [r3, #60]	@ movhi
1185:Drivers/STM32F4xx_HAL_Driver/Src/stm32f4xx_hal_spi.c ****   hspi->pTxBuffPtr  = (const uint8_t *)pTxData;
 1334              		.loc 1 1185 21
 1335 00a2 FB68     		ldr	r3, [r7, #12]
 1336 00a4 BA68     		ldr	r2, [r7, #8]
 1337 00a6 1A63     		str	r2, [r3, #48]
1186:Drivers/STM32F4xx_HAL_Driver/Src/stm32f4xx_hal_spi.c ****   hspi->TxXferCount = Size;
 1338              		.loc 1 1186 21
 1339 00a8 FB68     		ldr	r3, [r7, #12]
 1340 00aa 7A88     		ldrh	r2, [r7, #2]	@ movhi
 1341 00ac DA86     		strh	r2, [r3, #54]	@ movhi
1187:Drivers/STM32F4xx_HAL_Driver/Src/stm32f4xx_hal_spi.c ****   hspi->TxXferSize  = Size;
 1342              		.loc 1 1187 21
 1343 00ae FB68     		ldr	r3, [r7, #12]
 1344 00b0 7A88     		ldrh	r2, [r7, #2]	@ movhi
 1345 00b2 9A86     		strh	r2, [r3, #52]	@ movhi
1188:Drivers/STM32F4xx_HAL_Driver/Src/stm32f4xx_hal_spi.c **** 
1189:Drivers/STM32F4xx_HAL_Driver/Src/stm32f4xx_hal_spi.c ****   /*Init field not used in handle to zero */
1190:Drivers/STM32F4xx_HAL_Driver/Src/stm32f4xx_hal_spi.c ****   hspi->RxISR       = NULL;
 1346              		.loc 1 1190 21
 1347 00b4 FB68     		ldr	r3, [r7, #12]
 1348 00b6 0022     		movs	r2, #0
 1349 00b8 1A64     		str	r2, [r3, #64]
1191:Drivers/STM32F4xx_HAL_Driver/Src/stm32f4xx_hal_spi.c ****   hspi->TxISR       = NULL;
 1350              		.loc 1 1191 21
 1351 00ba FB68     		ldr	r3, [r7, #12]
 1352 00bc 0022     		movs	r2, #0
 1353 00be 5A64     		str	r2, [r3, #68]
1192:Drivers/STM32F4xx_HAL_Driver/Src/stm32f4xx_hal_spi.c **** 
1193:Drivers/STM32F4xx_HAL_Driver/Src/stm32f4xx_hal_spi.c **** #if (USE_SPI_CRC != 0U)
1194:Drivers/STM32F4xx_HAL_Driver/Src/stm32f4xx_hal_spi.c ****   /* Reset CRC Calculation */
1195:Drivers/STM32F4xx_HAL_Driver/Src/stm32f4xx_hal_spi.c ****   if (hspi->Init.CRCCalculation == SPI_CRCCALCULATION_ENABLE)
1196:Drivers/STM32F4xx_HAL_Driver/Src/stm32f4xx_hal_spi.c ****   {
1197:Drivers/STM32F4xx_HAL_Driver/Src/stm32f4xx_hal_spi.c ****     SPI_RESET_CRC(hspi);
1198:Drivers/STM32F4xx_HAL_Driver/Src/stm32f4xx_hal_spi.c ****   }
1199:Drivers/STM32F4xx_HAL_Driver/Src/stm32f4xx_hal_spi.c **** #endif /* USE_SPI_CRC */
1200:Drivers/STM32F4xx_HAL_Driver/Src/stm32f4xx_hal_spi.c **** 
1201:Drivers/STM32F4xx_HAL_Driver/Src/stm32f4xx_hal_spi.c ****   /* Check if the SPI is already enabled */
1202:Drivers/STM32F4xx_HAL_Driver/Src/stm32f4xx_hal_spi.c ****   if ((hspi->Instance->CR1 & SPI_CR1_SPE) != SPI_CR1_SPE)
 1354              		.loc 1 1202 12
 1355 00c0 FB68     		ldr	r3, [r7, #12]
 1356 00c2 1B68     		ldr	r3, [r3]
 1357              		.loc 1 1202 22
 1358 00c4 1B68     		ldr	r3, [r3]
 1359              		.loc 1 1202 28
 1360 00c6 03F04003 		and	r3, r3, #64
 1361              		.loc 1 1202 6
 1362 00ca 402B     		cmp	r3, #64
 1363 00cc 07D0     		beq	.L70
1203:Drivers/STM32F4xx_HAL_Driver/Src/stm32f4xx_hal_spi.c ****   {
1204:Drivers/STM32F4xx_HAL_Driver/Src/stm32f4xx_hal_spi.c ****     /* Enable SPI peripheral */
1205:Drivers/STM32F4xx_HAL_Driver/Src/stm32f4xx_hal_spi.c ****     __HAL_SPI_ENABLE(hspi);
 1364              		.loc 1 1205 5
 1365 00ce FB68     		ldr	r3, [r7, #12]
ARM GAS  C:\Users\16323\AppData\Local\Temp\ccbQ7VoP.s 			page 46


 1366 00d0 1B68     		ldr	r3, [r3]
 1367 00d2 1A68     		ldr	r2, [r3]
 1368 00d4 FB68     		ldr	r3, [r7, #12]
 1369 00d6 1B68     		ldr	r3, [r3]
 1370 00d8 42F04002 		orr	r2, r2, #64
 1371 00dc 1A60     		str	r2, [r3]
 1372              	.L70:
1206:Drivers/STM32F4xx_HAL_Driver/Src/stm32f4xx_hal_spi.c ****   }
1207:Drivers/STM32F4xx_HAL_Driver/Src/stm32f4xx_hal_spi.c **** 
1208:Drivers/STM32F4xx_HAL_Driver/Src/stm32f4xx_hal_spi.c ****   /* Transmit and Receive data in 16 Bit mode */
1209:Drivers/STM32F4xx_HAL_Driver/Src/stm32f4xx_hal_spi.c ****   if (hspi->Init.DataSize == SPI_DATASIZE_16BIT)
 1373              		.loc 1 1209 17
 1374 00de FB68     		ldr	r3, [r7, #12]
 1375 00e0 DB68     		ldr	r3, [r3, #12]
 1376              		.loc 1 1209 6
 1377 00e2 B3F5006F 		cmp	r3, #2048
 1378 00e6 7ED1     		bne	.L71
1210:Drivers/STM32F4xx_HAL_Driver/Src/stm32f4xx_hal_spi.c ****   {
1211:Drivers/STM32F4xx_HAL_Driver/Src/stm32f4xx_hal_spi.c ****     if ((hspi->Init.Mode == SPI_MODE_SLAVE) || (initial_TxXferCount == 0x01U))
 1379              		.loc 1 1211 20
 1380 00e8 FB68     		ldr	r3, [r7, #12]
 1381 00ea 5B68     		ldr	r3, [r3, #4]
 1382              		.loc 1 1211 8
 1383 00ec 002B     		cmp	r3, #0
 1384 00ee 02D0     		beq	.L72
 1385              		.loc 1 1211 45 discriminator 1
 1386 00f0 FB8A     		ldrh	r3, [r7, #22]
 1387 00f2 012B     		cmp	r3, #1
 1388 00f4 6CD1     		bne	.L74
 1389              	.L72:
1212:Drivers/STM32F4xx_HAL_Driver/Src/stm32f4xx_hal_spi.c ****     {
1213:Drivers/STM32F4xx_HAL_Driver/Src/stm32f4xx_hal_spi.c ****       hspi->Instance->DR = *((const uint16_t *)hspi->pTxBuffPtr);
 1390              		.loc 1 1213 52
 1391 00f6 FB68     		ldr	r3, [r7, #12]
 1392 00f8 1B6B     		ldr	r3, [r3, #48]
 1393              		.loc 1 1213 28
 1394 00fa 1A88     		ldrh	r2, [r3]
 1395              		.loc 1 1213 11
 1396 00fc FB68     		ldr	r3, [r7, #12]
 1397 00fe 1B68     		ldr	r3, [r3]
 1398              		.loc 1 1213 26
 1399 0100 DA60     		str	r2, [r3, #12]
1214:Drivers/STM32F4xx_HAL_Driver/Src/stm32f4xx_hal_spi.c ****       hspi->pTxBuffPtr += sizeof(uint16_t);
 1400              		.loc 1 1214 24
 1401 0102 FB68     		ldr	r3, [r7, #12]
 1402 0104 1B6B     		ldr	r3, [r3, #48]
 1403 0106 9A1C     		adds	r2, r3, #2
 1404 0108 FB68     		ldr	r3, [r7, #12]
 1405 010a 1A63     		str	r2, [r3, #48]
1215:Drivers/STM32F4xx_HAL_Driver/Src/stm32f4xx_hal_spi.c ****       hspi->TxXferCount--;
 1406              		.loc 1 1215 11
 1407 010c FB68     		ldr	r3, [r7, #12]
 1408 010e DB8E     		ldrh	r3, [r3, #54]	@ movhi
 1409 0110 9BB2     		uxth	r3, r3
 1410              		.loc 1 1215 24
 1411 0112 013B     		subs	r3, r3, #1
 1412 0114 9AB2     		uxth	r2, r3
ARM GAS  C:\Users\16323\AppData\Local\Temp\ccbQ7VoP.s 			page 47


 1413 0116 FB68     		ldr	r3, [r7, #12]
 1414 0118 DA86     		strh	r2, [r3, #54]	@ movhi
1216:Drivers/STM32F4xx_HAL_Driver/Src/stm32f4xx_hal_spi.c **** 
1217:Drivers/STM32F4xx_HAL_Driver/Src/stm32f4xx_hal_spi.c **** #if (USE_SPI_CRC != 0U)
1218:Drivers/STM32F4xx_HAL_Driver/Src/stm32f4xx_hal_spi.c ****       /* Enable CRC Transmission */
1219:Drivers/STM32F4xx_HAL_Driver/Src/stm32f4xx_hal_spi.c ****       if ((hspi->TxXferCount == 0U) && (hspi->Init.CRCCalculation == SPI_CRCCALCULATION_ENABLE))
1220:Drivers/STM32F4xx_HAL_Driver/Src/stm32f4xx_hal_spi.c ****       {
1221:Drivers/STM32F4xx_HAL_Driver/Src/stm32f4xx_hal_spi.c ****         SET_BIT(hspi->Instance->CR1, SPI_CR1_CRCNEXT);
1222:Drivers/STM32F4xx_HAL_Driver/Src/stm32f4xx_hal_spi.c ****       }
1223:Drivers/STM32F4xx_HAL_Driver/Src/stm32f4xx_hal_spi.c **** #endif /* USE_SPI_CRC */
1224:Drivers/STM32F4xx_HAL_Driver/Src/stm32f4xx_hal_spi.c **** 
1225:Drivers/STM32F4xx_HAL_Driver/Src/stm32f4xx_hal_spi.c ****     }
1226:Drivers/STM32F4xx_HAL_Driver/Src/stm32f4xx_hal_spi.c ****     while ((hspi->TxXferCount > 0U) || (hspi->RxXferCount > 0U))
 1415              		.loc 1 1226 11
 1416 011a 59E0     		b	.L74
 1417              	.L77:
1227:Drivers/STM32F4xx_HAL_Driver/Src/stm32f4xx_hal_spi.c ****     {
1228:Drivers/STM32F4xx_HAL_Driver/Src/stm32f4xx_hal_spi.c ****       /* Check TXE flag */
1229:Drivers/STM32F4xx_HAL_Driver/Src/stm32f4xx_hal_spi.c ****       if ((__HAL_SPI_GET_FLAG(hspi, SPI_FLAG_TXE)) && (hspi->TxXferCount > 0U) && (txallowed == 1U)
 1418              		.loc 1 1229 12
 1419 011c FB68     		ldr	r3, [r7, #12]
 1420 011e 1B68     		ldr	r3, [r3]
 1421 0120 9B68     		ldr	r3, [r3, #8]
 1422 0122 03F00203 		and	r3, r3, #2
 1423              		.loc 1 1229 10
 1424 0126 022B     		cmp	r3, #2
 1425 0128 1BD1     		bne	.L75
 1426              		.loc 1 1229 60 discriminator 1
 1427 012a FB68     		ldr	r3, [r7, #12]
 1428 012c DB8E     		ldrh	r3, [r3, #54]	@ movhi
 1429 012e 9BB2     		uxth	r3, r3
 1430              		.loc 1 1229 52 discriminator 1
 1431 0130 002B     		cmp	r3, #0
 1432 0132 16D0     		beq	.L75
 1433              		.loc 1 1229 80 discriminator 2
 1434 0134 7B6A     		ldr	r3, [r7, #36]
 1435 0136 012B     		cmp	r3, #1
 1436 0138 13D1     		bne	.L75
1230:Drivers/STM32F4xx_HAL_Driver/Src/stm32f4xx_hal_spi.c ****       {
1231:Drivers/STM32F4xx_HAL_Driver/Src/stm32f4xx_hal_spi.c ****         hspi->Instance->DR = *((const uint16_t *)hspi->pTxBuffPtr);
 1437              		.loc 1 1231 54
 1438 013a FB68     		ldr	r3, [r7, #12]
 1439 013c 1B6B     		ldr	r3, [r3, #48]
 1440              		.loc 1 1231 30
 1441 013e 1A88     		ldrh	r2, [r3]
 1442              		.loc 1 1231 13
 1443 0140 FB68     		ldr	r3, [r7, #12]
 1444 0142 1B68     		ldr	r3, [r3]
 1445              		.loc 1 1231 28
 1446 0144 DA60     		str	r2, [r3, #12]
1232:Drivers/STM32F4xx_HAL_Driver/Src/stm32f4xx_hal_spi.c ****         hspi->pTxBuffPtr += sizeof(uint16_t);
 1447              		.loc 1 1232 26
 1448 0146 FB68     		ldr	r3, [r7, #12]
 1449 0148 1B6B     		ldr	r3, [r3, #48]
 1450 014a 9A1C     		adds	r2, r3, #2
 1451 014c FB68     		ldr	r3, [r7, #12]
 1452 014e 1A63     		str	r2, [r3, #48]
ARM GAS  C:\Users\16323\AppData\Local\Temp\ccbQ7VoP.s 			page 48


1233:Drivers/STM32F4xx_HAL_Driver/Src/stm32f4xx_hal_spi.c ****         hspi->TxXferCount--;
 1453              		.loc 1 1233 13
 1454 0150 FB68     		ldr	r3, [r7, #12]
 1455 0152 DB8E     		ldrh	r3, [r3, #54]	@ movhi
 1456 0154 9BB2     		uxth	r3, r3
 1457              		.loc 1 1233 26
 1458 0156 013B     		subs	r3, r3, #1
 1459 0158 9AB2     		uxth	r2, r3
 1460 015a FB68     		ldr	r3, [r7, #12]
 1461 015c DA86     		strh	r2, [r3, #54]	@ movhi
1234:Drivers/STM32F4xx_HAL_Driver/Src/stm32f4xx_hal_spi.c ****         /* Next Data is a reception (Rx). Tx not allowed */
1235:Drivers/STM32F4xx_HAL_Driver/Src/stm32f4xx_hal_spi.c ****         txallowed = 0U;
 1462              		.loc 1 1235 19
 1463 015e 0023     		movs	r3, #0
 1464 0160 7B62     		str	r3, [r7, #36]
 1465              	.L75:
1236:Drivers/STM32F4xx_HAL_Driver/Src/stm32f4xx_hal_spi.c **** 
1237:Drivers/STM32F4xx_HAL_Driver/Src/stm32f4xx_hal_spi.c **** #if (USE_SPI_CRC != 0U)
1238:Drivers/STM32F4xx_HAL_Driver/Src/stm32f4xx_hal_spi.c ****         /* Enable CRC Transmission */
1239:Drivers/STM32F4xx_HAL_Driver/Src/stm32f4xx_hal_spi.c ****         if ((hspi->TxXferCount == 0U) && (hspi->Init.CRCCalculation == SPI_CRCCALCULATION_ENABLE))
1240:Drivers/STM32F4xx_HAL_Driver/Src/stm32f4xx_hal_spi.c ****         {
1241:Drivers/STM32F4xx_HAL_Driver/Src/stm32f4xx_hal_spi.c ****           SET_BIT(hspi->Instance->CR1, SPI_CR1_CRCNEXT);
1242:Drivers/STM32F4xx_HAL_Driver/Src/stm32f4xx_hal_spi.c ****         }
1243:Drivers/STM32F4xx_HAL_Driver/Src/stm32f4xx_hal_spi.c **** #endif /* USE_SPI_CRC */
1244:Drivers/STM32F4xx_HAL_Driver/Src/stm32f4xx_hal_spi.c ****       }
1245:Drivers/STM32F4xx_HAL_Driver/Src/stm32f4xx_hal_spi.c **** 
1246:Drivers/STM32F4xx_HAL_Driver/Src/stm32f4xx_hal_spi.c ****       /* Check RXNE flag */
1247:Drivers/STM32F4xx_HAL_Driver/Src/stm32f4xx_hal_spi.c ****       if ((__HAL_SPI_GET_FLAG(hspi, SPI_FLAG_RXNE)) && (hspi->RxXferCount > 0U))
 1466              		.loc 1 1247 12
 1467 0162 FB68     		ldr	r3, [r7, #12]
 1468 0164 1B68     		ldr	r3, [r3]
 1469 0166 9B68     		ldr	r3, [r3, #8]
 1470 0168 03F00103 		and	r3, r3, #1
 1471              		.loc 1 1247 10
 1472 016c 012B     		cmp	r3, #1
 1473 016e 19D1     		bne	.L76
 1474              		.loc 1 1247 61 discriminator 1
 1475 0170 FB68     		ldr	r3, [r7, #12]
 1476 0172 DB8F     		ldrh	r3, [r3, #62]	@ movhi
 1477 0174 9BB2     		uxth	r3, r3
 1478              		.loc 1 1247 53 discriminator 1
 1479 0176 002B     		cmp	r3, #0
 1480 0178 14D0     		beq	.L76
1248:Drivers/STM32F4xx_HAL_Driver/Src/stm32f4xx_hal_spi.c ****       {
1249:Drivers/STM32F4xx_HAL_Driver/Src/stm32f4xx_hal_spi.c ****         *((uint16_t *)hspi->pRxBuffPtr) = (uint16_t)hspi->Instance->DR;
 1481              		.loc 1 1249 57
 1482 017a FB68     		ldr	r3, [r7, #12]
 1483 017c 1B68     		ldr	r3, [r3]
 1484              		.loc 1 1249 67
 1485 017e DA68     		ldr	r2, [r3, #12]
 1486              		.loc 1 1249 27
 1487 0180 FB68     		ldr	r3, [r7, #12]
 1488 0182 9B6B     		ldr	r3, [r3, #56]
 1489              		.loc 1 1249 43
 1490 0184 92B2     		uxth	r2, r2
 1491              		.loc 1 1249 41
 1492 0186 1A80     		strh	r2, [r3]	@ movhi
ARM GAS  C:\Users\16323\AppData\Local\Temp\ccbQ7VoP.s 			page 49


1250:Drivers/STM32F4xx_HAL_Driver/Src/stm32f4xx_hal_spi.c ****         hspi->pRxBuffPtr += sizeof(uint16_t);
 1493              		.loc 1 1250 26
 1494 0188 FB68     		ldr	r3, [r7, #12]
 1495 018a 9B6B     		ldr	r3, [r3, #56]
 1496 018c 9A1C     		adds	r2, r3, #2
 1497 018e FB68     		ldr	r3, [r7, #12]
 1498 0190 9A63     		str	r2, [r3, #56]
1251:Drivers/STM32F4xx_HAL_Driver/Src/stm32f4xx_hal_spi.c ****         hspi->RxXferCount--;
 1499              		.loc 1 1251 13
 1500 0192 FB68     		ldr	r3, [r7, #12]
 1501 0194 DB8F     		ldrh	r3, [r3, #62]	@ movhi
 1502 0196 9BB2     		uxth	r3, r3
 1503              		.loc 1 1251 26
 1504 0198 013B     		subs	r3, r3, #1
 1505 019a 9AB2     		uxth	r2, r3
 1506 019c FB68     		ldr	r3, [r7, #12]
 1507 019e DA87     		strh	r2, [r3, #62]	@ movhi
1252:Drivers/STM32F4xx_HAL_Driver/Src/stm32f4xx_hal_spi.c ****         /* Next Data is a Transmission (Tx). Tx is allowed */
1253:Drivers/STM32F4xx_HAL_Driver/Src/stm32f4xx_hal_spi.c ****         txallowed = 1U;
 1508              		.loc 1 1253 19
 1509 01a0 0123     		movs	r3, #1
 1510 01a2 7B62     		str	r3, [r7, #36]
 1511              	.L76:
1254:Drivers/STM32F4xx_HAL_Driver/Src/stm32f4xx_hal_spi.c ****       }
1255:Drivers/STM32F4xx_HAL_Driver/Src/stm32f4xx_hal_spi.c ****       if (((HAL_GetTick() - tickstart) >=  Timeout) && (Timeout != HAL_MAX_DELAY))
 1512              		.loc 1 1255 13
 1513 01a4 FFF7FEFF 		bl	HAL_GetTick
 1514 01a8 0246     		mov	r2, r0
 1515              		.loc 1 1255 27
 1516 01aa 3B6A     		ldr	r3, [r7, #32]
 1517 01ac D31A     		subs	r3, r2, r3
 1518              		.loc 1 1255 10
 1519 01ae 3A6B     		ldr	r2, [r7, #48]
 1520 01b0 9A42     		cmp	r2, r3
 1521 01b2 0DD8     		bhi	.L74
 1522              		.loc 1 1255 53 discriminator 1
 1523 01b4 3B6B     		ldr	r3, [r7, #48]
 1524 01b6 B3F1FF3F 		cmp	r3, #-1
 1525 01ba 09D0     		beq	.L74
1256:Drivers/STM32F4xx_HAL_Driver/Src/stm32f4xx_hal_spi.c ****       {
1257:Drivers/STM32F4xx_HAL_Driver/Src/stm32f4xx_hal_spi.c ****         hspi->State = HAL_SPI_STATE_READY;
 1526              		.loc 1 1257 21
 1527 01bc FB68     		ldr	r3, [r7, #12]
 1528 01be 0122     		movs	r2, #1
 1529 01c0 83F85120 		strb	r2, [r3, #81]
1258:Drivers/STM32F4xx_HAL_Driver/Src/stm32f4xx_hal_spi.c ****         __HAL_UNLOCK(hspi);
 1530              		.loc 1 1258 9
 1531 01c4 FB68     		ldr	r3, [r7, #12]
 1532 01c6 0022     		movs	r2, #0
 1533 01c8 83F85020 		strb	r2, [r3, #80]
1259:Drivers/STM32F4xx_HAL_Driver/Src/stm32f4xx_hal_spi.c ****         return HAL_TIMEOUT;
 1534              		.loc 1 1259 16
 1535 01cc 0323     		movs	r3, #3
 1536 01ce BCE0     		b	.L65
 1537              	.L74:
1226:Drivers/STM32F4xx_HAL_Driver/Src/stm32f4xx_hal_spi.c ****     {
 1538              		.loc 1 1226 17
ARM GAS  C:\Users\16323\AppData\Local\Temp\ccbQ7VoP.s 			page 50


 1539 01d0 FB68     		ldr	r3, [r7, #12]
 1540 01d2 DB8E     		ldrh	r3, [r3, #54]	@ movhi
 1541 01d4 9BB2     		uxth	r3, r3
1226:Drivers/STM32F4xx_HAL_Driver/Src/stm32f4xx_hal_spi.c ****     {
 1542              		.loc 1 1226 11
 1543 01d6 002B     		cmp	r3, #0
 1544 01d8 A0D1     		bne	.L77
1226:Drivers/STM32F4xx_HAL_Driver/Src/stm32f4xx_hal_spi.c ****     {
 1545              		.loc 1 1226 45 discriminator 1
 1546 01da FB68     		ldr	r3, [r7, #12]
 1547 01dc DB8F     		ldrh	r3, [r3, #62]	@ movhi
 1548 01de 9BB2     		uxth	r3, r3
1226:Drivers/STM32F4xx_HAL_Driver/Src/stm32f4xx_hal_spi.c ****     {
 1549              		.loc 1 1226 37 discriminator 1
 1550 01e0 002B     		cmp	r3, #0
 1551 01e2 9BD1     		bne	.L77
 1552 01e4 82E0     		b	.L78
 1553              	.L71:
1260:Drivers/STM32F4xx_HAL_Driver/Src/stm32f4xx_hal_spi.c ****       }
1261:Drivers/STM32F4xx_HAL_Driver/Src/stm32f4xx_hal_spi.c ****     }
1262:Drivers/STM32F4xx_HAL_Driver/Src/stm32f4xx_hal_spi.c ****   }
1263:Drivers/STM32F4xx_HAL_Driver/Src/stm32f4xx_hal_spi.c ****   /* Transmit and Receive data in 8 Bit mode */
1264:Drivers/STM32F4xx_HAL_Driver/Src/stm32f4xx_hal_spi.c ****   else
1265:Drivers/STM32F4xx_HAL_Driver/Src/stm32f4xx_hal_spi.c ****   {
1266:Drivers/STM32F4xx_HAL_Driver/Src/stm32f4xx_hal_spi.c ****     if ((hspi->Init.Mode == SPI_MODE_SLAVE) || (initial_TxXferCount == 0x01U))
 1554              		.loc 1 1266 20
 1555 01e6 FB68     		ldr	r3, [r7, #12]
 1556 01e8 5B68     		ldr	r3, [r3, #4]
 1557              		.loc 1 1266 8
 1558 01ea 002B     		cmp	r3, #0
 1559 01ec 02D0     		beq	.L79
 1560              		.loc 1 1266 45 discriminator 1
 1561 01ee FB8A     		ldrh	r3, [r7, #22]
 1562 01f0 012B     		cmp	r3, #1
 1563 01f2 71D1     		bne	.L81
 1564              	.L79:
1267:Drivers/STM32F4xx_HAL_Driver/Src/stm32f4xx_hal_spi.c ****     {
1268:Drivers/STM32F4xx_HAL_Driver/Src/stm32f4xx_hal_spi.c ****       *((__IO uint8_t *)&hspi->Instance->DR) = *((const uint8_t *)hspi->pTxBuffPtr);
 1565              		.loc 1 1268 71
 1566 01f4 FB68     		ldr	r3, [r7, #12]
 1567 01f6 1A6B     		ldr	r2, [r3, #48]
 1568              		.loc 1 1268 30
 1569 01f8 FB68     		ldr	r3, [r7, #12]
 1570 01fa 1B68     		ldr	r3, [r3]
 1571              		.loc 1 1268 25
 1572 01fc 0C33     		adds	r3, r3, #12
 1573              		.loc 1 1268 48
 1574 01fe 1278     		ldrb	r2, [r2]	@ zero_extendqisi2
 1575              		.loc 1 1268 46
 1576 0200 1A70     		strb	r2, [r3]
1269:Drivers/STM32F4xx_HAL_Driver/Src/stm32f4xx_hal_spi.c ****       hspi->pTxBuffPtr += sizeof(uint8_t);
 1577              		.loc 1 1269 24
 1578 0202 FB68     		ldr	r3, [r7, #12]
 1579 0204 1B6B     		ldr	r3, [r3, #48]
 1580 0206 5A1C     		adds	r2, r3, #1
 1581 0208 FB68     		ldr	r3, [r7, #12]
 1582 020a 1A63     		str	r2, [r3, #48]
ARM GAS  C:\Users\16323\AppData\Local\Temp\ccbQ7VoP.s 			page 51


1270:Drivers/STM32F4xx_HAL_Driver/Src/stm32f4xx_hal_spi.c ****       hspi->TxXferCount--;
 1583              		.loc 1 1270 11
 1584 020c FB68     		ldr	r3, [r7, #12]
 1585 020e DB8E     		ldrh	r3, [r3, #54]	@ movhi
 1586 0210 9BB2     		uxth	r3, r3
 1587              		.loc 1 1270 24
 1588 0212 013B     		subs	r3, r3, #1
 1589 0214 9AB2     		uxth	r2, r3
 1590 0216 FB68     		ldr	r3, [r7, #12]
 1591 0218 DA86     		strh	r2, [r3, #54]	@ movhi
1271:Drivers/STM32F4xx_HAL_Driver/Src/stm32f4xx_hal_spi.c **** 
1272:Drivers/STM32F4xx_HAL_Driver/Src/stm32f4xx_hal_spi.c **** #if (USE_SPI_CRC != 0U)
1273:Drivers/STM32F4xx_HAL_Driver/Src/stm32f4xx_hal_spi.c ****       /* Enable CRC Transmission */
1274:Drivers/STM32F4xx_HAL_Driver/Src/stm32f4xx_hal_spi.c ****       if ((hspi->TxXferCount == 0U) && (hspi->Init.CRCCalculation == SPI_CRCCALCULATION_ENABLE))
1275:Drivers/STM32F4xx_HAL_Driver/Src/stm32f4xx_hal_spi.c ****       {
1276:Drivers/STM32F4xx_HAL_Driver/Src/stm32f4xx_hal_spi.c ****         SET_BIT(hspi->Instance->CR1, SPI_CR1_CRCNEXT);
1277:Drivers/STM32F4xx_HAL_Driver/Src/stm32f4xx_hal_spi.c ****       }
1278:Drivers/STM32F4xx_HAL_Driver/Src/stm32f4xx_hal_spi.c **** #endif /* USE_SPI_CRC */
1279:Drivers/STM32F4xx_HAL_Driver/Src/stm32f4xx_hal_spi.c ****     }
1280:Drivers/STM32F4xx_HAL_Driver/Src/stm32f4xx_hal_spi.c ****     while ((hspi->TxXferCount > 0U) || (hspi->RxXferCount > 0U))
 1592              		.loc 1 1280 11
 1593 021a 5DE0     		b	.L81
 1594              	.L86:
1281:Drivers/STM32F4xx_HAL_Driver/Src/stm32f4xx_hal_spi.c ****     {
1282:Drivers/STM32F4xx_HAL_Driver/Src/stm32f4xx_hal_spi.c ****       /* Check TXE flag */
1283:Drivers/STM32F4xx_HAL_Driver/Src/stm32f4xx_hal_spi.c ****       if ((__HAL_SPI_GET_FLAG(hspi, SPI_FLAG_TXE)) && (hspi->TxXferCount > 0U) && (txallowed == 1U)
 1595              		.loc 1 1283 12
 1596 021c FB68     		ldr	r3, [r7, #12]
 1597 021e 1B68     		ldr	r3, [r3]
 1598 0220 9B68     		ldr	r3, [r3, #8]
 1599 0222 03F00203 		and	r3, r3, #2
 1600              		.loc 1 1283 10
 1601 0226 022B     		cmp	r3, #2
 1602 0228 1CD1     		bne	.L82
 1603              		.loc 1 1283 60 discriminator 1
 1604 022a FB68     		ldr	r3, [r7, #12]
 1605 022c DB8E     		ldrh	r3, [r3, #54]	@ movhi
 1606 022e 9BB2     		uxth	r3, r3
 1607              		.loc 1 1283 52 discriminator 1
 1608 0230 002B     		cmp	r3, #0
 1609 0232 17D0     		beq	.L82
 1610              		.loc 1 1283 80 discriminator 2
 1611 0234 7B6A     		ldr	r3, [r7, #36]
 1612 0236 012B     		cmp	r3, #1
 1613 0238 14D1     		bne	.L82
1284:Drivers/STM32F4xx_HAL_Driver/Src/stm32f4xx_hal_spi.c ****       {
1285:Drivers/STM32F4xx_HAL_Driver/Src/stm32f4xx_hal_spi.c ****         *(__IO uint8_t *)&hspi->Instance->DR = *((const uint8_t *)hspi->pTxBuffPtr);
 1614              		.loc 1 1285 71
 1615 023a FB68     		ldr	r3, [r7, #12]
 1616 023c 1A6B     		ldr	r2, [r3, #48]
 1617              		.loc 1 1285 31
 1618 023e FB68     		ldr	r3, [r7, #12]
 1619 0240 1B68     		ldr	r3, [r3]
 1620              		.loc 1 1285 26
 1621 0242 0C33     		adds	r3, r3, #12
 1622              		.loc 1 1285 48
 1623 0244 1278     		ldrb	r2, [r2]	@ zero_extendqisi2
ARM GAS  C:\Users\16323\AppData\Local\Temp\ccbQ7VoP.s 			page 52


 1624              		.loc 1 1285 46
 1625 0246 1A70     		strb	r2, [r3]
1286:Drivers/STM32F4xx_HAL_Driver/Src/stm32f4xx_hal_spi.c ****         hspi->pTxBuffPtr++;
 1626              		.loc 1 1286 13
 1627 0248 FB68     		ldr	r3, [r7, #12]
 1628 024a 1B6B     		ldr	r3, [r3, #48]
 1629              		.loc 1 1286 25
 1630 024c 5A1C     		adds	r2, r3, #1
 1631 024e FB68     		ldr	r3, [r7, #12]
 1632 0250 1A63     		str	r2, [r3, #48]
1287:Drivers/STM32F4xx_HAL_Driver/Src/stm32f4xx_hal_spi.c ****         hspi->TxXferCount--;
 1633              		.loc 1 1287 13
 1634 0252 FB68     		ldr	r3, [r7, #12]
 1635 0254 DB8E     		ldrh	r3, [r3, #54]	@ movhi
 1636 0256 9BB2     		uxth	r3, r3
 1637              		.loc 1 1287 26
 1638 0258 013B     		subs	r3, r3, #1
 1639 025a 9AB2     		uxth	r2, r3
 1640 025c FB68     		ldr	r3, [r7, #12]
 1641 025e DA86     		strh	r2, [r3, #54]	@ movhi
1288:Drivers/STM32F4xx_HAL_Driver/Src/stm32f4xx_hal_spi.c ****         /* Next Data is a reception (Rx). Tx not allowed */
1289:Drivers/STM32F4xx_HAL_Driver/Src/stm32f4xx_hal_spi.c ****         txallowed = 0U;
 1642              		.loc 1 1289 19
 1643 0260 0023     		movs	r3, #0
 1644 0262 7B62     		str	r3, [r7, #36]
 1645              	.L82:
1290:Drivers/STM32F4xx_HAL_Driver/Src/stm32f4xx_hal_spi.c **** 
1291:Drivers/STM32F4xx_HAL_Driver/Src/stm32f4xx_hal_spi.c **** #if (USE_SPI_CRC != 0U)
1292:Drivers/STM32F4xx_HAL_Driver/Src/stm32f4xx_hal_spi.c ****         /* Enable CRC Transmission */
1293:Drivers/STM32F4xx_HAL_Driver/Src/stm32f4xx_hal_spi.c ****         if ((hspi->TxXferCount == 0U) && (hspi->Init.CRCCalculation == SPI_CRCCALCULATION_ENABLE))
1294:Drivers/STM32F4xx_HAL_Driver/Src/stm32f4xx_hal_spi.c ****         {
1295:Drivers/STM32F4xx_HAL_Driver/Src/stm32f4xx_hal_spi.c ****           SET_BIT(hspi->Instance->CR1, SPI_CR1_CRCNEXT);
1296:Drivers/STM32F4xx_HAL_Driver/Src/stm32f4xx_hal_spi.c ****         }
1297:Drivers/STM32F4xx_HAL_Driver/Src/stm32f4xx_hal_spi.c **** #endif /* USE_SPI_CRC */
1298:Drivers/STM32F4xx_HAL_Driver/Src/stm32f4xx_hal_spi.c ****       }
1299:Drivers/STM32F4xx_HAL_Driver/Src/stm32f4xx_hal_spi.c **** 
1300:Drivers/STM32F4xx_HAL_Driver/Src/stm32f4xx_hal_spi.c ****       /* Wait until RXNE flag is reset */
1301:Drivers/STM32F4xx_HAL_Driver/Src/stm32f4xx_hal_spi.c ****       if ((__HAL_SPI_GET_FLAG(hspi, SPI_FLAG_RXNE)) && (hspi->RxXferCount > 0U))
 1646              		.loc 1 1301 12
 1647 0264 FB68     		ldr	r3, [r7, #12]
 1648 0266 1B68     		ldr	r3, [r3]
 1649 0268 9B68     		ldr	r3, [r3, #8]
 1650 026a 03F00103 		and	r3, r3, #1
 1651              		.loc 1 1301 10
 1652 026e 012B     		cmp	r3, #1
 1653 0270 19D1     		bne	.L83
 1654              		.loc 1 1301 61 discriminator 1
 1655 0272 FB68     		ldr	r3, [r7, #12]
 1656 0274 DB8F     		ldrh	r3, [r3, #62]	@ movhi
 1657 0276 9BB2     		uxth	r3, r3
 1658              		.loc 1 1301 53 discriminator 1
 1659 0278 002B     		cmp	r3, #0
 1660 027a 14D0     		beq	.L83
1302:Drivers/STM32F4xx_HAL_Driver/Src/stm32f4xx_hal_spi.c ****       {
1303:Drivers/STM32F4xx_HAL_Driver/Src/stm32f4xx_hal_spi.c ****         (*(uint8_t *)hspi->pRxBuffPtr) = hspi->Instance->DR;
 1661              		.loc 1 1303 46
 1662 027c FB68     		ldr	r3, [r7, #12]
ARM GAS  C:\Users\16323\AppData\Local\Temp\ccbQ7VoP.s 			page 53


 1663 027e 1B68     		ldr	r3, [r3]
 1664              		.loc 1 1303 56
 1665 0280 DA68     		ldr	r2, [r3, #12]
 1666              		.loc 1 1303 26
 1667 0282 FB68     		ldr	r3, [r7, #12]
 1668 0284 9B6B     		ldr	r3, [r3, #56]
 1669              		.loc 1 1303 40
 1670 0286 D2B2     		uxtb	r2, r2
 1671 0288 1A70     		strb	r2, [r3]
1304:Drivers/STM32F4xx_HAL_Driver/Src/stm32f4xx_hal_spi.c ****         hspi->pRxBuffPtr++;
 1672              		.loc 1 1304 13
 1673 028a FB68     		ldr	r3, [r7, #12]
 1674 028c 9B6B     		ldr	r3, [r3, #56]
 1675              		.loc 1 1304 25
 1676 028e 5A1C     		adds	r2, r3, #1
 1677 0290 FB68     		ldr	r3, [r7, #12]
 1678 0292 9A63     		str	r2, [r3, #56]
1305:Drivers/STM32F4xx_HAL_Driver/Src/stm32f4xx_hal_spi.c ****         hspi->RxXferCount--;
 1679              		.loc 1 1305 13
 1680 0294 FB68     		ldr	r3, [r7, #12]
 1681 0296 DB8F     		ldrh	r3, [r3, #62]	@ movhi
 1682 0298 9BB2     		uxth	r3, r3
 1683              		.loc 1 1305 26
 1684 029a 013B     		subs	r3, r3, #1
 1685 029c 9AB2     		uxth	r2, r3
 1686 029e FB68     		ldr	r3, [r7, #12]
 1687 02a0 DA87     		strh	r2, [r3, #62]	@ movhi
1306:Drivers/STM32F4xx_HAL_Driver/Src/stm32f4xx_hal_spi.c ****         /* Next Data is a Transmission (Tx). Tx is allowed */
1307:Drivers/STM32F4xx_HAL_Driver/Src/stm32f4xx_hal_spi.c ****         txallowed = 1U;
 1688              		.loc 1 1307 19
 1689 02a2 0123     		movs	r3, #1
 1690 02a4 7B62     		str	r3, [r7, #36]
 1691              	.L83:
1308:Drivers/STM32F4xx_HAL_Driver/Src/stm32f4xx_hal_spi.c ****       }
1309:Drivers/STM32F4xx_HAL_Driver/Src/stm32f4xx_hal_spi.c ****       if ((((HAL_GetTick() - tickstart) >=  Timeout) && ((Timeout != HAL_MAX_DELAY))) || (Timeout =
 1692              		.loc 1 1309 14
 1693 02a6 FFF7FEFF 		bl	HAL_GetTick
 1694 02aa 0246     		mov	r2, r0
 1695              		.loc 1 1309 28
 1696 02ac 3B6A     		ldr	r3, [r7, #32]
 1697 02ae D31A     		subs	r3, r2, r3
 1698              		.loc 1 1309 10
 1699 02b0 3A6B     		ldr	r2, [r7, #48]
 1700 02b2 9A42     		cmp	r2, r3
 1701 02b4 03D8     		bhi	.L84
 1702              		.loc 1 1309 54 discriminator 1
 1703 02b6 3B6B     		ldr	r3, [r7, #48]
 1704 02b8 B3F1FF3F 		cmp	r3, #-1
 1705 02bc 02D1     		bne	.L85
 1706              	.L84:
 1707              		.loc 1 1309 87 discriminator 3
 1708 02be 3B6B     		ldr	r3, [r7, #48]
 1709 02c0 002B     		cmp	r3, #0
 1710 02c2 09D1     		bne	.L81
 1711              	.L85:
1310:Drivers/STM32F4xx_HAL_Driver/Src/stm32f4xx_hal_spi.c ****       {
1311:Drivers/STM32F4xx_HAL_Driver/Src/stm32f4xx_hal_spi.c ****         hspi->State = HAL_SPI_STATE_READY;
ARM GAS  C:\Users\16323\AppData\Local\Temp\ccbQ7VoP.s 			page 54


 1712              		.loc 1 1311 21
 1713 02c4 FB68     		ldr	r3, [r7, #12]
 1714 02c6 0122     		movs	r2, #1
 1715 02c8 83F85120 		strb	r2, [r3, #81]
1312:Drivers/STM32F4xx_HAL_Driver/Src/stm32f4xx_hal_spi.c ****         __HAL_UNLOCK(hspi);
 1716              		.loc 1 1312 9
 1717 02cc FB68     		ldr	r3, [r7, #12]
 1718 02ce 0022     		movs	r2, #0
 1719 02d0 83F85020 		strb	r2, [r3, #80]
1313:Drivers/STM32F4xx_HAL_Driver/Src/stm32f4xx_hal_spi.c ****         return HAL_TIMEOUT;
 1720              		.loc 1 1313 16
 1721 02d4 0323     		movs	r3, #3
 1722 02d6 38E0     		b	.L65
 1723              	.L81:
1280:Drivers/STM32F4xx_HAL_Driver/Src/stm32f4xx_hal_spi.c ****     {
 1724              		.loc 1 1280 17
 1725 02d8 FB68     		ldr	r3, [r7, #12]
 1726 02da DB8E     		ldrh	r3, [r3, #54]	@ movhi
 1727 02dc 9BB2     		uxth	r3, r3
1280:Drivers/STM32F4xx_HAL_Driver/Src/stm32f4xx_hal_spi.c ****     {
 1728              		.loc 1 1280 11
 1729 02de 002B     		cmp	r3, #0
 1730 02e0 9CD1     		bne	.L86
1280:Drivers/STM32F4xx_HAL_Driver/Src/stm32f4xx_hal_spi.c ****     {
 1731              		.loc 1 1280 45 discriminator 1
 1732 02e2 FB68     		ldr	r3, [r7, #12]
 1733 02e4 DB8F     		ldrh	r3, [r3, #62]	@ movhi
 1734 02e6 9BB2     		uxth	r3, r3
1280:Drivers/STM32F4xx_HAL_Driver/Src/stm32f4xx_hal_spi.c ****     {
 1735              		.loc 1 1280 37 discriminator 1
 1736 02e8 002B     		cmp	r3, #0
 1737 02ea 97D1     		bne	.L86
 1738              	.L78:
1314:Drivers/STM32F4xx_HAL_Driver/Src/stm32f4xx_hal_spi.c ****       }
1315:Drivers/STM32F4xx_HAL_Driver/Src/stm32f4xx_hal_spi.c ****     }
1316:Drivers/STM32F4xx_HAL_Driver/Src/stm32f4xx_hal_spi.c ****   }
1317:Drivers/STM32F4xx_HAL_Driver/Src/stm32f4xx_hal_spi.c **** 
1318:Drivers/STM32F4xx_HAL_Driver/Src/stm32f4xx_hal_spi.c **** #if (USE_SPI_CRC != 0U)
1319:Drivers/STM32F4xx_HAL_Driver/Src/stm32f4xx_hal_spi.c ****   /* Read CRC from DR to close CRC calculation process */
1320:Drivers/STM32F4xx_HAL_Driver/Src/stm32f4xx_hal_spi.c ****   if (hspi->Init.CRCCalculation == SPI_CRCCALCULATION_ENABLE)
1321:Drivers/STM32F4xx_HAL_Driver/Src/stm32f4xx_hal_spi.c ****   {
1322:Drivers/STM32F4xx_HAL_Driver/Src/stm32f4xx_hal_spi.c ****     /* Wait until TXE flag */
1323:Drivers/STM32F4xx_HAL_Driver/Src/stm32f4xx_hal_spi.c ****     if (SPI_WaitFlagStateUntilTimeout(hspi, SPI_FLAG_RXNE, SET, Timeout, tickstart) != HAL_OK)
1324:Drivers/STM32F4xx_HAL_Driver/Src/stm32f4xx_hal_spi.c ****     {
1325:Drivers/STM32F4xx_HAL_Driver/Src/stm32f4xx_hal_spi.c ****       /* Error on the CRC reception */
1326:Drivers/STM32F4xx_HAL_Driver/Src/stm32f4xx_hal_spi.c ****       SET_BIT(hspi->ErrorCode, HAL_SPI_ERROR_CRC);
1327:Drivers/STM32F4xx_HAL_Driver/Src/stm32f4xx_hal_spi.c ****       hspi->State = HAL_SPI_STATE_READY;
1328:Drivers/STM32F4xx_HAL_Driver/Src/stm32f4xx_hal_spi.c ****       __HAL_UNLOCK(hspi);
1329:Drivers/STM32F4xx_HAL_Driver/Src/stm32f4xx_hal_spi.c ****       return HAL_TIMEOUT;
1330:Drivers/STM32F4xx_HAL_Driver/Src/stm32f4xx_hal_spi.c ****     }
1331:Drivers/STM32F4xx_HAL_Driver/Src/stm32f4xx_hal_spi.c ****     /* Read CRC */
1332:Drivers/STM32F4xx_HAL_Driver/Src/stm32f4xx_hal_spi.c ****     tmpreg = READ_REG(hspi->Instance->DR);
1333:Drivers/STM32F4xx_HAL_Driver/Src/stm32f4xx_hal_spi.c ****     /* To avoid GCC warning */
1334:Drivers/STM32F4xx_HAL_Driver/Src/stm32f4xx_hal_spi.c ****     UNUSED(tmpreg);
1335:Drivers/STM32F4xx_HAL_Driver/Src/stm32f4xx_hal_spi.c ****   }
1336:Drivers/STM32F4xx_HAL_Driver/Src/stm32f4xx_hal_spi.c **** 
1337:Drivers/STM32F4xx_HAL_Driver/Src/stm32f4xx_hal_spi.c ****   /* Check if CRC error occurred */
ARM GAS  C:\Users\16323\AppData\Local\Temp\ccbQ7VoP.s 			page 55


1338:Drivers/STM32F4xx_HAL_Driver/Src/stm32f4xx_hal_spi.c ****   if (__HAL_SPI_GET_FLAG(hspi, SPI_FLAG_CRCERR))
1339:Drivers/STM32F4xx_HAL_Driver/Src/stm32f4xx_hal_spi.c ****   {
1340:Drivers/STM32F4xx_HAL_Driver/Src/stm32f4xx_hal_spi.c ****     SET_BIT(hspi->ErrorCode, HAL_SPI_ERROR_CRC);
1341:Drivers/STM32F4xx_HAL_Driver/Src/stm32f4xx_hal_spi.c ****     /* Clear CRC Flag */
1342:Drivers/STM32F4xx_HAL_Driver/Src/stm32f4xx_hal_spi.c ****     __HAL_SPI_CLEAR_CRCERRFLAG(hspi);
1343:Drivers/STM32F4xx_HAL_Driver/Src/stm32f4xx_hal_spi.c ****     __HAL_UNLOCK(hspi);
1344:Drivers/STM32F4xx_HAL_Driver/Src/stm32f4xx_hal_spi.c ****     return HAL_ERROR;
1345:Drivers/STM32F4xx_HAL_Driver/Src/stm32f4xx_hal_spi.c ****   }
1346:Drivers/STM32F4xx_HAL_Driver/Src/stm32f4xx_hal_spi.c **** #endif /* USE_SPI_CRC */
1347:Drivers/STM32F4xx_HAL_Driver/Src/stm32f4xx_hal_spi.c **** 
1348:Drivers/STM32F4xx_HAL_Driver/Src/stm32f4xx_hal_spi.c ****   /* Check the end of the transaction */
1349:Drivers/STM32F4xx_HAL_Driver/Src/stm32f4xx_hal_spi.c ****   if (SPI_EndRxTxTransaction(hspi, Timeout, tickstart) != HAL_OK)
 1739              		.loc 1 1349 7
 1740 02ec 3A6A     		ldr	r2, [r7, #32]
 1741 02ee 396B     		ldr	r1, [r7, #48]
 1742 02f0 F868     		ldr	r0, [r7, #12]
 1743 02f2 FFF7FEFF 		bl	SPI_EndRxTxTransaction
 1744 02f6 0346     		mov	r3, r0
 1745              		.loc 1 1349 6
 1746 02f8 002B     		cmp	r3, #0
 1747 02fa 08D0     		beq	.L87
1350:Drivers/STM32F4xx_HAL_Driver/Src/stm32f4xx_hal_spi.c ****   {
1351:Drivers/STM32F4xx_HAL_Driver/Src/stm32f4xx_hal_spi.c ****     hspi->ErrorCode = HAL_SPI_ERROR_FLAG;
 1748              		.loc 1 1351 21
 1749 02fc FB68     		ldr	r3, [r7, #12]
 1750 02fe 2022     		movs	r2, #32
 1751 0300 5A65     		str	r2, [r3, #84]
1352:Drivers/STM32F4xx_HAL_Driver/Src/stm32f4xx_hal_spi.c ****     __HAL_UNLOCK(hspi);
 1752              		.loc 1 1352 5
 1753 0302 FB68     		ldr	r3, [r7, #12]
 1754 0304 0022     		movs	r2, #0
 1755 0306 83F85020 		strb	r2, [r3, #80]
1353:Drivers/STM32F4xx_HAL_Driver/Src/stm32f4xx_hal_spi.c ****     return HAL_ERROR;
 1756              		.loc 1 1353 12
 1757 030a 0123     		movs	r3, #1
 1758 030c 1DE0     		b	.L65
 1759              	.L87:
1354:Drivers/STM32F4xx_HAL_Driver/Src/stm32f4xx_hal_spi.c ****   }
1355:Drivers/STM32F4xx_HAL_Driver/Src/stm32f4xx_hal_spi.c **** 
1356:Drivers/STM32F4xx_HAL_Driver/Src/stm32f4xx_hal_spi.c ****   /* Clear overrun flag in 2 Lines communication mode because received is not read */
1357:Drivers/STM32F4xx_HAL_Driver/Src/stm32f4xx_hal_spi.c ****   if (hspi->Init.Direction == SPI_DIRECTION_2LINES)
 1760              		.loc 1 1357 17
 1761 030e FB68     		ldr	r3, [r7, #12]
 1762 0310 9B68     		ldr	r3, [r3, #8]
 1763              		.loc 1 1357 6
 1764 0312 002B     		cmp	r3, #0
 1765 0314 0AD1     		bne	.L88
 1766              	.LBB3:
1358:Drivers/STM32F4xx_HAL_Driver/Src/stm32f4xx_hal_spi.c ****   {
1359:Drivers/STM32F4xx_HAL_Driver/Src/stm32f4xx_hal_spi.c ****     __HAL_SPI_CLEAR_OVRFLAG(hspi);
 1767              		.loc 1 1359 5
 1768 0316 0023     		movs	r3, #0
 1769 0318 3B61     		str	r3, [r7, #16]
 1770 031a FB68     		ldr	r3, [r7, #12]
 1771 031c 1B68     		ldr	r3, [r3]
 1772 031e DB68     		ldr	r3, [r3, #12]
 1773 0320 3B61     		str	r3, [r7, #16]
ARM GAS  C:\Users\16323\AppData\Local\Temp\ccbQ7VoP.s 			page 56


 1774 0322 FB68     		ldr	r3, [r7, #12]
 1775 0324 1B68     		ldr	r3, [r3]
 1776 0326 9B68     		ldr	r3, [r3, #8]
 1777 0328 3B61     		str	r3, [r7, #16]
 1778 032a 3B69     		ldr	r3, [r7, #16]
 1779              	.L88:
 1780              	.LBE3:
1360:Drivers/STM32F4xx_HAL_Driver/Src/stm32f4xx_hal_spi.c ****   }
1361:Drivers/STM32F4xx_HAL_Driver/Src/stm32f4xx_hal_spi.c **** 
1362:Drivers/STM32F4xx_HAL_Driver/Src/stm32f4xx_hal_spi.c **** 
1363:Drivers/STM32F4xx_HAL_Driver/Src/stm32f4xx_hal_spi.c ****   hspi->State = HAL_SPI_STATE_READY;
 1781              		.loc 1 1363 15
 1782 032c FB68     		ldr	r3, [r7, #12]
 1783 032e 0122     		movs	r2, #1
 1784 0330 83F85120 		strb	r2, [r3, #81]
1364:Drivers/STM32F4xx_HAL_Driver/Src/stm32f4xx_hal_spi.c ****   /* Unlock the process */
1365:Drivers/STM32F4xx_HAL_Driver/Src/stm32f4xx_hal_spi.c ****   __HAL_UNLOCK(hspi);
 1785              		.loc 1 1365 3
 1786 0334 FB68     		ldr	r3, [r7, #12]
 1787 0336 0022     		movs	r2, #0
 1788 0338 83F85020 		strb	r2, [r3, #80]
1366:Drivers/STM32F4xx_HAL_Driver/Src/stm32f4xx_hal_spi.c **** 
1367:Drivers/STM32F4xx_HAL_Driver/Src/stm32f4xx_hal_spi.c ****   if (hspi->ErrorCode != HAL_SPI_ERROR_NONE)
 1789              		.loc 1 1367 11
 1790 033c FB68     		ldr	r3, [r7, #12]
 1791 033e 5B6D     		ldr	r3, [r3, #84]
 1792              		.loc 1 1367 6
 1793 0340 002B     		cmp	r3, #0
 1794 0342 01D0     		beq	.L89
1368:Drivers/STM32F4xx_HAL_Driver/Src/stm32f4xx_hal_spi.c ****   {
1369:Drivers/STM32F4xx_HAL_Driver/Src/stm32f4xx_hal_spi.c ****     return HAL_ERROR;
 1795              		.loc 1 1369 12
 1796 0344 0123     		movs	r3, #1
 1797 0346 00E0     		b	.L65
 1798              	.L89:
1370:Drivers/STM32F4xx_HAL_Driver/Src/stm32f4xx_hal_spi.c ****   }
1371:Drivers/STM32F4xx_HAL_Driver/Src/stm32f4xx_hal_spi.c ****   else
1372:Drivers/STM32F4xx_HAL_Driver/Src/stm32f4xx_hal_spi.c ****   {
1373:Drivers/STM32F4xx_HAL_Driver/Src/stm32f4xx_hal_spi.c ****     return HAL_OK;
 1799              		.loc 1 1373 12
 1800 0348 0023     		movs	r3, #0
 1801              	.L65:
1374:Drivers/STM32F4xx_HAL_Driver/Src/stm32f4xx_hal_spi.c ****   }
1375:Drivers/STM32F4xx_HAL_Driver/Src/stm32f4xx_hal_spi.c **** }
 1802              		.loc 1 1375 1
 1803 034a 1846     		mov	r0, r3
 1804 034c 2837     		adds	r7, r7, #40
 1805              	.LCFI35:
 1806              		.cfi_def_cfa_offset 8
 1807 034e BD46     		mov	sp, r7
 1808              	.LCFI36:
 1809              		.cfi_def_cfa_register 13
 1810              		@ sp needed
 1811 0350 80BD     		pop	{r7, pc}
 1812              		.cfi_endproc
 1813              	.LFE245:
 1815              		.section	.text.HAL_SPI_Transmit_IT,"ax",%progbits
ARM GAS  C:\Users\16323\AppData\Local\Temp\ccbQ7VoP.s 			page 57


 1816              		.align	1
 1817              		.global	HAL_SPI_Transmit_IT
 1818              		.syntax unified
 1819              		.thumb
 1820              		.thumb_func
 1822              	HAL_SPI_Transmit_IT:
 1823              	.LFB246:
1376:Drivers/STM32F4xx_HAL_Driver/Src/stm32f4xx_hal_spi.c **** 
1377:Drivers/STM32F4xx_HAL_Driver/Src/stm32f4xx_hal_spi.c **** /**
1378:Drivers/STM32F4xx_HAL_Driver/Src/stm32f4xx_hal_spi.c ****   * @brief  Transmit an amount of data in non-blocking mode with Interrupt.
1379:Drivers/STM32F4xx_HAL_Driver/Src/stm32f4xx_hal_spi.c ****   * @param  hspi pointer to a SPI_HandleTypeDef structure that contains
1380:Drivers/STM32F4xx_HAL_Driver/Src/stm32f4xx_hal_spi.c ****   *               the configuration information for SPI module.
1381:Drivers/STM32F4xx_HAL_Driver/Src/stm32f4xx_hal_spi.c ****   * @param  pData pointer to data buffer
1382:Drivers/STM32F4xx_HAL_Driver/Src/stm32f4xx_hal_spi.c ****   * @param  Size amount of data to be sent
1383:Drivers/STM32F4xx_HAL_Driver/Src/stm32f4xx_hal_spi.c ****   * @retval HAL status
1384:Drivers/STM32F4xx_HAL_Driver/Src/stm32f4xx_hal_spi.c ****   */
1385:Drivers/STM32F4xx_HAL_Driver/Src/stm32f4xx_hal_spi.c **** HAL_StatusTypeDef HAL_SPI_Transmit_IT(SPI_HandleTypeDef *hspi, const uint8_t *pData, uint16_t Size)
1386:Drivers/STM32F4xx_HAL_Driver/Src/stm32f4xx_hal_spi.c **** {
 1824              		.loc 1 1386 1
 1825              		.cfi_startproc
 1826              		@ args = 0, pretend = 0, frame = 16
 1827              		@ frame_needed = 1, uses_anonymous_args = 0
 1828              		@ link register save eliminated.
 1829 0000 80B4     		push	{r7}
 1830              	.LCFI37:
 1831              		.cfi_def_cfa_offset 4
 1832              		.cfi_offset 7, -4
 1833 0002 85B0     		sub	sp, sp, #20
 1834              	.LCFI38:
 1835              		.cfi_def_cfa_offset 24
 1836 0004 00AF     		add	r7, sp, #0
 1837              	.LCFI39:
 1838              		.cfi_def_cfa_register 7
 1839 0006 F860     		str	r0, [r7, #12]
 1840 0008 B960     		str	r1, [r7, #8]
 1841 000a 1346     		mov	r3, r2
 1842 000c FB80     		strh	r3, [r7, #6]	@ movhi
1387:Drivers/STM32F4xx_HAL_Driver/Src/stm32f4xx_hal_spi.c **** 
1388:Drivers/STM32F4xx_HAL_Driver/Src/stm32f4xx_hal_spi.c ****   /* Check Direction parameter */
1389:Drivers/STM32F4xx_HAL_Driver/Src/stm32f4xx_hal_spi.c ****   assert_param(IS_SPI_DIRECTION_2LINES_OR_1LINE(hspi->Init.Direction));
1390:Drivers/STM32F4xx_HAL_Driver/Src/stm32f4xx_hal_spi.c **** 
1391:Drivers/STM32F4xx_HAL_Driver/Src/stm32f4xx_hal_spi.c **** 
1392:Drivers/STM32F4xx_HAL_Driver/Src/stm32f4xx_hal_spi.c ****   if ((pData == NULL) || (Size == 0U))
 1843              		.loc 1 1392 6
 1844 000e BB68     		ldr	r3, [r7, #8]
 1845 0010 002B     		cmp	r3, #0
 1846 0012 02D0     		beq	.L91
 1847              		.loc 1 1392 23 discriminator 1
 1848 0014 FB88     		ldrh	r3, [r7, #6]
 1849 0016 002B     		cmp	r3, #0
 1850 0018 01D1     		bne	.L92
 1851              	.L91:
1393:Drivers/STM32F4xx_HAL_Driver/Src/stm32f4xx_hal_spi.c ****   {
1394:Drivers/STM32F4xx_HAL_Driver/Src/stm32f4xx_hal_spi.c ****     return HAL_ERROR;
 1852              		.loc 1 1394 12
 1853 001a 0123     		movs	r3, #1
 1854 001c 6AE0     		b	.L93
ARM GAS  C:\Users\16323\AppData\Local\Temp\ccbQ7VoP.s 			page 58


 1855              	.L92:
1395:Drivers/STM32F4xx_HAL_Driver/Src/stm32f4xx_hal_spi.c ****   }
1396:Drivers/STM32F4xx_HAL_Driver/Src/stm32f4xx_hal_spi.c **** 
1397:Drivers/STM32F4xx_HAL_Driver/Src/stm32f4xx_hal_spi.c ****   if (hspi->State != HAL_SPI_STATE_READY)
 1856              		.loc 1 1397 11
 1857 001e FB68     		ldr	r3, [r7, #12]
 1858 0020 93F85130 		ldrb	r3, [r3, #81]
 1859 0024 DBB2     		uxtb	r3, r3
 1860              		.loc 1 1397 6
 1861 0026 012B     		cmp	r3, #1
 1862 0028 01D0     		beq	.L94
1398:Drivers/STM32F4xx_HAL_Driver/Src/stm32f4xx_hal_spi.c ****   {
1399:Drivers/STM32F4xx_HAL_Driver/Src/stm32f4xx_hal_spi.c ****     return HAL_BUSY;
 1863              		.loc 1 1399 12
 1864 002a 0223     		movs	r3, #2
 1865 002c 62E0     		b	.L93
 1866              	.L94:
1400:Drivers/STM32F4xx_HAL_Driver/Src/stm32f4xx_hal_spi.c ****   }
1401:Drivers/STM32F4xx_HAL_Driver/Src/stm32f4xx_hal_spi.c **** 
1402:Drivers/STM32F4xx_HAL_Driver/Src/stm32f4xx_hal_spi.c ****   /* Process Locked */
1403:Drivers/STM32F4xx_HAL_Driver/Src/stm32f4xx_hal_spi.c ****   __HAL_LOCK(hspi);
 1867              		.loc 1 1403 3
 1868 002e FB68     		ldr	r3, [r7, #12]
 1869 0030 93F85030 		ldrb	r3, [r3, #80]	@ zero_extendqisi2
 1870 0034 012B     		cmp	r3, #1
 1871 0036 01D1     		bne	.L95
 1872              		.loc 1 1403 3 is_stmt 0 discriminator 1
 1873 0038 0223     		movs	r3, #2
 1874 003a 5BE0     		b	.L93
 1875              	.L95:
 1876              		.loc 1 1403 3 discriminator 2
 1877 003c FB68     		ldr	r3, [r7, #12]
 1878 003e 0122     		movs	r2, #1
 1879 0040 83F85020 		strb	r2, [r3, #80]
1404:Drivers/STM32F4xx_HAL_Driver/Src/stm32f4xx_hal_spi.c **** 
1405:Drivers/STM32F4xx_HAL_Driver/Src/stm32f4xx_hal_spi.c ****   /* Set the transaction information */
1406:Drivers/STM32F4xx_HAL_Driver/Src/stm32f4xx_hal_spi.c ****   hspi->State       = HAL_SPI_STATE_BUSY_TX;
 1880              		.loc 1 1406 21 is_stmt 1 discriminator 2
 1881 0044 FB68     		ldr	r3, [r7, #12]
 1882 0046 0322     		movs	r2, #3
 1883 0048 83F85120 		strb	r2, [r3, #81]
1407:Drivers/STM32F4xx_HAL_Driver/Src/stm32f4xx_hal_spi.c ****   hspi->ErrorCode   = HAL_SPI_ERROR_NONE;
 1884              		.loc 1 1407 21 discriminator 2
 1885 004c FB68     		ldr	r3, [r7, #12]
 1886 004e 0022     		movs	r2, #0
 1887 0050 5A65     		str	r2, [r3, #84]
1408:Drivers/STM32F4xx_HAL_Driver/Src/stm32f4xx_hal_spi.c ****   hspi->pTxBuffPtr  = (const uint8_t *)pData;
 1888              		.loc 1 1408 21 discriminator 2
 1889 0052 FB68     		ldr	r3, [r7, #12]
 1890 0054 BA68     		ldr	r2, [r7, #8]
 1891 0056 1A63     		str	r2, [r3, #48]
1409:Drivers/STM32F4xx_HAL_Driver/Src/stm32f4xx_hal_spi.c ****   hspi->TxXferSize  = Size;
 1892              		.loc 1 1409 21 discriminator 2
 1893 0058 FB68     		ldr	r3, [r7, #12]
 1894 005a FA88     		ldrh	r2, [r7, #6]	@ movhi
 1895 005c 9A86     		strh	r2, [r3, #52]	@ movhi
1410:Drivers/STM32F4xx_HAL_Driver/Src/stm32f4xx_hal_spi.c ****   hspi->TxXferCount = Size;
ARM GAS  C:\Users\16323\AppData\Local\Temp\ccbQ7VoP.s 			page 59


 1896              		.loc 1 1410 21 discriminator 2
 1897 005e FB68     		ldr	r3, [r7, #12]
 1898 0060 FA88     		ldrh	r2, [r7, #6]	@ movhi
 1899 0062 DA86     		strh	r2, [r3, #54]	@ movhi
1411:Drivers/STM32F4xx_HAL_Driver/Src/stm32f4xx_hal_spi.c **** 
1412:Drivers/STM32F4xx_HAL_Driver/Src/stm32f4xx_hal_spi.c ****   /* Init field not used in handle to zero */
1413:Drivers/STM32F4xx_HAL_Driver/Src/stm32f4xx_hal_spi.c ****   hspi->pRxBuffPtr  = (uint8_t *)NULL;
 1900              		.loc 1 1413 21 discriminator 2
 1901 0064 FB68     		ldr	r3, [r7, #12]
 1902 0066 0022     		movs	r2, #0
 1903 0068 9A63     		str	r2, [r3, #56]
1414:Drivers/STM32F4xx_HAL_Driver/Src/stm32f4xx_hal_spi.c ****   hspi->RxXferSize  = 0U;
 1904              		.loc 1 1414 21 discriminator 2
 1905 006a FB68     		ldr	r3, [r7, #12]
 1906 006c 0022     		movs	r2, #0
 1907 006e 9A87     		strh	r2, [r3, #60]	@ movhi
1415:Drivers/STM32F4xx_HAL_Driver/Src/stm32f4xx_hal_spi.c ****   hspi->RxXferCount = 0U;
 1908              		.loc 1 1415 21 discriminator 2
 1909 0070 FB68     		ldr	r3, [r7, #12]
 1910 0072 0022     		movs	r2, #0
 1911 0074 DA87     		strh	r2, [r3, #62]	@ movhi
1416:Drivers/STM32F4xx_HAL_Driver/Src/stm32f4xx_hal_spi.c ****   hspi->RxISR       = NULL;
 1912              		.loc 1 1416 21 discriminator 2
 1913 0076 FB68     		ldr	r3, [r7, #12]
 1914 0078 0022     		movs	r2, #0
 1915 007a 1A64     		str	r2, [r3, #64]
1417:Drivers/STM32F4xx_HAL_Driver/Src/stm32f4xx_hal_spi.c **** 
1418:Drivers/STM32F4xx_HAL_Driver/Src/stm32f4xx_hal_spi.c ****   /* Set the function for IT treatment */
1419:Drivers/STM32F4xx_HAL_Driver/Src/stm32f4xx_hal_spi.c ****   if (hspi->Init.DataSize > SPI_DATASIZE_8BIT)
 1916              		.loc 1 1419 17 discriminator 2
 1917 007c FB68     		ldr	r3, [r7, #12]
 1918 007e DB68     		ldr	r3, [r3, #12]
 1919              		.loc 1 1419 6 discriminator 2
 1920 0080 002B     		cmp	r3, #0
 1921 0082 03D0     		beq	.L96
1420:Drivers/STM32F4xx_HAL_Driver/Src/stm32f4xx_hal_spi.c ****   {
1421:Drivers/STM32F4xx_HAL_Driver/Src/stm32f4xx_hal_spi.c ****     hspi->TxISR = SPI_TxISR_16BIT;
 1922              		.loc 1 1421 17
 1923 0084 FB68     		ldr	r3, [r7, #12]
 1924 0086 1E4A     		ldr	r2, .L100
 1925 0088 5A64     		str	r2, [r3, #68]
 1926 008a 02E0     		b	.L97
 1927              	.L96:
1422:Drivers/STM32F4xx_HAL_Driver/Src/stm32f4xx_hal_spi.c ****   }
1423:Drivers/STM32F4xx_HAL_Driver/Src/stm32f4xx_hal_spi.c ****   else
1424:Drivers/STM32F4xx_HAL_Driver/Src/stm32f4xx_hal_spi.c ****   {
1425:Drivers/STM32F4xx_HAL_Driver/Src/stm32f4xx_hal_spi.c ****     hspi->TxISR = SPI_TxISR_8BIT;
 1928              		.loc 1 1425 17
 1929 008c FB68     		ldr	r3, [r7, #12]
 1930 008e 1D4A     		ldr	r2, .L100+4
 1931 0090 5A64     		str	r2, [r3, #68]
 1932              	.L97:
1426:Drivers/STM32F4xx_HAL_Driver/Src/stm32f4xx_hal_spi.c ****   }
1427:Drivers/STM32F4xx_HAL_Driver/Src/stm32f4xx_hal_spi.c **** 
1428:Drivers/STM32F4xx_HAL_Driver/Src/stm32f4xx_hal_spi.c ****   /* Configure communication direction : 1Line */
1429:Drivers/STM32F4xx_HAL_Driver/Src/stm32f4xx_hal_spi.c ****   if (hspi->Init.Direction == SPI_DIRECTION_1LINE)
 1933              		.loc 1 1429 17
ARM GAS  C:\Users\16323\AppData\Local\Temp\ccbQ7VoP.s 			page 60


 1934 0092 FB68     		ldr	r3, [r7, #12]
 1935 0094 9B68     		ldr	r3, [r3, #8]
 1936              		.loc 1 1429 6
 1937 0096 B3F5004F 		cmp	r3, #32768
 1938 009a 0FD1     		bne	.L98
1430:Drivers/STM32F4xx_HAL_Driver/Src/stm32f4xx_hal_spi.c ****   {
1431:Drivers/STM32F4xx_HAL_Driver/Src/stm32f4xx_hal_spi.c ****     /* Disable SPI Peripheral before set 1Line direction (BIDIOE bit) */
1432:Drivers/STM32F4xx_HAL_Driver/Src/stm32f4xx_hal_spi.c ****     __HAL_SPI_DISABLE(hspi);
 1939              		.loc 1 1432 5
 1940 009c FB68     		ldr	r3, [r7, #12]
 1941 009e 1B68     		ldr	r3, [r3]
 1942 00a0 1A68     		ldr	r2, [r3]
 1943 00a2 FB68     		ldr	r3, [r7, #12]
 1944 00a4 1B68     		ldr	r3, [r3]
 1945 00a6 22F04002 		bic	r2, r2, #64
 1946 00aa 1A60     		str	r2, [r3]
1433:Drivers/STM32F4xx_HAL_Driver/Src/stm32f4xx_hal_spi.c ****     SPI_1LINE_TX(hspi);
 1947              		.loc 1 1433 5
 1948 00ac FB68     		ldr	r3, [r7, #12]
 1949 00ae 1B68     		ldr	r3, [r3]
 1950 00b0 1A68     		ldr	r2, [r3]
 1951 00b2 FB68     		ldr	r3, [r7, #12]
 1952 00b4 1B68     		ldr	r3, [r3]
 1953 00b6 42F48042 		orr	r2, r2, #16384
 1954 00ba 1A60     		str	r2, [r3]
 1955              	.L98:
1434:Drivers/STM32F4xx_HAL_Driver/Src/stm32f4xx_hal_spi.c ****   }
1435:Drivers/STM32F4xx_HAL_Driver/Src/stm32f4xx_hal_spi.c **** 
1436:Drivers/STM32F4xx_HAL_Driver/Src/stm32f4xx_hal_spi.c **** #if (USE_SPI_CRC != 0U)
1437:Drivers/STM32F4xx_HAL_Driver/Src/stm32f4xx_hal_spi.c ****   /* Reset CRC Calculation */
1438:Drivers/STM32F4xx_HAL_Driver/Src/stm32f4xx_hal_spi.c ****   if (hspi->Init.CRCCalculation == SPI_CRCCALCULATION_ENABLE)
1439:Drivers/STM32F4xx_HAL_Driver/Src/stm32f4xx_hal_spi.c ****   {
1440:Drivers/STM32F4xx_HAL_Driver/Src/stm32f4xx_hal_spi.c ****     SPI_RESET_CRC(hspi);
1441:Drivers/STM32F4xx_HAL_Driver/Src/stm32f4xx_hal_spi.c ****   }
1442:Drivers/STM32F4xx_HAL_Driver/Src/stm32f4xx_hal_spi.c **** #endif /* USE_SPI_CRC */
1443:Drivers/STM32F4xx_HAL_Driver/Src/stm32f4xx_hal_spi.c **** 
1444:Drivers/STM32F4xx_HAL_Driver/Src/stm32f4xx_hal_spi.c ****   /* Check if the SPI is already enabled */
1445:Drivers/STM32F4xx_HAL_Driver/Src/stm32f4xx_hal_spi.c ****   if ((hspi->Instance->CR1 & SPI_CR1_SPE) != SPI_CR1_SPE)
 1956              		.loc 1 1445 12
 1957 00bc FB68     		ldr	r3, [r7, #12]
 1958 00be 1B68     		ldr	r3, [r3]
 1959              		.loc 1 1445 22
 1960 00c0 1B68     		ldr	r3, [r3]
 1961              		.loc 1 1445 28
 1962 00c2 03F04003 		and	r3, r3, #64
 1963              		.loc 1 1445 6
 1964 00c6 402B     		cmp	r3, #64
 1965 00c8 07D0     		beq	.L99
1446:Drivers/STM32F4xx_HAL_Driver/Src/stm32f4xx_hal_spi.c ****   {
1447:Drivers/STM32F4xx_HAL_Driver/Src/stm32f4xx_hal_spi.c ****     /* Enable SPI peripheral */
1448:Drivers/STM32F4xx_HAL_Driver/Src/stm32f4xx_hal_spi.c ****     __HAL_SPI_ENABLE(hspi);
 1966              		.loc 1 1448 5
 1967 00ca FB68     		ldr	r3, [r7, #12]
 1968 00cc 1B68     		ldr	r3, [r3]
 1969 00ce 1A68     		ldr	r2, [r3]
 1970 00d0 FB68     		ldr	r3, [r7, #12]
 1971 00d2 1B68     		ldr	r3, [r3]
ARM GAS  C:\Users\16323\AppData\Local\Temp\ccbQ7VoP.s 			page 61


 1972 00d4 42F04002 		orr	r2, r2, #64
 1973 00d8 1A60     		str	r2, [r3]
 1974              	.L99:
1449:Drivers/STM32F4xx_HAL_Driver/Src/stm32f4xx_hal_spi.c ****   }
1450:Drivers/STM32F4xx_HAL_Driver/Src/stm32f4xx_hal_spi.c **** 
1451:Drivers/STM32F4xx_HAL_Driver/Src/stm32f4xx_hal_spi.c ****   /* Process Unlocked */
1452:Drivers/STM32F4xx_HAL_Driver/Src/stm32f4xx_hal_spi.c ****   __HAL_UNLOCK(hspi);
 1975              		.loc 1 1452 3
 1976 00da FB68     		ldr	r3, [r7, #12]
 1977 00dc 0022     		movs	r2, #0
 1978 00de 83F85020 		strb	r2, [r3, #80]
1453:Drivers/STM32F4xx_HAL_Driver/Src/stm32f4xx_hal_spi.c ****   /* Enable TXE and ERR interrupt */
1454:Drivers/STM32F4xx_HAL_Driver/Src/stm32f4xx_hal_spi.c ****   __HAL_SPI_ENABLE_IT(hspi, (SPI_IT_TXE | SPI_IT_ERR));
 1979              		.loc 1 1454 3
 1980 00e2 FB68     		ldr	r3, [r7, #12]
 1981 00e4 1B68     		ldr	r3, [r3]
 1982 00e6 5A68     		ldr	r2, [r3, #4]
 1983 00e8 FB68     		ldr	r3, [r7, #12]
 1984 00ea 1B68     		ldr	r3, [r3]
 1985 00ec 42F0A002 		orr	r2, r2, #160
 1986 00f0 5A60     		str	r2, [r3, #4]
1455:Drivers/STM32F4xx_HAL_Driver/Src/stm32f4xx_hal_spi.c **** 
1456:Drivers/STM32F4xx_HAL_Driver/Src/stm32f4xx_hal_spi.c ****   return HAL_OK;
 1987              		.loc 1 1456 10
 1988 00f2 0023     		movs	r3, #0
 1989              	.L93:
1457:Drivers/STM32F4xx_HAL_Driver/Src/stm32f4xx_hal_spi.c **** }
 1990              		.loc 1 1457 1
 1991 00f4 1846     		mov	r0, r3
 1992 00f6 1437     		adds	r7, r7, #20
 1993              	.LCFI40:
 1994              		.cfi_def_cfa_offset 4
 1995 00f8 BD46     		mov	sp, r7
 1996              	.LCFI41:
 1997              		.cfi_def_cfa_register 13
 1998              		@ sp needed
 1999 00fa 5DF8047B 		ldr	r7, [sp], #4
 2000              	.LCFI42:
 2001              		.cfi_restore 7
 2002              		.cfi_def_cfa_offset 0
 2003 00fe 7047     		bx	lr
 2004              	.L101:
 2005              		.align	2
 2006              	.L100:
 2007 0100 00000000 		.word	SPI_TxISR_16BIT
 2008 0104 00000000 		.word	SPI_TxISR_8BIT
 2009              		.cfi_endproc
 2010              	.LFE246:
 2012              		.section	.text.HAL_SPI_Receive_IT,"ax",%progbits
 2013              		.align	1
 2014              		.global	HAL_SPI_Receive_IT
 2015              		.syntax unified
 2016              		.thumb
 2017              		.thumb_func
 2019              	HAL_SPI_Receive_IT:
 2020              	.LFB247:
1458:Drivers/STM32F4xx_HAL_Driver/Src/stm32f4xx_hal_spi.c **** 
ARM GAS  C:\Users\16323\AppData\Local\Temp\ccbQ7VoP.s 			page 62


1459:Drivers/STM32F4xx_HAL_Driver/Src/stm32f4xx_hal_spi.c **** /**
1460:Drivers/STM32F4xx_HAL_Driver/Src/stm32f4xx_hal_spi.c ****   * @brief  Receive an amount of data in non-blocking mode with Interrupt.
1461:Drivers/STM32F4xx_HAL_Driver/Src/stm32f4xx_hal_spi.c ****   * @param  hspi pointer to a SPI_HandleTypeDef structure that contains
1462:Drivers/STM32F4xx_HAL_Driver/Src/stm32f4xx_hal_spi.c ****   *               the configuration information for SPI module.
1463:Drivers/STM32F4xx_HAL_Driver/Src/stm32f4xx_hal_spi.c ****   * @param  pData pointer to data buffer
1464:Drivers/STM32F4xx_HAL_Driver/Src/stm32f4xx_hal_spi.c ****   * @param  Size amount of data to be sent
1465:Drivers/STM32F4xx_HAL_Driver/Src/stm32f4xx_hal_spi.c ****   * @retval HAL status
1466:Drivers/STM32F4xx_HAL_Driver/Src/stm32f4xx_hal_spi.c ****   */
1467:Drivers/STM32F4xx_HAL_Driver/Src/stm32f4xx_hal_spi.c **** HAL_StatusTypeDef HAL_SPI_Receive_IT(SPI_HandleTypeDef *hspi, uint8_t *pData, uint16_t Size)
1468:Drivers/STM32F4xx_HAL_Driver/Src/stm32f4xx_hal_spi.c **** {
 2021              		.loc 1 1468 1
 2022              		.cfi_startproc
 2023              		@ args = 0, pretend = 0, frame = 16
 2024              		@ frame_needed = 1, uses_anonymous_args = 0
 2025 0000 80B5     		push	{r7, lr}
 2026              	.LCFI43:
 2027              		.cfi_def_cfa_offset 8
 2028              		.cfi_offset 7, -8
 2029              		.cfi_offset 14, -4
 2030 0002 84B0     		sub	sp, sp, #16
 2031              	.LCFI44:
 2032              		.cfi_def_cfa_offset 24
 2033 0004 00AF     		add	r7, sp, #0
 2034              	.LCFI45:
 2035              		.cfi_def_cfa_register 7
 2036 0006 F860     		str	r0, [r7, #12]
 2037 0008 B960     		str	r1, [r7, #8]
 2038 000a 1346     		mov	r3, r2
 2039 000c FB80     		strh	r3, [r7, #6]	@ movhi
1469:Drivers/STM32F4xx_HAL_Driver/Src/stm32f4xx_hal_spi.c **** 
1470:Drivers/STM32F4xx_HAL_Driver/Src/stm32f4xx_hal_spi.c ****   if (hspi->State != HAL_SPI_STATE_READY)
 2040              		.loc 1 1470 11
 2041 000e FB68     		ldr	r3, [r7, #12]
 2042 0010 93F85130 		ldrb	r3, [r3, #81]
 2043 0014 DBB2     		uxtb	r3, r3
 2044              		.loc 1 1470 6
 2045 0016 012B     		cmp	r3, #1
 2046 0018 01D0     		beq	.L103
1471:Drivers/STM32F4xx_HAL_Driver/Src/stm32f4xx_hal_spi.c ****   {
1472:Drivers/STM32F4xx_HAL_Driver/Src/stm32f4xx_hal_spi.c ****     return HAL_BUSY;
 2047              		.loc 1 1472 12
 2048 001a 0223     		movs	r3, #2
 2049 001c 7FE0     		b	.L104
 2050              	.L103:
1473:Drivers/STM32F4xx_HAL_Driver/Src/stm32f4xx_hal_spi.c ****   }
1474:Drivers/STM32F4xx_HAL_Driver/Src/stm32f4xx_hal_spi.c **** 
1475:Drivers/STM32F4xx_HAL_Driver/Src/stm32f4xx_hal_spi.c ****   if ((hspi->Init.Direction == SPI_DIRECTION_2LINES) && (hspi->Init.Mode == SPI_MODE_MASTER))
 2051              		.loc 1 1475 18
 2052 001e FB68     		ldr	r3, [r7, #12]
 2053 0020 9B68     		ldr	r3, [r3, #8]
 2054              		.loc 1 1475 6
 2055 0022 002B     		cmp	r3, #0
 2056 0024 10D1     		bne	.L105
 2057              		.loc 1 1475 68 discriminator 1
 2058 0026 FB68     		ldr	r3, [r7, #12]
 2059 0028 5B68     		ldr	r3, [r3, #4]
 2060              		.loc 1 1475 54 discriminator 1
ARM GAS  C:\Users\16323\AppData\Local\Temp\ccbQ7VoP.s 			page 63


 2061 002a B3F5827F 		cmp	r3, #260
 2062 002e 0BD1     		bne	.L105
1476:Drivers/STM32F4xx_HAL_Driver/Src/stm32f4xx_hal_spi.c ****   {
1477:Drivers/STM32F4xx_HAL_Driver/Src/stm32f4xx_hal_spi.c ****     hspi->State = HAL_SPI_STATE_BUSY_RX;
 2063              		.loc 1 1477 17
 2064 0030 FB68     		ldr	r3, [r7, #12]
 2065 0032 0422     		movs	r2, #4
 2066 0034 83F85120 		strb	r2, [r3, #81]
1478:Drivers/STM32F4xx_HAL_Driver/Src/stm32f4xx_hal_spi.c ****     /* Call transmit-receive function to send Dummy data on Tx line and generate clock on CLK line 
1479:Drivers/STM32F4xx_HAL_Driver/Src/stm32f4xx_hal_spi.c ****     return HAL_SPI_TransmitReceive_IT(hspi, pData, pData, Size);
 2067              		.loc 1 1479 12
 2068 0038 FB88     		ldrh	r3, [r7, #6]
 2069 003a BA68     		ldr	r2, [r7, #8]
 2070 003c B968     		ldr	r1, [r7, #8]
 2071 003e F868     		ldr	r0, [r7, #12]
 2072 0040 FFF7FEFF 		bl	HAL_SPI_TransmitReceive_IT
 2073 0044 0346     		mov	r3, r0
 2074 0046 6AE0     		b	.L104
 2075              	.L105:
1480:Drivers/STM32F4xx_HAL_Driver/Src/stm32f4xx_hal_spi.c ****   }
1481:Drivers/STM32F4xx_HAL_Driver/Src/stm32f4xx_hal_spi.c **** 
1482:Drivers/STM32F4xx_HAL_Driver/Src/stm32f4xx_hal_spi.c **** 
1483:Drivers/STM32F4xx_HAL_Driver/Src/stm32f4xx_hal_spi.c ****   if ((pData == NULL) || (Size == 0U))
 2076              		.loc 1 1483 6
 2077 0048 BB68     		ldr	r3, [r7, #8]
 2078 004a 002B     		cmp	r3, #0
 2079 004c 02D0     		beq	.L106
 2080              		.loc 1 1483 23 discriminator 1
 2081 004e FB88     		ldrh	r3, [r7, #6]
 2082 0050 002B     		cmp	r3, #0
 2083 0052 01D1     		bne	.L107
 2084              	.L106:
1484:Drivers/STM32F4xx_HAL_Driver/Src/stm32f4xx_hal_spi.c ****   {
1485:Drivers/STM32F4xx_HAL_Driver/Src/stm32f4xx_hal_spi.c ****     return HAL_ERROR;
 2085              		.loc 1 1485 12
 2086 0054 0123     		movs	r3, #1
 2087 0056 62E0     		b	.L104
 2088              	.L107:
1486:Drivers/STM32F4xx_HAL_Driver/Src/stm32f4xx_hal_spi.c ****   }
1487:Drivers/STM32F4xx_HAL_Driver/Src/stm32f4xx_hal_spi.c **** 
1488:Drivers/STM32F4xx_HAL_Driver/Src/stm32f4xx_hal_spi.c ****   /* Process Locked */
1489:Drivers/STM32F4xx_HAL_Driver/Src/stm32f4xx_hal_spi.c ****   __HAL_LOCK(hspi);
 2089              		.loc 1 1489 3
 2090 0058 FB68     		ldr	r3, [r7, #12]
 2091 005a 93F85030 		ldrb	r3, [r3, #80]	@ zero_extendqisi2
 2092 005e 012B     		cmp	r3, #1
 2093 0060 01D1     		bne	.L108
 2094              		.loc 1 1489 3 is_stmt 0 discriminator 1
 2095 0062 0223     		movs	r3, #2
 2096 0064 5BE0     		b	.L104
 2097              	.L108:
 2098              		.loc 1 1489 3 discriminator 2
 2099 0066 FB68     		ldr	r3, [r7, #12]
 2100 0068 0122     		movs	r2, #1
 2101 006a 83F85020 		strb	r2, [r3, #80]
1490:Drivers/STM32F4xx_HAL_Driver/Src/stm32f4xx_hal_spi.c **** 
1491:Drivers/STM32F4xx_HAL_Driver/Src/stm32f4xx_hal_spi.c ****   /* Set the transaction information */
ARM GAS  C:\Users\16323\AppData\Local\Temp\ccbQ7VoP.s 			page 64


1492:Drivers/STM32F4xx_HAL_Driver/Src/stm32f4xx_hal_spi.c ****   hspi->State       = HAL_SPI_STATE_BUSY_RX;
 2102              		.loc 1 1492 21 is_stmt 1 discriminator 2
 2103 006e FB68     		ldr	r3, [r7, #12]
 2104 0070 0422     		movs	r2, #4
 2105 0072 83F85120 		strb	r2, [r3, #81]
1493:Drivers/STM32F4xx_HAL_Driver/Src/stm32f4xx_hal_spi.c ****   hspi->ErrorCode   = HAL_SPI_ERROR_NONE;
 2106              		.loc 1 1493 21 discriminator 2
 2107 0076 FB68     		ldr	r3, [r7, #12]
 2108 0078 0022     		movs	r2, #0
 2109 007a 5A65     		str	r2, [r3, #84]
1494:Drivers/STM32F4xx_HAL_Driver/Src/stm32f4xx_hal_spi.c ****   hspi->pRxBuffPtr  = (uint8_t *)pData;
 2110              		.loc 1 1494 21 discriminator 2
 2111 007c FB68     		ldr	r3, [r7, #12]
 2112 007e BA68     		ldr	r2, [r7, #8]
 2113 0080 9A63     		str	r2, [r3, #56]
1495:Drivers/STM32F4xx_HAL_Driver/Src/stm32f4xx_hal_spi.c ****   hspi->RxXferSize  = Size;
 2114              		.loc 1 1495 21 discriminator 2
 2115 0082 FB68     		ldr	r3, [r7, #12]
 2116 0084 FA88     		ldrh	r2, [r7, #6]	@ movhi
 2117 0086 9A87     		strh	r2, [r3, #60]	@ movhi
1496:Drivers/STM32F4xx_HAL_Driver/Src/stm32f4xx_hal_spi.c ****   hspi->RxXferCount = Size;
 2118              		.loc 1 1496 21 discriminator 2
 2119 0088 FB68     		ldr	r3, [r7, #12]
 2120 008a FA88     		ldrh	r2, [r7, #6]	@ movhi
 2121 008c DA87     		strh	r2, [r3, #62]	@ movhi
1497:Drivers/STM32F4xx_HAL_Driver/Src/stm32f4xx_hal_spi.c **** 
1498:Drivers/STM32F4xx_HAL_Driver/Src/stm32f4xx_hal_spi.c ****   /* Init field not used in handle to zero */
1499:Drivers/STM32F4xx_HAL_Driver/Src/stm32f4xx_hal_spi.c ****   hspi->pTxBuffPtr  = (uint8_t *)NULL;
 2122              		.loc 1 1499 21 discriminator 2
 2123 008e FB68     		ldr	r3, [r7, #12]
 2124 0090 0022     		movs	r2, #0
 2125 0092 1A63     		str	r2, [r3, #48]
1500:Drivers/STM32F4xx_HAL_Driver/Src/stm32f4xx_hal_spi.c ****   hspi->TxXferSize  = 0U;
 2126              		.loc 1 1500 21 discriminator 2
 2127 0094 FB68     		ldr	r3, [r7, #12]
 2128 0096 0022     		movs	r2, #0
 2129 0098 9A86     		strh	r2, [r3, #52]	@ movhi
1501:Drivers/STM32F4xx_HAL_Driver/Src/stm32f4xx_hal_spi.c ****   hspi->TxXferCount = 0U;
 2130              		.loc 1 1501 21 discriminator 2
 2131 009a FB68     		ldr	r3, [r7, #12]
 2132 009c 0022     		movs	r2, #0
 2133 009e DA86     		strh	r2, [r3, #54]	@ movhi
1502:Drivers/STM32F4xx_HAL_Driver/Src/stm32f4xx_hal_spi.c ****   hspi->TxISR       = NULL;
 2134              		.loc 1 1502 21 discriminator 2
 2135 00a0 FB68     		ldr	r3, [r7, #12]
 2136 00a2 0022     		movs	r2, #0
 2137 00a4 5A64     		str	r2, [r3, #68]
1503:Drivers/STM32F4xx_HAL_Driver/Src/stm32f4xx_hal_spi.c **** 
1504:Drivers/STM32F4xx_HAL_Driver/Src/stm32f4xx_hal_spi.c ****   /* Set the function for IT treatment */
1505:Drivers/STM32F4xx_HAL_Driver/Src/stm32f4xx_hal_spi.c ****   if (hspi->Init.DataSize > SPI_DATASIZE_8BIT)
 2138              		.loc 1 1505 17 discriminator 2
 2139 00a6 FB68     		ldr	r3, [r7, #12]
 2140 00a8 DB68     		ldr	r3, [r3, #12]
 2141              		.loc 1 1505 6 discriminator 2
 2142 00aa 002B     		cmp	r3, #0
 2143 00ac 03D0     		beq	.L109
1506:Drivers/STM32F4xx_HAL_Driver/Src/stm32f4xx_hal_spi.c ****   {
ARM GAS  C:\Users\16323\AppData\Local\Temp\ccbQ7VoP.s 			page 65


1507:Drivers/STM32F4xx_HAL_Driver/Src/stm32f4xx_hal_spi.c ****     hspi->RxISR = SPI_RxISR_16BIT;
 2144              		.loc 1 1507 17
 2145 00ae FB68     		ldr	r3, [r7, #12]
 2146 00b0 1D4A     		ldr	r2, .L113
 2147 00b2 1A64     		str	r2, [r3, #64]
 2148 00b4 02E0     		b	.L110
 2149              	.L109:
1508:Drivers/STM32F4xx_HAL_Driver/Src/stm32f4xx_hal_spi.c ****   }
1509:Drivers/STM32F4xx_HAL_Driver/Src/stm32f4xx_hal_spi.c ****   else
1510:Drivers/STM32F4xx_HAL_Driver/Src/stm32f4xx_hal_spi.c ****   {
1511:Drivers/STM32F4xx_HAL_Driver/Src/stm32f4xx_hal_spi.c ****     hspi->RxISR = SPI_RxISR_8BIT;
 2150              		.loc 1 1511 17
 2151 00b6 FB68     		ldr	r3, [r7, #12]
 2152 00b8 1C4A     		ldr	r2, .L113+4
 2153 00ba 1A64     		str	r2, [r3, #64]
 2154              	.L110:
1512:Drivers/STM32F4xx_HAL_Driver/Src/stm32f4xx_hal_spi.c ****   }
1513:Drivers/STM32F4xx_HAL_Driver/Src/stm32f4xx_hal_spi.c **** 
1514:Drivers/STM32F4xx_HAL_Driver/Src/stm32f4xx_hal_spi.c ****   /* Configure communication direction : 1Line */
1515:Drivers/STM32F4xx_HAL_Driver/Src/stm32f4xx_hal_spi.c ****   if (hspi->Init.Direction == SPI_DIRECTION_1LINE)
 2155              		.loc 1 1515 17
 2156 00bc FB68     		ldr	r3, [r7, #12]
 2157 00be 9B68     		ldr	r3, [r3, #8]
 2158              		.loc 1 1515 6
 2159 00c0 B3F5004F 		cmp	r3, #32768
 2160 00c4 0FD1     		bne	.L111
1516:Drivers/STM32F4xx_HAL_Driver/Src/stm32f4xx_hal_spi.c ****   {
1517:Drivers/STM32F4xx_HAL_Driver/Src/stm32f4xx_hal_spi.c ****     /* Disable SPI Peripheral before set 1Line direction (BIDIOE bit) */
1518:Drivers/STM32F4xx_HAL_Driver/Src/stm32f4xx_hal_spi.c ****     __HAL_SPI_DISABLE(hspi);
 2161              		.loc 1 1518 5
 2162 00c6 FB68     		ldr	r3, [r7, #12]
 2163 00c8 1B68     		ldr	r3, [r3]
 2164 00ca 1A68     		ldr	r2, [r3]
 2165 00cc FB68     		ldr	r3, [r7, #12]
 2166 00ce 1B68     		ldr	r3, [r3]
 2167 00d0 22F04002 		bic	r2, r2, #64
 2168 00d4 1A60     		str	r2, [r3]
1519:Drivers/STM32F4xx_HAL_Driver/Src/stm32f4xx_hal_spi.c ****     SPI_1LINE_RX(hspi);
 2169              		.loc 1 1519 5
 2170 00d6 FB68     		ldr	r3, [r7, #12]
 2171 00d8 1B68     		ldr	r3, [r3]
 2172 00da 1A68     		ldr	r2, [r3]
 2173 00dc FB68     		ldr	r3, [r7, #12]
 2174 00de 1B68     		ldr	r3, [r3]
 2175 00e0 22F48042 		bic	r2, r2, #16384
 2176 00e4 1A60     		str	r2, [r3]
 2177              	.L111:
1520:Drivers/STM32F4xx_HAL_Driver/Src/stm32f4xx_hal_spi.c ****   }
1521:Drivers/STM32F4xx_HAL_Driver/Src/stm32f4xx_hal_spi.c **** 
1522:Drivers/STM32F4xx_HAL_Driver/Src/stm32f4xx_hal_spi.c **** #if (USE_SPI_CRC != 0U)
1523:Drivers/STM32F4xx_HAL_Driver/Src/stm32f4xx_hal_spi.c ****   /* Reset CRC Calculation */
1524:Drivers/STM32F4xx_HAL_Driver/Src/stm32f4xx_hal_spi.c ****   if (hspi->Init.CRCCalculation == SPI_CRCCALCULATION_ENABLE)
1525:Drivers/STM32F4xx_HAL_Driver/Src/stm32f4xx_hal_spi.c ****   {
1526:Drivers/STM32F4xx_HAL_Driver/Src/stm32f4xx_hal_spi.c ****     SPI_RESET_CRC(hspi);
1527:Drivers/STM32F4xx_HAL_Driver/Src/stm32f4xx_hal_spi.c ****   }
1528:Drivers/STM32F4xx_HAL_Driver/Src/stm32f4xx_hal_spi.c **** #endif /* USE_SPI_CRC */
1529:Drivers/STM32F4xx_HAL_Driver/Src/stm32f4xx_hal_spi.c **** 
ARM GAS  C:\Users\16323\AppData\Local\Temp\ccbQ7VoP.s 			page 66


1530:Drivers/STM32F4xx_HAL_Driver/Src/stm32f4xx_hal_spi.c ****   /* Note : The SPI must be enabled after unlocking current process
1531:Drivers/STM32F4xx_HAL_Driver/Src/stm32f4xx_hal_spi.c ****             to avoid the risk of SPI interrupt handle execution before current
1532:Drivers/STM32F4xx_HAL_Driver/Src/stm32f4xx_hal_spi.c ****             process unlock */
1533:Drivers/STM32F4xx_HAL_Driver/Src/stm32f4xx_hal_spi.c **** 
1534:Drivers/STM32F4xx_HAL_Driver/Src/stm32f4xx_hal_spi.c ****   /* Check if the SPI is already enabled */
1535:Drivers/STM32F4xx_HAL_Driver/Src/stm32f4xx_hal_spi.c ****   if ((hspi->Instance->CR1 & SPI_CR1_SPE) != SPI_CR1_SPE)
 2178              		.loc 1 1535 12
 2179 00e6 FB68     		ldr	r3, [r7, #12]
 2180 00e8 1B68     		ldr	r3, [r3]
 2181              		.loc 1 1535 22
 2182 00ea 1B68     		ldr	r3, [r3]
 2183              		.loc 1 1535 28
 2184 00ec 03F04003 		and	r3, r3, #64
 2185              		.loc 1 1535 6
 2186 00f0 402B     		cmp	r3, #64
 2187 00f2 07D0     		beq	.L112
1536:Drivers/STM32F4xx_HAL_Driver/Src/stm32f4xx_hal_spi.c ****   {
1537:Drivers/STM32F4xx_HAL_Driver/Src/stm32f4xx_hal_spi.c ****     /* Enable SPI peripheral */
1538:Drivers/STM32F4xx_HAL_Driver/Src/stm32f4xx_hal_spi.c ****     __HAL_SPI_ENABLE(hspi);
 2188              		.loc 1 1538 5
 2189 00f4 FB68     		ldr	r3, [r7, #12]
 2190 00f6 1B68     		ldr	r3, [r3]
 2191 00f8 1A68     		ldr	r2, [r3]
 2192 00fa FB68     		ldr	r3, [r7, #12]
 2193 00fc 1B68     		ldr	r3, [r3]
 2194 00fe 42F04002 		orr	r2, r2, #64
 2195 0102 1A60     		str	r2, [r3]
 2196              	.L112:
1539:Drivers/STM32F4xx_HAL_Driver/Src/stm32f4xx_hal_spi.c ****   }
1540:Drivers/STM32F4xx_HAL_Driver/Src/stm32f4xx_hal_spi.c **** 
1541:Drivers/STM32F4xx_HAL_Driver/Src/stm32f4xx_hal_spi.c ****   /* Process Unlocked */
1542:Drivers/STM32F4xx_HAL_Driver/Src/stm32f4xx_hal_spi.c ****   __HAL_UNLOCK(hspi);
 2197              		.loc 1 1542 3
 2198 0104 FB68     		ldr	r3, [r7, #12]
 2199 0106 0022     		movs	r2, #0
 2200 0108 83F85020 		strb	r2, [r3, #80]
1543:Drivers/STM32F4xx_HAL_Driver/Src/stm32f4xx_hal_spi.c ****   /* Enable RXNE and ERR interrupt */
1544:Drivers/STM32F4xx_HAL_Driver/Src/stm32f4xx_hal_spi.c ****   __HAL_SPI_ENABLE_IT(hspi, (SPI_IT_RXNE | SPI_IT_ERR));
 2201              		.loc 1 1544 3
 2202 010c FB68     		ldr	r3, [r7, #12]
 2203 010e 1B68     		ldr	r3, [r3]
 2204 0110 5A68     		ldr	r2, [r3, #4]
 2205 0112 FB68     		ldr	r3, [r7, #12]
 2206 0114 1B68     		ldr	r3, [r3]
 2207 0116 42F06002 		orr	r2, r2, #96
 2208 011a 5A60     		str	r2, [r3, #4]
1545:Drivers/STM32F4xx_HAL_Driver/Src/stm32f4xx_hal_spi.c **** 
1546:Drivers/STM32F4xx_HAL_Driver/Src/stm32f4xx_hal_spi.c ****   return HAL_OK;
 2209              		.loc 1 1546 10
 2210 011c 0023     		movs	r3, #0
 2211              	.L104:
1547:Drivers/STM32F4xx_HAL_Driver/Src/stm32f4xx_hal_spi.c **** }
 2212              		.loc 1 1547 1
 2213 011e 1846     		mov	r0, r3
 2214 0120 1037     		adds	r7, r7, #16
 2215              	.LCFI46:
 2216              		.cfi_def_cfa_offset 8
ARM GAS  C:\Users\16323\AppData\Local\Temp\ccbQ7VoP.s 			page 67


 2217 0122 BD46     		mov	sp, r7
 2218              	.LCFI47:
 2219              		.cfi_def_cfa_register 13
 2220              		@ sp needed
 2221 0124 80BD     		pop	{r7, pc}
 2222              	.L114:
 2223 0126 00BF     		.align	2
 2224              	.L113:
 2225 0128 00000000 		.word	SPI_RxISR_16BIT
 2226 012c 00000000 		.word	SPI_RxISR_8BIT
 2227              		.cfi_endproc
 2228              	.LFE247:
 2230              		.section	.text.HAL_SPI_TransmitReceive_IT,"ax",%progbits
 2231              		.align	1
 2232              		.global	HAL_SPI_TransmitReceive_IT
 2233              		.syntax unified
 2234              		.thumb
 2235              		.thumb_func
 2237              	HAL_SPI_TransmitReceive_IT:
 2238              	.LFB248:
1548:Drivers/STM32F4xx_HAL_Driver/Src/stm32f4xx_hal_spi.c **** 
1549:Drivers/STM32F4xx_HAL_Driver/Src/stm32f4xx_hal_spi.c **** /**
1550:Drivers/STM32F4xx_HAL_Driver/Src/stm32f4xx_hal_spi.c ****   * @brief  Transmit and Receive an amount of data in non-blocking mode with Interrupt.
1551:Drivers/STM32F4xx_HAL_Driver/Src/stm32f4xx_hal_spi.c ****   * @param  hspi pointer to a SPI_HandleTypeDef structure that contains
1552:Drivers/STM32F4xx_HAL_Driver/Src/stm32f4xx_hal_spi.c ****   *               the configuration information for SPI module.
1553:Drivers/STM32F4xx_HAL_Driver/Src/stm32f4xx_hal_spi.c ****   * @param  pTxData pointer to transmission data buffer
1554:Drivers/STM32F4xx_HAL_Driver/Src/stm32f4xx_hal_spi.c ****   * @param  pRxData pointer to reception data buffer
1555:Drivers/STM32F4xx_HAL_Driver/Src/stm32f4xx_hal_spi.c ****   * @param  Size amount of data to be sent and received
1556:Drivers/STM32F4xx_HAL_Driver/Src/stm32f4xx_hal_spi.c ****   * @retval HAL status
1557:Drivers/STM32F4xx_HAL_Driver/Src/stm32f4xx_hal_spi.c ****   */
1558:Drivers/STM32F4xx_HAL_Driver/Src/stm32f4xx_hal_spi.c **** HAL_StatusTypeDef HAL_SPI_TransmitReceive_IT(SPI_HandleTypeDef *hspi, const uint8_t *pTxData, uint8
1559:Drivers/STM32F4xx_HAL_Driver/Src/stm32f4xx_hal_spi.c ****                                              uint16_t Size)
1560:Drivers/STM32F4xx_HAL_Driver/Src/stm32f4xx_hal_spi.c **** {
 2239              		.loc 1 1560 1
 2240              		.cfi_startproc
 2241              		@ args = 0, pretend = 0, frame = 24
 2242              		@ frame_needed = 1, uses_anonymous_args = 0
 2243              		@ link register save eliminated.
 2244 0000 80B4     		push	{r7}
 2245              	.LCFI48:
 2246              		.cfi_def_cfa_offset 4
 2247              		.cfi_offset 7, -4
 2248 0002 87B0     		sub	sp, sp, #28
 2249              	.LCFI49:
 2250              		.cfi_def_cfa_offset 32
 2251 0004 00AF     		add	r7, sp, #0
 2252              	.LCFI50:
 2253              		.cfi_def_cfa_register 7
 2254 0006 F860     		str	r0, [r7, #12]
 2255 0008 B960     		str	r1, [r7, #8]
 2256 000a 7A60     		str	r2, [r7, #4]
 2257 000c 7B80     		strh	r3, [r7, #2]	@ movhi
1561:Drivers/STM32F4xx_HAL_Driver/Src/stm32f4xx_hal_spi.c ****   uint32_t             tmp_mode;
1562:Drivers/STM32F4xx_HAL_Driver/Src/stm32f4xx_hal_spi.c ****   HAL_SPI_StateTypeDef tmp_state;
1563:Drivers/STM32F4xx_HAL_Driver/Src/stm32f4xx_hal_spi.c **** 
1564:Drivers/STM32F4xx_HAL_Driver/Src/stm32f4xx_hal_spi.c ****   /* Check Direction parameter */
1565:Drivers/STM32F4xx_HAL_Driver/Src/stm32f4xx_hal_spi.c ****   assert_param(IS_SPI_DIRECTION_2LINES(hspi->Init.Direction));
ARM GAS  C:\Users\16323\AppData\Local\Temp\ccbQ7VoP.s 			page 68


1566:Drivers/STM32F4xx_HAL_Driver/Src/stm32f4xx_hal_spi.c **** 
1567:Drivers/STM32F4xx_HAL_Driver/Src/stm32f4xx_hal_spi.c ****   /* Init temporary variables */
1568:Drivers/STM32F4xx_HAL_Driver/Src/stm32f4xx_hal_spi.c ****   tmp_state           = hspi->State;
 2258              		.loc 1 1568 23
 2259 000e FB68     		ldr	r3, [r7, #12]
 2260 0010 93F85130 		ldrb	r3, [r3, #81]
 2261 0014 FB75     		strb	r3, [r7, #23]
1569:Drivers/STM32F4xx_HAL_Driver/Src/stm32f4xx_hal_spi.c ****   tmp_mode            = hspi->Init.Mode;
 2262              		.loc 1 1569 23
 2263 0016 FB68     		ldr	r3, [r7, #12]
 2264 0018 5B68     		ldr	r3, [r3, #4]
 2265 001a 3B61     		str	r3, [r7, #16]
1570:Drivers/STM32F4xx_HAL_Driver/Src/stm32f4xx_hal_spi.c **** 
1571:Drivers/STM32F4xx_HAL_Driver/Src/stm32f4xx_hal_spi.c ****   if (!((tmp_state == HAL_SPI_STATE_READY) || \
 2266              		.loc 1 1571 6
 2267 001c FB7D     		ldrb	r3, [r7, #23]	@ zero_extendqisi2
 2268 001e 012B     		cmp	r3, #1
 2269 0020 0CD0     		beq	.L116
 2270              		.loc 1 1571 7 discriminator 1
 2271 0022 3B69     		ldr	r3, [r7, #16]
 2272 0024 B3F5827F 		cmp	r3, #260
 2273 0028 06D1     		bne	.L117
1572:Drivers/STM32F4xx_HAL_Driver/Src/stm32f4xx_hal_spi.c ****         ((tmp_mode == SPI_MODE_MASTER) && (hspi->Init.Direction == SPI_DIRECTION_2LINES) && (tmp_st
 2274              		.loc 1 1572 54
 2275 002a FB68     		ldr	r3, [r7, #12]
 2276 002c 9B68     		ldr	r3, [r3, #8]
 2277              		.loc 1 1572 40
 2278 002e 002B     		cmp	r3, #0
 2279 0030 02D1     		bne	.L117
 2280              		.loc 1 1572 90 discriminator 1
 2281 0032 FB7D     		ldrb	r3, [r7, #23]	@ zero_extendqisi2
 2282 0034 042B     		cmp	r3, #4
 2283 0036 01D0     		beq	.L116
 2284              	.L117:
1573:Drivers/STM32F4xx_HAL_Driver/Src/stm32f4xx_hal_spi.c ****   {
1574:Drivers/STM32F4xx_HAL_Driver/Src/stm32f4xx_hal_spi.c ****     return HAL_BUSY;
 2285              		.loc 1 1574 12
 2286 0038 0223     		movs	r3, #2
 2287 003a 61E0     		b	.L118
 2288              	.L116:
1575:Drivers/STM32F4xx_HAL_Driver/Src/stm32f4xx_hal_spi.c ****   }
1576:Drivers/STM32F4xx_HAL_Driver/Src/stm32f4xx_hal_spi.c **** 
1577:Drivers/STM32F4xx_HAL_Driver/Src/stm32f4xx_hal_spi.c ****   if ((pTxData == NULL) || (pRxData == NULL) || (Size == 0U))
 2289              		.loc 1 1577 6
 2290 003c BB68     		ldr	r3, [r7, #8]
 2291 003e 002B     		cmp	r3, #0
 2292 0040 05D0     		beq	.L119
 2293              		.loc 1 1577 25 discriminator 1
 2294 0042 7B68     		ldr	r3, [r7, #4]
 2295 0044 002B     		cmp	r3, #0
 2296 0046 02D0     		beq	.L119
 2297              		.loc 1 1577 46 discriminator 2
 2298 0048 7B88     		ldrh	r3, [r7, #2]
 2299 004a 002B     		cmp	r3, #0
 2300 004c 01D1     		bne	.L120
 2301              	.L119:
1578:Drivers/STM32F4xx_HAL_Driver/Src/stm32f4xx_hal_spi.c ****   {
ARM GAS  C:\Users\16323\AppData\Local\Temp\ccbQ7VoP.s 			page 69


1579:Drivers/STM32F4xx_HAL_Driver/Src/stm32f4xx_hal_spi.c ****     return HAL_ERROR;
 2302              		.loc 1 1579 12
 2303 004e 0123     		movs	r3, #1
 2304 0050 56E0     		b	.L118
 2305              	.L120:
1580:Drivers/STM32F4xx_HAL_Driver/Src/stm32f4xx_hal_spi.c ****   }
1581:Drivers/STM32F4xx_HAL_Driver/Src/stm32f4xx_hal_spi.c **** 
1582:Drivers/STM32F4xx_HAL_Driver/Src/stm32f4xx_hal_spi.c ****   /* Process locked */
1583:Drivers/STM32F4xx_HAL_Driver/Src/stm32f4xx_hal_spi.c ****   __HAL_LOCK(hspi);
 2306              		.loc 1 1583 3
 2307 0052 FB68     		ldr	r3, [r7, #12]
 2308 0054 93F85030 		ldrb	r3, [r3, #80]	@ zero_extendqisi2
 2309 0058 012B     		cmp	r3, #1
 2310 005a 01D1     		bne	.L121
 2311              		.loc 1 1583 3 is_stmt 0 discriminator 1
 2312 005c 0223     		movs	r3, #2
 2313 005e 4FE0     		b	.L118
 2314              	.L121:
 2315              		.loc 1 1583 3 discriminator 2
 2316 0060 FB68     		ldr	r3, [r7, #12]
 2317 0062 0122     		movs	r2, #1
 2318 0064 83F85020 		strb	r2, [r3, #80]
1584:Drivers/STM32F4xx_HAL_Driver/Src/stm32f4xx_hal_spi.c **** 
1585:Drivers/STM32F4xx_HAL_Driver/Src/stm32f4xx_hal_spi.c ****   /* Don't overwrite in case of HAL_SPI_STATE_BUSY_RX */
1586:Drivers/STM32F4xx_HAL_Driver/Src/stm32f4xx_hal_spi.c ****   if (hspi->State != HAL_SPI_STATE_BUSY_RX)
 2319              		.loc 1 1586 11 is_stmt 1 discriminator 2
 2320 0068 FB68     		ldr	r3, [r7, #12]
 2321 006a 93F85130 		ldrb	r3, [r3, #81]
 2322 006e DBB2     		uxtb	r3, r3
 2323              		.loc 1 1586 6 discriminator 2
 2324 0070 042B     		cmp	r3, #4
 2325 0072 03D0     		beq	.L122
1587:Drivers/STM32F4xx_HAL_Driver/Src/stm32f4xx_hal_spi.c ****   {
1588:Drivers/STM32F4xx_HAL_Driver/Src/stm32f4xx_hal_spi.c ****     hspi->State = HAL_SPI_STATE_BUSY_TX_RX;
 2326              		.loc 1 1588 17
 2327 0074 FB68     		ldr	r3, [r7, #12]
 2328 0076 0522     		movs	r2, #5
 2329 0078 83F85120 		strb	r2, [r3, #81]
 2330              	.L122:
1589:Drivers/STM32F4xx_HAL_Driver/Src/stm32f4xx_hal_spi.c ****   }
1590:Drivers/STM32F4xx_HAL_Driver/Src/stm32f4xx_hal_spi.c **** 
1591:Drivers/STM32F4xx_HAL_Driver/Src/stm32f4xx_hal_spi.c ****   /* Set the transaction information */
1592:Drivers/STM32F4xx_HAL_Driver/Src/stm32f4xx_hal_spi.c ****   hspi->ErrorCode   = HAL_SPI_ERROR_NONE;
 2331              		.loc 1 1592 21
 2332 007c FB68     		ldr	r3, [r7, #12]
 2333 007e 0022     		movs	r2, #0
 2334 0080 5A65     		str	r2, [r3, #84]
1593:Drivers/STM32F4xx_HAL_Driver/Src/stm32f4xx_hal_spi.c ****   hspi->pTxBuffPtr  = (const uint8_t *)pTxData;
 2335              		.loc 1 1593 21
 2336 0082 FB68     		ldr	r3, [r7, #12]
 2337 0084 BA68     		ldr	r2, [r7, #8]
 2338 0086 1A63     		str	r2, [r3, #48]
1594:Drivers/STM32F4xx_HAL_Driver/Src/stm32f4xx_hal_spi.c ****   hspi->TxXferSize  = Size;
 2339              		.loc 1 1594 21
 2340 0088 FB68     		ldr	r3, [r7, #12]
 2341 008a 7A88     		ldrh	r2, [r7, #2]	@ movhi
 2342 008c 9A86     		strh	r2, [r3, #52]	@ movhi
ARM GAS  C:\Users\16323\AppData\Local\Temp\ccbQ7VoP.s 			page 70


1595:Drivers/STM32F4xx_HAL_Driver/Src/stm32f4xx_hal_spi.c ****   hspi->TxXferCount = Size;
 2343              		.loc 1 1595 21
 2344 008e FB68     		ldr	r3, [r7, #12]
 2345 0090 7A88     		ldrh	r2, [r7, #2]	@ movhi
 2346 0092 DA86     		strh	r2, [r3, #54]	@ movhi
1596:Drivers/STM32F4xx_HAL_Driver/Src/stm32f4xx_hal_spi.c ****   hspi->pRxBuffPtr  = (uint8_t *)pRxData;
 2347              		.loc 1 1596 21
 2348 0094 FB68     		ldr	r3, [r7, #12]
 2349 0096 7A68     		ldr	r2, [r7, #4]
 2350 0098 9A63     		str	r2, [r3, #56]
1597:Drivers/STM32F4xx_HAL_Driver/Src/stm32f4xx_hal_spi.c ****   hspi->RxXferSize  = Size;
 2351              		.loc 1 1597 21
 2352 009a FB68     		ldr	r3, [r7, #12]
 2353 009c 7A88     		ldrh	r2, [r7, #2]	@ movhi
 2354 009e 9A87     		strh	r2, [r3, #60]	@ movhi
1598:Drivers/STM32F4xx_HAL_Driver/Src/stm32f4xx_hal_spi.c ****   hspi->RxXferCount = Size;
 2355              		.loc 1 1598 21
 2356 00a0 FB68     		ldr	r3, [r7, #12]
 2357 00a2 7A88     		ldrh	r2, [r7, #2]	@ movhi
 2358 00a4 DA87     		strh	r2, [r3, #62]	@ movhi
1599:Drivers/STM32F4xx_HAL_Driver/Src/stm32f4xx_hal_spi.c **** 
1600:Drivers/STM32F4xx_HAL_Driver/Src/stm32f4xx_hal_spi.c ****   /* Set the function for IT treatment */
1601:Drivers/STM32F4xx_HAL_Driver/Src/stm32f4xx_hal_spi.c ****   if (hspi->Init.DataSize > SPI_DATASIZE_8BIT)
 2359              		.loc 1 1601 17
 2360 00a6 FB68     		ldr	r3, [r7, #12]
 2361 00a8 DB68     		ldr	r3, [r3, #12]
 2362              		.loc 1 1601 6
 2363 00aa 002B     		cmp	r3, #0
 2364 00ac 06D0     		beq	.L123
1602:Drivers/STM32F4xx_HAL_Driver/Src/stm32f4xx_hal_spi.c ****   {
1603:Drivers/STM32F4xx_HAL_Driver/Src/stm32f4xx_hal_spi.c ****     hspi->RxISR     = SPI_2linesRxISR_16BIT;
 2365              		.loc 1 1603 21
 2366 00ae FB68     		ldr	r3, [r7, #12]
 2367 00b0 164A     		ldr	r2, .L126
 2368 00b2 1A64     		str	r2, [r3, #64]
1604:Drivers/STM32F4xx_HAL_Driver/Src/stm32f4xx_hal_spi.c ****     hspi->TxISR     = SPI_2linesTxISR_16BIT;
 2369              		.loc 1 1604 21
 2370 00b4 FB68     		ldr	r3, [r7, #12]
 2371 00b6 164A     		ldr	r2, .L126+4
 2372 00b8 5A64     		str	r2, [r3, #68]
 2373 00ba 05E0     		b	.L124
 2374              	.L123:
1605:Drivers/STM32F4xx_HAL_Driver/Src/stm32f4xx_hal_spi.c ****   }
1606:Drivers/STM32F4xx_HAL_Driver/Src/stm32f4xx_hal_spi.c ****   else
1607:Drivers/STM32F4xx_HAL_Driver/Src/stm32f4xx_hal_spi.c ****   {
1608:Drivers/STM32F4xx_HAL_Driver/Src/stm32f4xx_hal_spi.c ****     hspi->RxISR     = SPI_2linesRxISR_8BIT;
 2375              		.loc 1 1608 21
 2376 00bc FB68     		ldr	r3, [r7, #12]
 2377 00be 154A     		ldr	r2, .L126+8
 2378 00c0 1A64     		str	r2, [r3, #64]
1609:Drivers/STM32F4xx_HAL_Driver/Src/stm32f4xx_hal_spi.c ****     hspi->TxISR     = SPI_2linesTxISR_8BIT;
 2379              		.loc 1 1609 21
 2380 00c2 FB68     		ldr	r3, [r7, #12]
 2381 00c4 144A     		ldr	r2, .L126+12
 2382 00c6 5A64     		str	r2, [r3, #68]
 2383              	.L124:
1610:Drivers/STM32F4xx_HAL_Driver/Src/stm32f4xx_hal_spi.c ****   }
ARM GAS  C:\Users\16323\AppData\Local\Temp\ccbQ7VoP.s 			page 71


1611:Drivers/STM32F4xx_HAL_Driver/Src/stm32f4xx_hal_spi.c **** 
1612:Drivers/STM32F4xx_HAL_Driver/Src/stm32f4xx_hal_spi.c **** #if (USE_SPI_CRC != 0U)
1613:Drivers/STM32F4xx_HAL_Driver/Src/stm32f4xx_hal_spi.c ****   /* Reset CRC Calculation */
1614:Drivers/STM32F4xx_HAL_Driver/Src/stm32f4xx_hal_spi.c ****   if (hspi->Init.CRCCalculation == SPI_CRCCALCULATION_ENABLE)
1615:Drivers/STM32F4xx_HAL_Driver/Src/stm32f4xx_hal_spi.c ****   {
1616:Drivers/STM32F4xx_HAL_Driver/Src/stm32f4xx_hal_spi.c ****     SPI_RESET_CRC(hspi);
1617:Drivers/STM32F4xx_HAL_Driver/Src/stm32f4xx_hal_spi.c ****   }
1618:Drivers/STM32F4xx_HAL_Driver/Src/stm32f4xx_hal_spi.c **** #endif /* USE_SPI_CRC */
1619:Drivers/STM32F4xx_HAL_Driver/Src/stm32f4xx_hal_spi.c **** 
1620:Drivers/STM32F4xx_HAL_Driver/Src/stm32f4xx_hal_spi.c **** 
1621:Drivers/STM32F4xx_HAL_Driver/Src/stm32f4xx_hal_spi.c ****   /* Check if the SPI is already enabled */
1622:Drivers/STM32F4xx_HAL_Driver/Src/stm32f4xx_hal_spi.c ****   if ((hspi->Instance->CR1 & SPI_CR1_SPE) != SPI_CR1_SPE)
 2384              		.loc 1 1622 12
 2385 00c8 FB68     		ldr	r3, [r7, #12]
 2386 00ca 1B68     		ldr	r3, [r3]
 2387              		.loc 1 1622 22
 2388 00cc 1B68     		ldr	r3, [r3]
 2389              		.loc 1 1622 28
 2390 00ce 03F04003 		and	r3, r3, #64
 2391              		.loc 1 1622 6
 2392 00d2 402B     		cmp	r3, #64
 2393 00d4 07D0     		beq	.L125
1623:Drivers/STM32F4xx_HAL_Driver/Src/stm32f4xx_hal_spi.c ****   {
1624:Drivers/STM32F4xx_HAL_Driver/Src/stm32f4xx_hal_spi.c ****     /* Enable SPI peripheral */
1625:Drivers/STM32F4xx_HAL_Driver/Src/stm32f4xx_hal_spi.c ****     __HAL_SPI_ENABLE(hspi);
 2394              		.loc 1 1625 5
 2395 00d6 FB68     		ldr	r3, [r7, #12]
 2396 00d8 1B68     		ldr	r3, [r3]
 2397 00da 1A68     		ldr	r2, [r3]
 2398 00dc FB68     		ldr	r3, [r7, #12]
 2399 00de 1B68     		ldr	r3, [r3]
 2400 00e0 42F04002 		orr	r2, r2, #64
 2401 00e4 1A60     		str	r2, [r3]
 2402              	.L125:
1626:Drivers/STM32F4xx_HAL_Driver/Src/stm32f4xx_hal_spi.c ****   }
1627:Drivers/STM32F4xx_HAL_Driver/Src/stm32f4xx_hal_spi.c **** 
1628:Drivers/STM32F4xx_HAL_Driver/Src/stm32f4xx_hal_spi.c ****   /* Process Unlocked */
1629:Drivers/STM32F4xx_HAL_Driver/Src/stm32f4xx_hal_spi.c ****   __HAL_UNLOCK(hspi);
 2403              		.loc 1 1629 3
 2404 00e6 FB68     		ldr	r3, [r7, #12]
 2405 00e8 0022     		movs	r2, #0
 2406 00ea 83F85020 		strb	r2, [r3, #80]
1630:Drivers/STM32F4xx_HAL_Driver/Src/stm32f4xx_hal_spi.c ****   /* Enable TXE, RXNE and ERR interrupt */
1631:Drivers/STM32F4xx_HAL_Driver/Src/stm32f4xx_hal_spi.c ****   __HAL_SPI_ENABLE_IT(hspi, (SPI_IT_TXE | SPI_IT_RXNE | SPI_IT_ERR));
 2407              		.loc 1 1631 3
 2408 00ee FB68     		ldr	r3, [r7, #12]
 2409 00f0 1B68     		ldr	r3, [r3]
 2410 00f2 5A68     		ldr	r2, [r3, #4]
 2411 00f4 FB68     		ldr	r3, [r7, #12]
 2412 00f6 1B68     		ldr	r3, [r3]
 2413 00f8 42F0E002 		orr	r2, r2, #224
 2414 00fc 5A60     		str	r2, [r3, #4]
1632:Drivers/STM32F4xx_HAL_Driver/Src/stm32f4xx_hal_spi.c **** 
1633:Drivers/STM32F4xx_HAL_Driver/Src/stm32f4xx_hal_spi.c ****   return HAL_OK;
 2415              		.loc 1 1633 10
 2416 00fe 0023     		movs	r3, #0
 2417              	.L118:
ARM GAS  C:\Users\16323\AppData\Local\Temp\ccbQ7VoP.s 			page 72


1634:Drivers/STM32F4xx_HAL_Driver/Src/stm32f4xx_hal_spi.c **** }
 2418              		.loc 1 1634 1
 2419 0100 1846     		mov	r0, r3
 2420 0102 1C37     		adds	r7, r7, #28
 2421              	.LCFI51:
 2422              		.cfi_def_cfa_offset 4
 2423 0104 BD46     		mov	sp, r7
 2424              	.LCFI52:
 2425              		.cfi_def_cfa_register 13
 2426              		@ sp needed
 2427 0106 5DF8047B 		ldr	r7, [sp], #4
 2428              	.LCFI53:
 2429              		.cfi_restore 7
 2430              		.cfi_def_cfa_offset 0
 2431 010a 7047     		bx	lr
 2432              	.L127:
 2433              		.align	2
 2434              	.L126:
 2435 010c 00000000 		.word	SPI_2linesRxISR_16BIT
 2436 0110 00000000 		.word	SPI_2linesTxISR_16BIT
 2437 0114 00000000 		.word	SPI_2linesRxISR_8BIT
 2438 0118 00000000 		.word	SPI_2linesTxISR_8BIT
 2439              		.cfi_endproc
 2440              	.LFE248:
 2442              		.section	.text.HAL_SPI_Transmit_DMA,"ax",%progbits
 2443              		.align	1
 2444              		.global	HAL_SPI_Transmit_DMA
 2445              		.syntax unified
 2446              		.thumb
 2447              		.thumb_func
 2449              	HAL_SPI_Transmit_DMA:
 2450              	.LFB249:
1635:Drivers/STM32F4xx_HAL_Driver/Src/stm32f4xx_hal_spi.c **** 
1636:Drivers/STM32F4xx_HAL_Driver/Src/stm32f4xx_hal_spi.c **** /**
1637:Drivers/STM32F4xx_HAL_Driver/Src/stm32f4xx_hal_spi.c ****   * @brief  Transmit an amount of data in non-blocking mode with DMA.
1638:Drivers/STM32F4xx_HAL_Driver/Src/stm32f4xx_hal_spi.c ****   * @param  hspi pointer to a SPI_HandleTypeDef structure that contains
1639:Drivers/STM32F4xx_HAL_Driver/Src/stm32f4xx_hal_spi.c ****   *               the configuration information for SPI module.
1640:Drivers/STM32F4xx_HAL_Driver/Src/stm32f4xx_hal_spi.c ****   * @param  pData pointer to data buffer
1641:Drivers/STM32F4xx_HAL_Driver/Src/stm32f4xx_hal_spi.c ****   * @param  Size amount of data to be sent
1642:Drivers/STM32F4xx_HAL_Driver/Src/stm32f4xx_hal_spi.c ****   * @retval HAL status
1643:Drivers/STM32F4xx_HAL_Driver/Src/stm32f4xx_hal_spi.c ****   */
1644:Drivers/STM32F4xx_HAL_Driver/Src/stm32f4xx_hal_spi.c **** HAL_StatusTypeDef HAL_SPI_Transmit_DMA(SPI_HandleTypeDef *hspi, const uint8_t *pData, uint16_t Size
1645:Drivers/STM32F4xx_HAL_Driver/Src/stm32f4xx_hal_spi.c **** {
 2451              		.loc 1 1645 1
 2452              		.cfi_startproc
 2453              		@ args = 0, pretend = 0, frame = 16
 2454              		@ frame_needed = 1, uses_anonymous_args = 0
 2455 0000 80B5     		push	{r7, lr}
 2456              	.LCFI54:
 2457              		.cfi_def_cfa_offset 8
 2458              		.cfi_offset 7, -8
 2459              		.cfi_offset 14, -4
 2460 0002 84B0     		sub	sp, sp, #16
 2461              	.LCFI55:
 2462              		.cfi_def_cfa_offset 24
 2463 0004 00AF     		add	r7, sp, #0
 2464              	.LCFI56:
ARM GAS  C:\Users\16323\AppData\Local\Temp\ccbQ7VoP.s 			page 73


 2465              		.cfi_def_cfa_register 7
 2466 0006 F860     		str	r0, [r7, #12]
 2467 0008 B960     		str	r1, [r7, #8]
 2468 000a 1346     		mov	r3, r2
 2469 000c FB80     		strh	r3, [r7, #6]	@ movhi
1646:Drivers/STM32F4xx_HAL_Driver/Src/stm32f4xx_hal_spi.c **** 
1647:Drivers/STM32F4xx_HAL_Driver/Src/stm32f4xx_hal_spi.c ****   /* Check tx dma handle */
1648:Drivers/STM32F4xx_HAL_Driver/Src/stm32f4xx_hal_spi.c ****   assert_param(IS_SPI_DMA_HANDLE(hspi->hdmatx));
1649:Drivers/STM32F4xx_HAL_Driver/Src/stm32f4xx_hal_spi.c **** 
1650:Drivers/STM32F4xx_HAL_Driver/Src/stm32f4xx_hal_spi.c ****   /* Check Direction parameter */
1651:Drivers/STM32F4xx_HAL_Driver/Src/stm32f4xx_hal_spi.c ****   assert_param(IS_SPI_DIRECTION_2LINES_OR_1LINE(hspi->Init.Direction));
1652:Drivers/STM32F4xx_HAL_Driver/Src/stm32f4xx_hal_spi.c **** 
1653:Drivers/STM32F4xx_HAL_Driver/Src/stm32f4xx_hal_spi.c ****   if (hspi->State != HAL_SPI_STATE_READY)
 2470              		.loc 1 1653 11
 2471 000e FB68     		ldr	r3, [r7, #12]
 2472 0010 93F85130 		ldrb	r3, [r3, #81]
 2473 0014 DBB2     		uxtb	r3, r3
 2474              		.loc 1 1653 6
 2475 0016 012B     		cmp	r3, #1
 2476 0018 01D0     		beq	.L129
1654:Drivers/STM32F4xx_HAL_Driver/Src/stm32f4xx_hal_spi.c ****   {
1655:Drivers/STM32F4xx_HAL_Driver/Src/stm32f4xx_hal_spi.c ****     return HAL_BUSY;
 2477              		.loc 1 1655 12
 2478 001a 0223     		movs	r3, #2
 2479 001c 97E0     		b	.L130
 2480              	.L129:
1656:Drivers/STM32F4xx_HAL_Driver/Src/stm32f4xx_hal_spi.c ****   }
1657:Drivers/STM32F4xx_HAL_Driver/Src/stm32f4xx_hal_spi.c **** 
1658:Drivers/STM32F4xx_HAL_Driver/Src/stm32f4xx_hal_spi.c ****   if ((pData == NULL) || (Size == 0U))
 2481              		.loc 1 1658 6
 2482 001e BB68     		ldr	r3, [r7, #8]
 2483 0020 002B     		cmp	r3, #0
 2484 0022 02D0     		beq	.L131
 2485              		.loc 1 1658 23 discriminator 1
 2486 0024 FB88     		ldrh	r3, [r7, #6]
 2487 0026 002B     		cmp	r3, #0
 2488 0028 01D1     		bne	.L132
 2489              	.L131:
1659:Drivers/STM32F4xx_HAL_Driver/Src/stm32f4xx_hal_spi.c ****   {
1660:Drivers/STM32F4xx_HAL_Driver/Src/stm32f4xx_hal_spi.c ****     return HAL_ERROR;
 2490              		.loc 1 1660 12
 2491 002a 0123     		movs	r3, #1
 2492 002c 8FE0     		b	.L130
 2493              	.L132:
1661:Drivers/STM32F4xx_HAL_Driver/Src/stm32f4xx_hal_spi.c ****   }
1662:Drivers/STM32F4xx_HAL_Driver/Src/stm32f4xx_hal_spi.c **** 
1663:Drivers/STM32F4xx_HAL_Driver/Src/stm32f4xx_hal_spi.c ****   /* Process Locked */
1664:Drivers/STM32F4xx_HAL_Driver/Src/stm32f4xx_hal_spi.c ****   __HAL_LOCK(hspi);
 2494              		.loc 1 1664 3
 2495 002e FB68     		ldr	r3, [r7, #12]
 2496 0030 93F85030 		ldrb	r3, [r3, #80]	@ zero_extendqisi2
 2497 0034 012B     		cmp	r3, #1
 2498 0036 01D1     		bne	.L133
 2499              		.loc 1 1664 3 is_stmt 0 discriminator 1
 2500 0038 0223     		movs	r3, #2
 2501 003a 88E0     		b	.L130
 2502              	.L133:
ARM GAS  C:\Users\16323\AppData\Local\Temp\ccbQ7VoP.s 			page 74


 2503              		.loc 1 1664 3 discriminator 2
 2504 003c FB68     		ldr	r3, [r7, #12]
 2505 003e 0122     		movs	r2, #1
 2506 0040 83F85020 		strb	r2, [r3, #80]
1665:Drivers/STM32F4xx_HAL_Driver/Src/stm32f4xx_hal_spi.c **** 
1666:Drivers/STM32F4xx_HAL_Driver/Src/stm32f4xx_hal_spi.c ****   /* Set the transaction information */
1667:Drivers/STM32F4xx_HAL_Driver/Src/stm32f4xx_hal_spi.c ****   hspi->State       = HAL_SPI_STATE_BUSY_TX;
 2507              		.loc 1 1667 21 is_stmt 1 discriminator 2
 2508 0044 FB68     		ldr	r3, [r7, #12]
 2509 0046 0322     		movs	r2, #3
 2510 0048 83F85120 		strb	r2, [r3, #81]
1668:Drivers/STM32F4xx_HAL_Driver/Src/stm32f4xx_hal_spi.c ****   hspi->ErrorCode   = HAL_SPI_ERROR_NONE;
 2511              		.loc 1 1668 21 discriminator 2
 2512 004c FB68     		ldr	r3, [r7, #12]
 2513 004e 0022     		movs	r2, #0
 2514 0050 5A65     		str	r2, [r3, #84]
1669:Drivers/STM32F4xx_HAL_Driver/Src/stm32f4xx_hal_spi.c ****   hspi->pTxBuffPtr  = (const uint8_t *)pData;
 2515              		.loc 1 1669 21 discriminator 2
 2516 0052 FB68     		ldr	r3, [r7, #12]
 2517 0054 BA68     		ldr	r2, [r7, #8]
 2518 0056 1A63     		str	r2, [r3, #48]
1670:Drivers/STM32F4xx_HAL_Driver/Src/stm32f4xx_hal_spi.c ****   hspi->TxXferSize  = Size;
 2519              		.loc 1 1670 21 discriminator 2
 2520 0058 FB68     		ldr	r3, [r7, #12]
 2521 005a FA88     		ldrh	r2, [r7, #6]	@ movhi
 2522 005c 9A86     		strh	r2, [r3, #52]	@ movhi
1671:Drivers/STM32F4xx_HAL_Driver/Src/stm32f4xx_hal_spi.c ****   hspi->TxXferCount = Size;
 2523              		.loc 1 1671 21 discriminator 2
 2524 005e FB68     		ldr	r3, [r7, #12]
 2525 0060 FA88     		ldrh	r2, [r7, #6]	@ movhi
 2526 0062 DA86     		strh	r2, [r3, #54]	@ movhi
1672:Drivers/STM32F4xx_HAL_Driver/Src/stm32f4xx_hal_spi.c **** 
1673:Drivers/STM32F4xx_HAL_Driver/Src/stm32f4xx_hal_spi.c ****   /* Init field not used in handle to zero */
1674:Drivers/STM32F4xx_HAL_Driver/Src/stm32f4xx_hal_spi.c ****   hspi->pRxBuffPtr  = (uint8_t *)NULL;
 2527              		.loc 1 1674 21 discriminator 2
 2528 0064 FB68     		ldr	r3, [r7, #12]
 2529 0066 0022     		movs	r2, #0
 2530 0068 9A63     		str	r2, [r3, #56]
1675:Drivers/STM32F4xx_HAL_Driver/Src/stm32f4xx_hal_spi.c ****   hspi->TxISR       = NULL;
 2531              		.loc 1 1675 21 discriminator 2
 2532 006a FB68     		ldr	r3, [r7, #12]
 2533 006c 0022     		movs	r2, #0
 2534 006e 5A64     		str	r2, [r3, #68]
1676:Drivers/STM32F4xx_HAL_Driver/Src/stm32f4xx_hal_spi.c ****   hspi->RxISR       = NULL;
 2535              		.loc 1 1676 21 discriminator 2
 2536 0070 FB68     		ldr	r3, [r7, #12]
 2537 0072 0022     		movs	r2, #0
 2538 0074 1A64     		str	r2, [r3, #64]
1677:Drivers/STM32F4xx_HAL_Driver/Src/stm32f4xx_hal_spi.c ****   hspi->RxXferSize  = 0U;
 2539              		.loc 1 1677 21 discriminator 2
 2540 0076 FB68     		ldr	r3, [r7, #12]
 2541 0078 0022     		movs	r2, #0
 2542 007a 9A87     		strh	r2, [r3, #60]	@ movhi
1678:Drivers/STM32F4xx_HAL_Driver/Src/stm32f4xx_hal_spi.c ****   hspi->RxXferCount = 0U;
 2543              		.loc 1 1678 21 discriminator 2
 2544 007c FB68     		ldr	r3, [r7, #12]
 2545 007e 0022     		movs	r2, #0
ARM GAS  C:\Users\16323\AppData\Local\Temp\ccbQ7VoP.s 			page 75


 2546 0080 DA87     		strh	r2, [r3, #62]	@ movhi
1679:Drivers/STM32F4xx_HAL_Driver/Src/stm32f4xx_hal_spi.c **** 
1680:Drivers/STM32F4xx_HAL_Driver/Src/stm32f4xx_hal_spi.c ****   /* Configure communication direction : 1Line */
1681:Drivers/STM32F4xx_HAL_Driver/Src/stm32f4xx_hal_spi.c ****   if (hspi->Init.Direction == SPI_DIRECTION_1LINE)
 2547              		.loc 1 1681 17 discriminator 2
 2548 0082 FB68     		ldr	r3, [r7, #12]
 2549 0084 9B68     		ldr	r3, [r3, #8]
 2550              		.loc 1 1681 6 discriminator 2
 2551 0086 B3F5004F 		cmp	r3, #32768
 2552 008a 0FD1     		bne	.L134
1682:Drivers/STM32F4xx_HAL_Driver/Src/stm32f4xx_hal_spi.c ****   {
1683:Drivers/STM32F4xx_HAL_Driver/Src/stm32f4xx_hal_spi.c ****     /* Disable SPI Peripheral before set 1Line direction (BIDIOE bit) */
1684:Drivers/STM32F4xx_HAL_Driver/Src/stm32f4xx_hal_spi.c ****     __HAL_SPI_DISABLE(hspi);
 2553              		.loc 1 1684 5
 2554 008c FB68     		ldr	r3, [r7, #12]
 2555 008e 1B68     		ldr	r3, [r3]
 2556 0090 1A68     		ldr	r2, [r3]
 2557 0092 FB68     		ldr	r3, [r7, #12]
 2558 0094 1B68     		ldr	r3, [r3]
 2559 0096 22F04002 		bic	r2, r2, #64
 2560 009a 1A60     		str	r2, [r3]
1685:Drivers/STM32F4xx_HAL_Driver/Src/stm32f4xx_hal_spi.c ****     SPI_1LINE_TX(hspi);
 2561              		.loc 1 1685 5
 2562 009c FB68     		ldr	r3, [r7, #12]
 2563 009e 1B68     		ldr	r3, [r3]
 2564 00a0 1A68     		ldr	r2, [r3]
 2565 00a2 FB68     		ldr	r3, [r7, #12]
 2566 00a4 1B68     		ldr	r3, [r3]
 2567 00a6 42F48042 		orr	r2, r2, #16384
 2568 00aa 1A60     		str	r2, [r3]
 2569              	.L134:
1686:Drivers/STM32F4xx_HAL_Driver/Src/stm32f4xx_hal_spi.c ****   }
1687:Drivers/STM32F4xx_HAL_Driver/Src/stm32f4xx_hal_spi.c **** 
1688:Drivers/STM32F4xx_HAL_Driver/Src/stm32f4xx_hal_spi.c **** #if (USE_SPI_CRC != 0U)
1689:Drivers/STM32F4xx_HAL_Driver/Src/stm32f4xx_hal_spi.c ****   /* Reset CRC Calculation */
1690:Drivers/STM32F4xx_HAL_Driver/Src/stm32f4xx_hal_spi.c ****   if (hspi->Init.CRCCalculation == SPI_CRCCALCULATION_ENABLE)
1691:Drivers/STM32F4xx_HAL_Driver/Src/stm32f4xx_hal_spi.c ****   {
1692:Drivers/STM32F4xx_HAL_Driver/Src/stm32f4xx_hal_spi.c ****     SPI_RESET_CRC(hspi);
1693:Drivers/STM32F4xx_HAL_Driver/Src/stm32f4xx_hal_spi.c ****   }
1694:Drivers/STM32F4xx_HAL_Driver/Src/stm32f4xx_hal_spi.c **** #endif /* USE_SPI_CRC */
1695:Drivers/STM32F4xx_HAL_Driver/Src/stm32f4xx_hal_spi.c **** 
1696:Drivers/STM32F4xx_HAL_Driver/Src/stm32f4xx_hal_spi.c ****   /* Set the SPI TxDMA Half transfer complete callback */
1697:Drivers/STM32F4xx_HAL_Driver/Src/stm32f4xx_hal_spi.c ****   hspi->hdmatx->XferHalfCpltCallback = SPI_DMAHalfTransmitCplt;
 2570              		.loc 1 1697 7
 2571 00ac FB68     		ldr	r3, [r7, #12]
 2572 00ae 9B6C     		ldr	r3, [r3, #72]
 2573              		.loc 1 1697 38
 2574 00b0 294A     		ldr	r2, .L137
 2575 00b2 1A64     		str	r2, [r3, #64]
1698:Drivers/STM32F4xx_HAL_Driver/Src/stm32f4xx_hal_spi.c **** 
1699:Drivers/STM32F4xx_HAL_Driver/Src/stm32f4xx_hal_spi.c ****   /* Set the SPI TxDMA transfer complete callback */
1700:Drivers/STM32F4xx_HAL_Driver/Src/stm32f4xx_hal_spi.c ****   hspi->hdmatx->XferCpltCallback = SPI_DMATransmitCplt;
 2576              		.loc 1 1700 7
 2577 00b4 FB68     		ldr	r3, [r7, #12]
 2578 00b6 9B6C     		ldr	r3, [r3, #72]
 2579              		.loc 1 1700 34
 2580 00b8 284A     		ldr	r2, .L137+4
ARM GAS  C:\Users\16323\AppData\Local\Temp\ccbQ7VoP.s 			page 76


 2581 00ba DA63     		str	r2, [r3, #60]
1701:Drivers/STM32F4xx_HAL_Driver/Src/stm32f4xx_hal_spi.c **** 
1702:Drivers/STM32F4xx_HAL_Driver/Src/stm32f4xx_hal_spi.c ****   /* Set the DMA error callback */
1703:Drivers/STM32F4xx_HAL_Driver/Src/stm32f4xx_hal_spi.c ****   hspi->hdmatx->XferErrorCallback = SPI_DMAError;
 2582              		.loc 1 1703 7
 2583 00bc FB68     		ldr	r3, [r7, #12]
 2584 00be 9B6C     		ldr	r3, [r3, #72]
 2585              		.loc 1 1703 35
 2586 00c0 274A     		ldr	r2, .L137+8
 2587 00c2 DA64     		str	r2, [r3, #76]
1704:Drivers/STM32F4xx_HAL_Driver/Src/stm32f4xx_hal_spi.c **** 
1705:Drivers/STM32F4xx_HAL_Driver/Src/stm32f4xx_hal_spi.c ****   /* Set the DMA AbortCpltCallback */
1706:Drivers/STM32F4xx_HAL_Driver/Src/stm32f4xx_hal_spi.c ****   hspi->hdmatx->XferAbortCallback = NULL;
 2588              		.loc 1 1706 7
 2589 00c4 FB68     		ldr	r3, [r7, #12]
 2590 00c6 9B6C     		ldr	r3, [r3, #72]
 2591              		.loc 1 1706 35
 2592 00c8 0022     		movs	r2, #0
 2593 00ca 1A65     		str	r2, [r3, #80]
1707:Drivers/STM32F4xx_HAL_Driver/Src/stm32f4xx_hal_spi.c **** 
1708:Drivers/STM32F4xx_HAL_Driver/Src/stm32f4xx_hal_spi.c ****   /* Enable the Tx DMA Stream/Channel */
1709:Drivers/STM32F4xx_HAL_Driver/Src/stm32f4xx_hal_spi.c ****   if (HAL_OK != HAL_DMA_Start_IT(hspi->hdmatx, (uint32_t)hspi->pTxBuffPtr, (uint32_t)&hspi->Instanc
 2594              		.loc 1 1709 17
 2595 00cc FB68     		ldr	r3, [r7, #12]
 2596 00ce 986C     		ldr	r0, [r3, #72]
 2597              		.loc 1 1709 62
 2598 00d0 FB68     		ldr	r3, [r7, #12]
 2599 00d2 1B6B     		ldr	r3, [r3, #48]
 2600              		.loc 1 1709 17
 2601 00d4 1946     		mov	r1, r3
 2602              		.loc 1 1709 91
 2603 00d6 FB68     		ldr	r3, [r7, #12]
 2604 00d8 1B68     		ldr	r3, [r3]
 2605              		.loc 1 1709 86
 2606 00da 0C33     		adds	r3, r3, #12
 2607              		.loc 1 1709 17
 2608 00dc 1A46     		mov	r2, r3
1710:Drivers/STM32F4xx_HAL_Driver/Src/stm32f4xx_hal_spi.c ****                                  hspi->TxXferCount))
 2609              		.loc 1 1710 38
 2610 00de FB68     		ldr	r3, [r7, #12]
 2611 00e0 DB8E     		ldrh	r3, [r3, #54]	@ movhi
 2612 00e2 9BB2     		uxth	r3, r3
1709:Drivers/STM32F4xx_HAL_Driver/Src/stm32f4xx_hal_spi.c ****                                  hspi->TxXferCount))
 2613              		.loc 1 1709 17
 2614 00e4 FFF7FEFF 		bl	HAL_DMA_Start_IT
 2615 00e8 0346     		mov	r3, r0
1709:Drivers/STM32F4xx_HAL_Driver/Src/stm32f4xx_hal_spi.c ****                                  hspi->TxXferCount))
 2616              		.loc 1 1709 6
 2617 00ea 002B     		cmp	r3, #0
 2618 00ec 0BD0     		beq	.L135
1711:Drivers/STM32F4xx_HAL_Driver/Src/stm32f4xx_hal_spi.c ****   {
1712:Drivers/STM32F4xx_HAL_Driver/Src/stm32f4xx_hal_spi.c ****     /* Update SPI error code */
1713:Drivers/STM32F4xx_HAL_Driver/Src/stm32f4xx_hal_spi.c ****     SET_BIT(hspi->ErrorCode, HAL_SPI_ERROR_DMA);
 2619              		.loc 1 1713 5
 2620 00ee FB68     		ldr	r3, [r7, #12]
 2621 00f0 5B6D     		ldr	r3, [r3, #84]
 2622 00f2 43F01002 		orr	r2, r3, #16
ARM GAS  C:\Users\16323\AppData\Local\Temp\ccbQ7VoP.s 			page 77


 2623 00f6 FB68     		ldr	r3, [r7, #12]
 2624 00f8 5A65     		str	r2, [r3, #84]
1714:Drivers/STM32F4xx_HAL_Driver/Src/stm32f4xx_hal_spi.c ****     /* Process Unlocked */
1715:Drivers/STM32F4xx_HAL_Driver/Src/stm32f4xx_hal_spi.c ****     __HAL_UNLOCK(hspi);
 2625              		.loc 1 1715 5
 2626 00fa FB68     		ldr	r3, [r7, #12]
 2627 00fc 0022     		movs	r2, #0
 2628 00fe 83F85020 		strb	r2, [r3, #80]
1716:Drivers/STM32F4xx_HAL_Driver/Src/stm32f4xx_hal_spi.c ****     return HAL_ERROR;
 2629              		.loc 1 1716 12
 2630 0102 0123     		movs	r3, #1
 2631 0104 23E0     		b	.L130
 2632              	.L135:
1717:Drivers/STM32F4xx_HAL_Driver/Src/stm32f4xx_hal_spi.c ****   }
1718:Drivers/STM32F4xx_HAL_Driver/Src/stm32f4xx_hal_spi.c **** 
1719:Drivers/STM32F4xx_HAL_Driver/Src/stm32f4xx_hal_spi.c ****   /* Check if the SPI is already enabled */
1720:Drivers/STM32F4xx_HAL_Driver/Src/stm32f4xx_hal_spi.c ****   if ((hspi->Instance->CR1 & SPI_CR1_SPE) != SPI_CR1_SPE)
 2633              		.loc 1 1720 12
 2634 0106 FB68     		ldr	r3, [r7, #12]
 2635 0108 1B68     		ldr	r3, [r3]
 2636              		.loc 1 1720 22
 2637 010a 1B68     		ldr	r3, [r3]
 2638              		.loc 1 1720 28
 2639 010c 03F04003 		and	r3, r3, #64
 2640              		.loc 1 1720 6
 2641 0110 402B     		cmp	r3, #64
 2642 0112 07D0     		beq	.L136
1721:Drivers/STM32F4xx_HAL_Driver/Src/stm32f4xx_hal_spi.c ****   {
1722:Drivers/STM32F4xx_HAL_Driver/Src/stm32f4xx_hal_spi.c ****     /* Enable SPI peripheral */
1723:Drivers/STM32F4xx_HAL_Driver/Src/stm32f4xx_hal_spi.c ****     __HAL_SPI_ENABLE(hspi);
 2643              		.loc 1 1723 5
 2644 0114 FB68     		ldr	r3, [r7, #12]
 2645 0116 1B68     		ldr	r3, [r3]
 2646 0118 1A68     		ldr	r2, [r3]
 2647 011a FB68     		ldr	r3, [r7, #12]
 2648 011c 1B68     		ldr	r3, [r3]
 2649 011e 42F04002 		orr	r2, r2, #64
 2650 0122 1A60     		str	r2, [r3]
 2651              	.L136:
1724:Drivers/STM32F4xx_HAL_Driver/Src/stm32f4xx_hal_spi.c ****   }
1725:Drivers/STM32F4xx_HAL_Driver/Src/stm32f4xx_hal_spi.c **** 
1726:Drivers/STM32F4xx_HAL_Driver/Src/stm32f4xx_hal_spi.c ****   /* Process Unlocked */
1727:Drivers/STM32F4xx_HAL_Driver/Src/stm32f4xx_hal_spi.c ****   __HAL_UNLOCK(hspi);
 2652              		.loc 1 1727 3
 2653 0124 FB68     		ldr	r3, [r7, #12]
 2654 0126 0022     		movs	r2, #0
 2655 0128 83F85020 		strb	r2, [r3, #80]
1728:Drivers/STM32F4xx_HAL_Driver/Src/stm32f4xx_hal_spi.c **** 
1729:Drivers/STM32F4xx_HAL_Driver/Src/stm32f4xx_hal_spi.c ****   /* Enable the SPI Error Interrupt Bit */
1730:Drivers/STM32F4xx_HAL_Driver/Src/stm32f4xx_hal_spi.c ****   __HAL_SPI_ENABLE_IT(hspi, (SPI_IT_ERR));
 2656              		.loc 1 1730 3
 2657 012c FB68     		ldr	r3, [r7, #12]
 2658 012e 1B68     		ldr	r3, [r3]
 2659 0130 5A68     		ldr	r2, [r3, #4]
 2660 0132 FB68     		ldr	r3, [r7, #12]
 2661 0134 1B68     		ldr	r3, [r3]
 2662 0136 42F02002 		orr	r2, r2, #32
ARM GAS  C:\Users\16323\AppData\Local\Temp\ccbQ7VoP.s 			page 78


 2663 013a 5A60     		str	r2, [r3, #4]
1731:Drivers/STM32F4xx_HAL_Driver/Src/stm32f4xx_hal_spi.c **** 
1732:Drivers/STM32F4xx_HAL_Driver/Src/stm32f4xx_hal_spi.c ****   /* Enable Tx DMA Request */
1733:Drivers/STM32F4xx_HAL_Driver/Src/stm32f4xx_hal_spi.c ****   SET_BIT(hspi->Instance->CR2, SPI_CR2_TXDMAEN);
 2664              		.loc 1 1733 3
 2665 013c FB68     		ldr	r3, [r7, #12]
 2666 013e 1B68     		ldr	r3, [r3]
 2667 0140 5A68     		ldr	r2, [r3, #4]
 2668 0142 FB68     		ldr	r3, [r7, #12]
 2669 0144 1B68     		ldr	r3, [r3]
 2670 0146 42F00202 		orr	r2, r2, #2
 2671 014a 5A60     		str	r2, [r3, #4]
1734:Drivers/STM32F4xx_HAL_Driver/Src/stm32f4xx_hal_spi.c **** 
1735:Drivers/STM32F4xx_HAL_Driver/Src/stm32f4xx_hal_spi.c ****   return HAL_OK;
 2672              		.loc 1 1735 10
 2673 014c 0023     		movs	r3, #0
 2674              	.L130:
1736:Drivers/STM32F4xx_HAL_Driver/Src/stm32f4xx_hal_spi.c **** }
 2675              		.loc 1 1736 1
 2676 014e 1846     		mov	r0, r3
 2677 0150 1037     		adds	r7, r7, #16
 2678              	.LCFI57:
 2679              		.cfi_def_cfa_offset 8
 2680 0152 BD46     		mov	sp, r7
 2681              	.LCFI58:
 2682              		.cfi_def_cfa_register 13
 2683              		@ sp needed
 2684 0154 80BD     		pop	{r7, pc}
 2685              	.L138:
 2686 0156 00BF     		.align	2
 2687              	.L137:
 2688 0158 00000000 		.word	SPI_DMAHalfTransmitCplt
 2689 015c 00000000 		.word	SPI_DMATransmitCplt
 2690 0160 00000000 		.word	SPI_DMAError
 2691              		.cfi_endproc
 2692              	.LFE249:
 2694              		.section	.text.HAL_SPI_Receive_DMA,"ax",%progbits
 2695              		.align	1
 2696              		.global	HAL_SPI_Receive_DMA
 2697              		.syntax unified
 2698              		.thumb
 2699              		.thumb_func
 2701              	HAL_SPI_Receive_DMA:
 2702              	.LFB250:
1737:Drivers/STM32F4xx_HAL_Driver/Src/stm32f4xx_hal_spi.c **** 
1738:Drivers/STM32F4xx_HAL_Driver/Src/stm32f4xx_hal_spi.c **** /**
1739:Drivers/STM32F4xx_HAL_Driver/Src/stm32f4xx_hal_spi.c ****   * @brief  Receive an amount of data in non-blocking mode with DMA.
1740:Drivers/STM32F4xx_HAL_Driver/Src/stm32f4xx_hal_spi.c ****   * @note   In case of MASTER mode and SPI_DIRECTION_2LINES direction, hdmatx shall be defined.
1741:Drivers/STM32F4xx_HAL_Driver/Src/stm32f4xx_hal_spi.c ****   * @param  hspi pointer to a SPI_HandleTypeDef structure that contains
1742:Drivers/STM32F4xx_HAL_Driver/Src/stm32f4xx_hal_spi.c ****   *               the configuration information for SPI module.
1743:Drivers/STM32F4xx_HAL_Driver/Src/stm32f4xx_hal_spi.c ****   * @param  pData pointer to data buffer
1744:Drivers/STM32F4xx_HAL_Driver/Src/stm32f4xx_hal_spi.c ****   * @note   When the CRC feature is enabled the pData Length must be Size + 1.
1745:Drivers/STM32F4xx_HAL_Driver/Src/stm32f4xx_hal_spi.c ****   * @param  Size amount of data to be sent
1746:Drivers/STM32F4xx_HAL_Driver/Src/stm32f4xx_hal_spi.c ****   * @retval HAL status
1747:Drivers/STM32F4xx_HAL_Driver/Src/stm32f4xx_hal_spi.c ****   */
1748:Drivers/STM32F4xx_HAL_Driver/Src/stm32f4xx_hal_spi.c **** HAL_StatusTypeDef HAL_SPI_Receive_DMA(SPI_HandleTypeDef *hspi, uint8_t *pData, uint16_t Size)
1749:Drivers/STM32F4xx_HAL_Driver/Src/stm32f4xx_hal_spi.c **** {
ARM GAS  C:\Users\16323\AppData\Local\Temp\ccbQ7VoP.s 			page 79


 2703              		.loc 1 1749 1
 2704              		.cfi_startproc
 2705              		@ args = 0, pretend = 0, frame = 16
 2706              		@ frame_needed = 1, uses_anonymous_args = 0
 2707 0000 80B5     		push	{r7, lr}
 2708              	.LCFI59:
 2709              		.cfi_def_cfa_offset 8
 2710              		.cfi_offset 7, -8
 2711              		.cfi_offset 14, -4
 2712 0002 84B0     		sub	sp, sp, #16
 2713              	.LCFI60:
 2714              		.cfi_def_cfa_offset 24
 2715 0004 00AF     		add	r7, sp, #0
 2716              	.LCFI61:
 2717              		.cfi_def_cfa_register 7
 2718 0006 F860     		str	r0, [r7, #12]
 2719 0008 B960     		str	r1, [r7, #8]
 2720 000a 1346     		mov	r3, r2
 2721 000c FB80     		strh	r3, [r7, #6]	@ movhi
1750:Drivers/STM32F4xx_HAL_Driver/Src/stm32f4xx_hal_spi.c ****   /* Check rx dma handle */
1751:Drivers/STM32F4xx_HAL_Driver/Src/stm32f4xx_hal_spi.c ****   assert_param(IS_SPI_DMA_HANDLE(hspi->hdmarx));
1752:Drivers/STM32F4xx_HAL_Driver/Src/stm32f4xx_hal_spi.c **** 
1753:Drivers/STM32F4xx_HAL_Driver/Src/stm32f4xx_hal_spi.c ****   if (hspi->State != HAL_SPI_STATE_READY)
 2722              		.loc 1 1753 11
 2723 000e FB68     		ldr	r3, [r7, #12]
 2724 0010 93F85130 		ldrb	r3, [r3, #81]
 2725 0014 DBB2     		uxtb	r3, r3
 2726              		.loc 1 1753 6
 2727 0016 012B     		cmp	r3, #1
 2728 0018 01D0     		beq	.L140
1754:Drivers/STM32F4xx_HAL_Driver/Src/stm32f4xx_hal_spi.c ****   {
1755:Drivers/STM32F4xx_HAL_Driver/Src/stm32f4xx_hal_spi.c ****     return HAL_BUSY;
 2729              		.loc 1 1755 12
 2730 001a 0223     		movs	r3, #2
 2731 001c A9E0     		b	.L141
 2732              	.L140:
1756:Drivers/STM32F4xx_HAL_Driver/Src/stm32f4xx_hal_spi.c ****   }
1757:Drivers/STM32F4xx_HAL_Driver/Src/stm32f4xx_hal_spi.c **** 
1758:Drivers/STM32F4xx_HAL_Driver/Src/stm32f4xx_hal_spi.c ****   if ((hspi->Init.Direction == SPI_DIRECTION_2LINES) && (hspi->Init.Mode == SPI_MODE_MASTER))
 2733              		.loc 1 1758 18
 2734 001e FB68     		ldr	r3, [r7, #12]
 2735 0020 9B68     		ldr	r3, [r3, #8]
 2736              		.loc 1 1758 6
 2737 0022 002B     		cmp	r3, #0
 2738 0024 10D1     		bne	.L142
 2739              		.loc 1 1758 68 discriminator 1
 2740 0026 FB68     		ldr	r3, [r7, #12]
 2741 0028 5B68     		ldr	r3, [r3, #4]
 2742              		.loc 1 1758 54 discriminator 1
 2743 002a B3F5827F 		cmp	r3, #260
 2744 002e 0BD1     		bne	.L142
1759:Drivers/STM32F4xx_HAL_Driver/Src/stm32f4xx_hal_spi.c ****   {
1760:Drivers/STM32F4xx_HAL_Driver/Src/stm32f4xx_hal_spi.c ****     hspi->State = HAL_SPI_STATE_BUSY_RX;
 2745              		.loc 1 1760 17
 2746 0030 FB68     		ldr	r3, [r7, #12]
 2747 0032 0422     		movs	r2, #4
 2748 0034 83F85120 		strb	r2, [r3, #81]
ARM GAS  C:\Users\16323\AppData\Local\Temp\ccbQ7VoP.s 			page 80


1761:Drivers/STM32F4xx_HAL_Driver/Src/stm32f4xx_hal_spi.c **** 
1762:Drivers/STM32F4xx_HAL_Driver/Src/stm32f4xx_hal_spi.c ****     /* Check tx dma handle */
1763:Drivers/STM32F4xx_HAL_Driver/Src/stm32f4xx_hal_spi.c ****     assert_param(IS_SPI_DMA_HANDLE(hspi->hdmatx));
1764:Drivers/STM32F4xx_HAL_Driver/Src/stm32f4xx_hal_spi.c **** 
1765:Drivers/STM32F4xx_HAL_Driver/Src/stm32f4xx_hal_spi.c ****     /* Call transmit-receive function to send Dummy data on Tx line and generate clock on CLK line 
1766:Drivers/STM32F4xx_HAL_Driver/Src/stm32f4xx_hal_spi.c ****     return HAL_SPI_TransmitReceive_DMA(hspi, pData, pData, Size);
 2749              		.loc 1 1766 12
 2750 0038 FB88     		ldrh	r3, [r7, #6]
 2751 003a BA68     		ldr	r2, [r7, #8]
 2752 003c B968     		ldr	r1, [r7, #8]
 2753 003e F868     		ldr	r0, [r7, #12]
 2754 0040 FFF7FEFF 		bl	HAL_SPI_TransmitReceive_DMA
 2755 0044 0346     		mov	r3, r0
 2756 0046 94E0     		b	.L141
 2757              	.L142:
1767:Drivers/STM32F4xx_HAL_Driver/Src/stm32f4xx_hal_spi.c ****   }
1768:Drivers/STM32F4xx_HAL_Driver/Src/stm32f4xx_hal_spi.c **** 
1769:Drivers/STM32F4xx_HAL_Driver/Src/stm32f4xx_hal_spi.c ****   if ((pData == NULL) || (Size == 0U))
 2758              		.loc 1 1769 6
 2759 0048 BB68     		ldr	r3, [r7, #8]
 2760 004a 002B     		cmp	r3, #0
 2761 004c 02D0     		beq	.L143
 2762              		.loc 1 1769 23 discriminator 1
 2763 004e FB88     		ldrh	r3, [r7, #6]
 2764 0050 002B     		cmp	r3, #0
 2765 0052 01D1     		bne	.L144
 2766              	.L143:
1770:Drivers/STM32F4xx_HAL_Driver/Src/stm32f4xx_hal_spi.c ****   {
1771:Drivers/STM32F4xx_HAL_Driver/Src/stm32f4xx_hal_spi.c ****     return HAL_ERROR;
 2767              		.loc 1 1771 12
 2768 0054 0123     		movs	r3, #1
 2769 0056 8CE0     		b	.L141
 2770              	.L144:
1772:Drivers/STM32F4xx_HAL_Driver/Src/stm32f4xx_hal_spi.c ****   }
1773:Drivers/STM32F4xx_HAL_Driver/Src/stm32f4xx_hal_spi.c **** 
1774:Drivers/STM32F4xx_HAL_Driver/Src/stm32f4xx_hal_spi.c ****   /* Process Locked */
1775:Drivers/STM32F4xx_HAL_Driver/Src/stm32f4xx_hal_spi.c ****   __HAL_LOCK(hspi);
 2771              		.loc 1 1775 3
 2772 0058 FB68     		ldr	r3, [r7, #12]
 2773 005a 93F85030 		ldrb	r3, [r3, #80]	@ zero_extendqisi2
 2774 005e 012B     		cmp	r3, #1
 2775 0060 01D1     		bne	.L145
 2776              		.loc 1 1775 3 is_stmt 0 discriminator 1
 2777 0062 0223     		movs	r3, #2
 2778 0064 85E0     		b	.L141
 2779              	.L145:
 2780              		.loc 1 1775 3 discriminator 2
 2781 0066 FB68     		ldr	r3, [r7, #12]
 2782 0068 0122     		movs	r2, #1
 2783 006a 83F85020 		strb	r2, [r3, #80]
1776:Drivers/STM32F4xx_HAL_Driver/Src/stm32f4xx_hal_spi.c ****   
1777:Drivers/STM32F4xx_HAL_Driver/Src/stm32f4xx_hal_spi.c ****   /* Set the transaction information */
1778:Drivers/STM32F4xx_HAL_Driver/Src/stm32f4xx_hal_spi.c ****   hspi->State       = HAL_SPI_STATE_BUSY_RX;
 2784              		.loc 1 1778 21 is_stmt 1 discriminator 2
 2785 006e FB68     		ldr	r3, [r7, #12]
 2786 0070 0422     		movs	r2, #4
 2787 0072 83F85120 		strb	r2, [r3, #81]
ARM GAS  C:\Users\16323\AppData\Local\Temp\ccbQ7VoP.s 			page 81


1779:Drivers/STM32F4xx_HAL_Driver/Src/stm32f4xx_hal_spi.c ****   hspi->ErrorCode   = HAL_SPI_ERROR_NONE;
 2788              		.loc 1 1779 21 discriminator 2
 2789 0076 FB68     		ldr	r3, [r7, #12]
 2790 0078 0022     		movs	r2, #0
 2791 007a 5A65     		str	r2, [r3, #84]
1780:Drivers/STM32F4xx_HAL_Driver/Src/stm32f4xx_hal_spi.c ****   hspi->pRxBuffPtr  = (uint8_t *)pData;
 2792              		.loc 1 1780 21 discriminator 2
 2793 007c FB68     		ldr	r3, [r7, #12]
 2794 007e BA68     		ldr	r2, [r7, #8]
 2795 0080 9A63     		str	r2, [r3, #56]
1781:Drivers/STM32F4xx_HAL_Driver/Src/stm32f4xx_hal_spi.c ****   hspi->RxXferSize  = Size;
 2796              		.loc 1 1781 21 discriminator 2
 2797 0082 FB68     		ldr	r3, [r7, #12]
 2798 0084 FA88     		ldrh	r2, [r7, #6]	@ movhi
 2799 0086 9A87     		strh	r2, [r3, #60]	@ movhi
1782:Drivers/STM32F4xx_HAL_Driver/Src/stm32f4xx_hal_spi.c ****   hspi->RxXferCount = Size;
 2800              		.loc 1 1782 21 discriminator 2
 2801 0088 FB68     		ldr	r3, [r7, #12]
 2802 008a FA88     		ldrh	r2, [r7, #6]	@ movhi
 2803 008c DA87     		strh	r2, [r3, #62]	@ movhi
1783:Drivers/STM32F4xx_HAL_Driver/Src/stm32f4xx_hal_spi.c **** 
1784:Drivers/STM32F4xx_HAL_Driver/Src/stm32f4xx_hal_spi.c ****   /*Init field not used in handle to zero */
1785:Drivers/STM32F4xx_HAL_Driver/Src/stm32f4xx_hal_spi.c ****   hspi->RxISR       = NULL;
 2804              		.loc 1 1785 21 discriminator 2
 2805 008e FB68     		ldr	r3, [r7, #12]
 2806 0090 0022     		movs	r2, #0
 2807 0092 1A64     		str	r2, [r3, #64]
1786:Drivers/STM32F4xx_HAL_Driver/Src/stm32f4xx_hal_spi.c ****   hspi->TxISR       = NULL;
 2808              		.loc 1 1786 21 discriminator 2
 2809 0094 FB68     		ldr	r3, [r7, #12]
 2810 0096 0022     		movs	r2, #0
 2811 0098 5A64     		str	r2, [r3, #68]
1787:Drivers/STM32F4xx_HAL_Driver/Src/stm32f4xx_hal_spi.c ****   hspi->TxXferSize  = 0U;
 2812              		.loc 1 1787 21 discriminator 2
 2813 009a FB68     		ldr	r3, [r7, #12]
 2814 009c 0022     		movs	r2, #0
 2815 009e 9A86     		strh	r2, [r3, #52]	@ movhi
1788:Drivers/STM32F4xx_HAL_Driver/Src/stm32f4xx_hal_spi.c ****   hspi->TxXferCount = 0U;
 2816              		.loc 1 1788 21 discriminator 2
 2817 00a0 FB68     		ldr	r3, [r7, #12]
 2818 00a2 0022     		movs	r2, #0
 2819 00a4 DA86     		strh	r2, [r3, #54]	@ movhi
1789:Drivers/STM32F4xx_HAL_Driver/Src/stm32f4xx_hal_spi.c **** 
1790:Drivers/STM32F4xx_HAL_Driver/Src/stm32f4xx_hal_spi.c ****   /* Configure communication direction : 1Line */
1791:Drivers/STM32F4xx_HAL_Driver/Src/stm32f4xx_hal_spi.c ****   if (hspi->Init.Direction == SPI_DIRECTION_1LINE)
 2820              		.loc 1 1791 17 discriminator 2
 2821 00a6 FB68     		ldr	r3, [r7, #12]
 2822 00a8 9B68     		ldr	r3, [r3, #8]
 2823              		.loc 1 1791 6 discriminator 2
 2824 00aa B3F5004F 		cmp	r3, #32768
 2825 00ae 0FD1     		bne	.L146
1792:Drivers/STM32F4xx_HAL_Driver/Src/stm32f4xx_hal_spi.c ****   {
1793:Drivers/STM32F4xx_HAL_Driver/Src/stm32f4xx_hal_spi.c ****     /* Disable SPI Peripheral before set 1Line direction (BIDIOE bit) */
1794:Drivers/STM32F4xx_HAL_Driver/Src/stm32f4xx_hal_spi.c ****     __HAL_SPI_DISABLE(hspi);
 2826              		.loc 1 1794 5
 2827 00b0 FB68     		ldr	r3, [r7, #12]
 2828 00b2 1B68     		ldr	r3, [r3]
ARM GAS  C:\Users\16323\AppData\Local\Temp\ccbQ7VoP.s 			page 82


 2829 00b4 1A68     		ldr	r2, [r3]
 2830 00b6 FB68     		ldr	r3, [r7, #12]
 2831 00b8 1B68     		ldr	r3, [r3]
 2832 00ba 22F04002 		bic	r2, r2, #64
 2833 00be 1A60     		str	r2, [r3]
1795:Drivers/STM32F4xx_HAL_Driver/Src/stm32f4xx_hal_spi.c ****     SPI_1LINE_RX(hspi);
 2834              		.loc 1 1795 5
 2835 00c0 FB68     		ldr	r3, [r7, #12]
 2836 00c2 1B68     		ldr	r3, [r3]
 2837 00c4 1A68     		ldr	r2, [r3]
 2838 00c6 FB68     		ldr	r3, [r7, #12]
 2839 00c8 1B68     		ldr	r3, [r3]
 2840 00ca 22F48042 		bic	r2, r2, #16384
 2841 00ce 1A60     		str	r2, [r3]
 2842              	.L146:
1796:Drivers/STM32F4xx_HAL_Driver/Src/stm32f4xx_hal_spi.c ****   }
1797:Drivers/STM32F4xx_HAL_Driver/Src/stm32f4xx_hal_spi.c **** 
1798:Drivers/STM32F4xx_HAL_Driver/Src/stm32f4xx_hal_spi.c **** #if (USE_SPI_CRC != 0U)
1799:Drivers/STM32F4xx_HAL_Driver/Src/stm32f4xx_hal_spi.c ****   /* Reset CRC Calculation */
1800:Drivers/STM32F4xx_HAL_Driver/Src/stm32f4xx_hal_spi.c ****   if (hspi->Init.CRCCalculation == SPI_CRCCALCULATION_ENABLE)
1801:Drivers/STM32F4xx_HAL_Driver/Src/stm32f4xx_hal_spi.c ****   {
1802:Drivers/STM32F4xx_HAL_Driver/Src/stm32f4xx_hal_spi.c ****     SPI_RESET_CRC(hspi);
1803:Drivers/STM32F4xx_HAL_Driver/Src/stm32f4xx_hal_spi.c ****   }
1804:Drivers/STM32F4xx_HAL_Driver/Src/stm32f4xx_hal_spi.c **** #endif /* USE_SPI_CRC */
1805:Drivers/STM32F4xx_HAL_Driver/Src/stm32f4xx_hal_spi.c **** 
1806:Drivers/STM32F4xx_HAL_Driver/Src/stm32f4xx_hal_spi.c ****   /* Set the SPI RxDMA Half transfer complete callback */
1807:Drivers/STM32F4xx_HAL_Driver/Src/stm32f4xx_hal_spi.c ****   hspi->hdmarx->XferHalfCpltCallback = SPI_DMAHalfReceiveCplt;
 2843              		.loc 1 1807 7
 2844 00d0 FB68     		ldr	r3, [r7, #12]
 2845 00d2 DB6C     		ldr	r3, [r3, #76]
 2846              		.loc 1 1807 38
 2847 00d4 294A     		ldr	r2, .L149
 2848 00d6 1A64     		str	r2, [r3, #64]
1808:Drivers/STM32F4xx_HAL_Driver/Src/stm32f4xx_hal_spi.c **** 
1809:Drivers/STM32F4xx_HAL_Driver/Src/stm32f4xx_hal_spi.c ****   /* Set the SPI Rx DMA transfer complete callback */
1810:Drivers/STM32F4xx_HAL_Driver/Src/stm32f4xx_hal_spi.c ****   hspi->hdmarx->XferCpltCallback = SPI_DMAReceiveCplt;
 2849              		.loc 1 1810 7
 2850 00d8 FB68     		ldr	r3, [r7, #12]
 2851 00da DB6C     		ldr	r3, [r3, #76]
 2852              		.loc 1 1810 34
 2853 00dc 284A     		ldr	r2, .L149+4
 2854 00de DA63     		str	r2, [r3, #60]
1811:Drivers/STM32F4xx_HAL_Driver/Src/stm32f4xx_hal_spi.c **** 
1812:Drivers/STM32F4xx_HAL_Driver/Src/stm32f4xx_hal_spi.c ****   /* Set the DMA error callback */
1813:Drivers/STM32F4xx_HAL_Driver/Src/stm32f4xx_hal_spi.c ****   hspi->hdmarx->XferErrorCallback = SPI_DMAError;
 2855              		.loc 1 1813 7
 2856 00e0 FB68     		ldr	r3, [r7, #12]
 2857 00e2 DB6C     		ldr	r3, [r3, #76]
 2858              		.loc 1 1813 35
 2859 00e4 274A     		ldr	r2, .L149+8
 2860 00e6 DA64     		str	r2, [r3, #76]
1814:Drivers/STM32F4xx_HAL_Driver/Src/stm32f4xx_hal_spi.c **** 
1815:Drivers/STM32F4xx_HAL_Driver/Src/stm32f4xx_hal_spi.c ****   /* Set the DMA AbortCpltCallback */
1816:Drivers/STM32F4xx_HAL_Driver/Src/stm32f4xx_hal_spi.c ****   hspi->hdmarx->XferAbortCallback = NULL;
 2861              		.loc 1 1816 7
 2862 00e8 FB68     		ldr	r3, [r7, #12]
 2863 00ea DB6C     		ldr	r3, [r3, #76]
ARM GAS  C:\Users\16323\AppData\Local\Temp\ccbQ7VoP.s 			page 83


 2864              		.loc 1 1816 35
 2865 00ec 0022     		movs	r2, #0
 2866 00ee 1A65     		str	r2, [r3, #80]
1817:Drivers/STM32F4xx_HAL_Driver/Src/stm32f4xx_hal_spi.c **** 
1818:Drivers/STM32F4xx_HAL_Driver/Src/stm32f4xx_hal_spi.c ****   /* Enable the Rx DMA Stream/Channel  */
1819:Drivers/STM32F4xx_HAL_Driver/Src/stm32f4xx_hal_spi.c ****   if (HAL_OK != HAL_DMA_Start_IT(hspi->hdmarx, (uint32_t)&hspi->Instance->DR, (uint32_t)hspi->pRxBu
 2867              		.loc 1 1819 17
 2868 00f0 FB68     		ldr	r3, [r7, #12]
 2869 00f2 D86C     		ldr	r0, [r3, #76]
 2870              		.loc 1 1819 63
 2871 00f4 FB68     		ldr	r3, [r7, #12]
 2872 00f6 1B68     		ldr	r3, [r3]
 2873              		.loc 1 1819 58
 2874 00f8 0C33     		adds	r3, r3, #12
 2875              		.loc 1 1819 17
 2876 00fa 1946     		mov	r1, r3
 2877              		.loc 1 1819 93
 2878 00fc FB68     		ldr	r3, [r7, #12]
 2879 00fe 9B6B     		ldr	r3, [r3, #56]
 2880              		.loc 1 1819 17
 2881 0100 1A46     		mov	r2, r3
1820:Drivers/STM32F4xx_HAL_Driver/Src/stm32f4xx_hal_spi.c ****                                  hspi->RxXferCount))
 2882              		.loc 1 1820 38
 2883 0102 FB68     		ldr	r3, [r7, #12]
 2884 0104 DB8F     		ldrh	r3, [r3, #62]	@ movhi
 2885 0106 9BB2     		uxth	r3, r3
1819:Drivers/STM32F4xx_HAL_Driver/Src/stm32f4xx_hal_spi.c ****                                  hspi->RxXferCount))
 2886              		.loc 1 1819 17
 2887 0108 FFF7FEFF 		bl	HAL_DMA_Start_IT
 2888 010c 0346     		mov	r3, r0
1819:Drivers/STM32F4xx_HAL_Driver/Src/stm32f4xx_hal_spi.c ****                                  hspi->RxXferCount))
 2889              		.loc 1 1819 6
 2890 010e 002B     		cmp	r3, #0
 2891 0110 0BD0     		beq	.L147
1821:Drivers/STM32F4xx_HAL_Driver/Src/stm32f4xx_hal_spi.c ****   {
1822:Drivers/STM32F4xx_HAL_Driver/Src/stm32f4xx_hal_spi.c ****     /* Update SPI error code */
1823:Drivers/STM32F4xx_HAL_Driver/Src/stm32f4xx_hal_spi.c ****     SET_BIT(hspi->ErrorCode, HAL_SPI_ERROR_DMA);
 2892              		.loc 1 1823 5
 2893 0112 FB68     		ldr	r3, [r7, #12]
 2894 0114 5B6D     		ldr	r3, [r3, #84]
 2895 0116 43F01002 		orr	r2, r3, #16
 2896 011a FB68     		ldr	r3, [r7, #12]
 2897 011c 5A65     		str	r2, [r3, #84]
1824:Drivers/STM32F4xx_HAL_Driver/Src/stm32f4xx_hal_spi.c ****     /* Process Unlocked */
1825:Drivers/STM32F4xx_HAL_Driver/Src/stm32f4xx_hal_spi.c ****     __HAL_UNLOCK(hspi);
 2898              		.loc 1 1825 5
 2899 011e FB68     		ldr	r3, [r7, #12]
 2900 0120 0022     		movs	r2, #0
 2901 0122 83F85020 		strb	r2, [r3, #80]
1826:Drivers/STM32F4xx_HAL_Driver/Src/stm32f4xx_hal_spi.c ****     return HAL_ERROR;
 2902              		.loc 1 1826 12
 2903 0126 0123     		movs	r3, #1
 2904 0128 23E0     		b	.L141
 2905              	.L147:
1827:Drivers/STM32F4xx_HAL_Driver/Src/stm32f4xx_hal_spi.c ****   }
1828:Drivers/STM32F4xx_HAL_Driver/Src/stm32f4xx_hal_spi.c **** 
1829:Drivers/STM32F4xx_HAL_Driver/Src/stm32f4xx_hal_spi.c ****   /* Check if the SPI is already enabled */
ARM GAS  C:\Users\16323\AppData\Local\Temp\ccbQ7VoP.s 			page 84


1830:Drivers/STM32F4xx_HAL_Driver/Src/stm32f4xx_hal_spi.c ****   if ((hspi->Instance->CR1 & SPI_CR1_SPE) != SPI_CR1_SPE)
 2906              		.loc 1 1830 12
 2907 012a FB68     		ldr	r3, [r7, #12]
 2908 012c 1B68     		ldr	r3, [r3]
 2909              		.loc 1 1830 22
 2910 012e 1B68     		ldr	r3, [r3]
 2911              		.loc 1 1830 28
 2912 0130 03F04003 		and	r3, r3, #64
 2913              		.loc 1 1830 6
 2914 0134 402B     		cmp	r3, #64
 2915 0136 07D0     		beq	.L148
1831:Drivers/STM32F4xx_HAL_Driver/Src/stm32f4xx_hal_spi.c ****   {
1832:Drivers/STM32F4xx_HAL_Driver/Src/stm32f4xx_hal_spi.c ****     /* Enable SPI peripheral */
1833:Drivers/STM32F4xx_HAL_Driver/Src/stm32f4xx_hal_spi.c ****     __HAL_SPI_ENABLE(hspi);
 2916              		.loc 1 1833 5
 2917 0138 FB68     		ldr	r3, [r7, #12]
 2918 013a 1B68     		ldr	r3, [r3]
 2919 013c 1A68     		ldr	r2, [r3]
 2920 013e FB68     		ldr	r3, [r7, #12]
 2921 0140 1B68     		ldr	r3, [r3]
 2922 0142 42F04002 		orr	r2, r2, #64
 2923 0146 1A60     		str	r2, [r3]
 2924              	.L148:
1834:Drivers/STM32F4xx_HAL_Driver/Src/stm32f4xx_hal_spi.c ****   }
1835:Drivers/STM32F4xx_HAL_Driver/Src/stm32f4xx_hal_spi.c **** 
1836:Drivers/STM32F4xx_HAL_Driver/Src/stm32f4xx_hal_spi.c ****   /* Process Unlocked */
1837:Drivers/STM32F4xx_HAL_Driver/Src/stm32f4xx_hal_spi.c ****   __HAL_UNLOCK(hspi);
 2925              		.loc 1 1837 3
 2926 0148 FB68     		ldr	r3, [r7, #12]
 2927 014a 0022     		movs	r2, #0
 2928 014c 83F85020 		strb	r2, [r3, #80]
1838:Drivers/STM32F4xx_HAL_Driver/Src/stm32f4xx_hal_spi.c **** 
1839:Drivers/STM32F4xx_HAL_Driver/Src/stm32f4xx_hal_spi.c ****   /* Enable the SPI Error Interrupt Bit */
1840:Drivers/STM32F4xx_HAL_Driver/Src/stm32f4xx_hal_spi.c ****   __HAL_SPI_ENABLE_IT(hspi, (SPI_IT_ERR));
 2929              		.loc 1 1840 3
 2930 0150 FB68     		ldr	r3, [r7, #12]
 2931 0152 1B68     		ldr	r3, [r3]
 2932 0154 5A68     		ldr	r2, [r3, #4]
 2933 0156 FB68     		ldr	r3, [r7, #12]
 2934 0158 1B68     		ldr	r3, [r3]
 2935 015a 42F02002 		orr	r2, r2, #32
 2936 015e 5A60     		str	r2, [r3, #4]
1841:Drivers/STM32F4xx_HAL_Driver/Src/stm32f4xx_hal_spi.c **** 
1842:Drivers/STM32F4xx_HAL_Driver/Src/stm32f4xx_hal_spi.c ****   /* Enable Rx DMA Request */
1843:Drivers/STM32F4xx_HAL_Driver/Src/stm32f4xx_hal_spi.c ****   SET_BIT(hspi->Instance->CR2, SPI_CR2_RXDMAEN);
 2937              		.loc 1 1843 3
 2938 0160 FB68     		ldr	r3, [r7, #12]
 2939 0162 1B68     		ldr	r3, [r3]
 2940 0164 5A68     		ldr	r2, [r3, #4]
 2941 0166 FB68     		ldr	r3, [r7, #12]
 2942 0168 1B68     		ldr	r3, [r3]
 2943 016a 42F00102 		orr	r2, r2, #1
 2944 016e 5A60     		str	r2, [r3, #4]
1844:Drivers/STM32F4xx_HAL_Driver/Src/stm32f4xx_hal_spi.c **** 
1845:Drivers/STM32F4xx_HAL_Driver/Src/stm32f4xx_hal_spi.c ****   return HAL_OK;
 2945              		.loc 1 1845 10
 2946 0170 0023     		movs	r3, #0
ARM GAS  C:\Users\16323\AppData\Local\Temp\ccbQ7VoP.s 			page 85


 2947              	.L141:
1846:Drivers/STM32F4xx_HAL_Driver/Src/stm32f4xx_hal_spi.c **** }
 2948              		.loc 1 1846 1
 2949 0172 1846     		mov	r0, r3
 2950 0174 1037     		adds	r7, r7, #16
 2951              	.LCFI62:
 2952              		.cfi_def_cfa_offset 8
 2953 0176 BD46     		mov	sp, r7
 2954              	.LCFI63:
 2955              		.cfi_def_cfa_register 13
 2956              		@ sp needed
 2957 0178 80BD     		pop	{r7, pc}
 2958              	.L150:
 2959 017a 00BF     		.align	2
 2960              	.L149:
 2961 017c 00000000 		.word	SPI_DMAHalfReceiveCplt
 2962 0180 00000000 		.word	SPI_DMAReceiveCplt
 2963 0184 00000000 		.word	SPI_DMAError
 2964              		.cfi_endproc
 2965              	.LFE250:
 2967              		.section	.text.HAL_SPI_TransmitReceive_DMA,"ax",%progbits
 2968              		.align	1
 2969              		.global	HAL_SPI_TransmitReceive_DMA
 2970              		.syntax unified
 2971              		.thumb
 2972              		.thumb_func
 2974              	HAL_SPI_TransmitReceive_DMA:
 2975              	.LFB251:
1847:Drivers/STM32F4xx_HAL_Driver/Src/stm32f4xx_hal_spi.c **** 
1848:Drivers/STM32F4xx_HAL_Driver/Src/stm32f4xx_hal_spi.c **** /**
1849:Drivers/STM32F4xx_HAL_Driver/Src/stm32f4xx_hal_spi.c ****   * @brief  Transmit and Receive an amount of data in non-blocking mode with DMA.
1850:Drivers/STM32F4xx_HAL_Driver/Src/stm32f4xx_hal_spi.c ****   * @param  hspi pointer to a SPI_HandleTypeDef structure that contains
1851:Drivers/STM32F4xx_HAL_Driver/Src/stm32f4xx_hal_spi.c ****   *               the configuration information for SPI module.
1852:Drivers/STM32F4xx_HAL_Driver/Src/stm32f4xx_hal_spi.c ****   * @param  pTxData pointer to transmission data buffer
1853:Drivers/STM32F4xx_HAL_Driver/Src/stm32f4xx_hal_spi.c ****   * @param  pRxData pointer to reception data buffer
1854:Drivers/STM32F4xx_HAL_Driver/Src/stm32f4xx_hal_spi.c ****   * @note   When the CRC feature is enabled the pRxData Length must be Size + 1
1855:Drivers/STM32F4xx_HAL_Driver/Src/stm32f4xx_hal_spi.c ****   * @param  Size amount of data to be sent
1856:Drivers/STM32F4xx_HAL_Driver/Src/stm32f4xx_hal_spi.c ****   * @retval HAL status
1857:Drivers/STM32F4xx_HAL_Driver/Src/stm32f4xx_hal_spi.c ****   */
1858:Drivers/STM32F4xx_HAL_Driver/Src/stm32f4xx_hal_spi.c **** HAL_StatusTypeDef HAL_SPI_TransmitReceive_DMA(SPI_HandleTypeDef *hspi, const uint8_t *pTxData, uint
1859:Drivers/STM32F4xx_HAL_Driver/Src/stm32f4xx_hal_spi.c ****                                               uint16_t Size)
1860:Drivers/STM32F4xx_HAL_Driver/Src/stm32f4xx_hal_spi.c **** {
 2976              		.loc 1 1860 1
 2977              		.cfi_startproc
 2978              		@ args = 0, pretend = 0, frame = 24
 2979              		@ frame_needed = 1, uses_anonymous_args = 0
 2980 0000 80B5     		push	{r7, lr}
 2981              	.LCFI64:
 2982              		.cfi_def_cfa_offset 8
 2983              		.cfi_offset 7, -8
 2984              		.cfi_offset 14, -4
 2985 0002 86B0     		sub	sp, sp, #24
 2986              	.LCFI65:
 2987              		.cfi_def_cfa_offset 32
 2988 0004 00AF     		add	r7, sp, #0
 2989              	.LCFI66:
 2990              		.cfi_def_cfa_register 7
ARM GAS  C:\Users\16323\AppData\Local\Temp\ccbQ7VoP.s 			page 86


 2991 0006 F860     		str	r0, [r7, #12]
 2992 0008 B960     		str	r1, [r7, #8]
 2993 000a 7A60     		str	r2, [r7, #4]
 2994 000c 7B80     		strh	r3, [r7, #2]	@ movhi
1861:Drivers/STM32F4xx_HAL_Driver/Src/stm32f4xx_hal_spi.c ****   uint32_t             tmp_mode;
1862:Drivers/STM32F4xx_HAL_Driver/Src/stm32f4xx_hal_spi.c ****   HAL_SPI_StateTypeDef tmp_state;
1863:Drivers/STM32F4xx_HAL_Driver/Src/stm32f4xx_hal_spi.c **** 
1864:Drivers/STM32F4xx_HAL_Driver/Src/stm32f4xx_hal_spi.c ****   /* Check rx & tx dma handles */
1865:Drivers/STM32F4xx_HAL_Driver/Src/stm32f4xx_hal_spi.c ****   assert_param(IS_SPI_DMA_HANDLE(hspi->hdmarx));
1866:Drivers/STM32F4xx_HAL_Driver/Src/stm32f4xx_hal_spi.c ****   assert_param(IS_SPI_DMA_HANDLE(hspi->hdmatx));
1867:Drivers/STM32F4xx_HAL_Driver/Src/stm32f4xx_hal_spi.c **** 
1868:Drivers/STM32F4xx_HAL_Driver/Src/stm32f4xx_hal_spi.c ****   /* Check Direction parameter */
1869:Drivers/STM32F4xx_HAL_Driver/Src/stm32f4xx_hal_spi.c ****   assert_param(IS_SPI_DIRECTION_2LINES(hspi->Init.Direction));
1870:Drivers/STM32F4xx_HAL_Driver/Src/stm32f4xx_hal_spi.c **** 
1871:Drivers/STM32F4xx_HAL_Driver/Src/stm32f4xx_hal_spi.c ****   /* Init temporary variables */
1872:Drivers/STM32F4xx_HAL_Driver/Src/stm32f4xx_hal_spi.c ****   tmp_state           = hspi->State;
 2995              		.loc 1 1872 23
 2996 000e FB68     		ldr	r3, [r7, #12]
 2997 0010 93F85130 		ldrb	r3, [r3, #81]
 2998 0014 FB75     		strb	r3, [r7, #23]
1873:Drivers/STM32F4xx_HAL_Driver/Src/stm32f4xx_hal_spi.c ****   tmp_mode            = hspi->Init.Mode;
 2999              		.loc 1 1873 23
 3000 0016 FB68     		ldr	r3, [r7, #12]
 3001 0018 5B68     		ldr	r3, [r3, #4]
 3002 001a 3B61     		str	r3, [r7, #16]
1874:Drivers/STM32F4xx_HAL_Driver/Src/stm32f4xx_hal_spi.c **** 
1875:Drivers/STM32F4xx_HAL_Driver/Src/stm32f4xx_hal_spi.c ****   if (!((tmp_state == HAL_SPI_STATE_READY) ||
 3003              		.loc 1 1875 6
 3004 001c FB7D     		ldrb	r3, [r7, #23]	@ zero_extendqisi2
 3005 001e 012B     		cmp	r3, #1
 3006 0020 0CD0     		beq	.L152
 3007              		.loc 1 1875 7 discriminator 1
 3008 0022 3B69     		ldr	r3, [r7, #16]
 3009 0024 B3F5827F 		cmp	r3, #260
 3010 0028 06D1     		bne	.L153
1876:Drivers/STM32F4xx_HAL_Driver/Src/stm32f4xx_hal_spi.c ****         ((tmp_mode == SPI_MODE_MASTER) && (hspi->Init.Direction == SPI_DIRECTION_2LINES) && (tmp_st
 3011              		.loc 1 1876 54
 3012 002a FB68     		ldr	r3, [r7, #12]
 3013 002c 9B68     		ldr	r3, [r3, #8]
 3014              		.loc 1 1876 40
 3015 002e 002B     		cmp	r3, #0
 3016 0030 02D1     		bne	.L153
 3017              		.loc 1 1876 90 discriminator 1
 3018 0032 FB7D     		ldrb	r3, [r7, #23]	@ zero_extendqisi2
 3019 0034 042B     		cmp	r3, #4
 3020 0036 01D0     		beq	.L152
 3021              	.L153:
1877:Drivers/STM32F4xx_HAL_Driver/Src/stm32f4xx_hal_spi.c ****   {
1878:Drivers/STM32F4xx_HAL_Driver/Src/stm32f4xx_hal_spi.c ****     return HAL_BUSY;
 3022              		.loc 1 1878 12
 3023 0038 0223     		movs	r3, #2
 3024 003a CFE0     		b	.L154
 3025              	.L152:
1879:Drivers/STM32F4xx_HAL_Driver/Src/stm32f4xx_hal_spi.c ****   }
1880:Drivers/STM32F4xx_HAL_Driver/Src/stm32f4xx_hal_spi.c **** 
1881:Drivers/STM32F4xx_HAL_Driver/Src/stm32f4xx_hal_spi.c ****   if ((pTxData == NULL) || (pRxData == NULL) || (Size == 0U))
 3026              		.loc 1 1881 6
ARM GAS  C:\Users\16323\AppData\Local\Temp\ccbQ7VoP.s 			page 87


 3027 003c BB68     		ldr	r3, [r7, #8]
 3028 003e 002B     		cmp	r3, #0
 3029 0040 05D0     		beq	.L155
 3030              		.loc 1 1881 25 discriminator 1
 3031 0042 7B68     		ldr	r3, [r7, #4]
 3032 0044 002B     		cmp	r3, #0
 3033 0046 02D0     		beq	.L155
 3034              		.loc 1 1881 46 discriminator 2
 3035 0048 7B88     		ldrh	r3, [r7, #2]
 3036 004a 002B     		cmp	r3, #0
 3037 004c 01D1     		bne	.L156
 3038              	.L155:
1882:Drivers/STM32F4xx_HAL_Driver/Src/stm32f4xx_hal_spi.c ****   {
1883:Drivers/STM32F4xx_HAL_Driver/Src/stm32f4xx_hal_spi.c ****     return HAL_ERROR;
 3039              		.loc 1 1883 12
 3040 004e 0123     		movs	r3, #1
 3041 0050 C4E0     		b	.L154
 3042              	.L156:
1884:Drivers/STM32F4xx_HAL_Driver/Src/stm32f4xx_hal_spi.c ****   }
1885:Drivers/STM32F4xx_HAL_Driver/Src/stm32f4xx_hal_spi.c **** 
1886:Drivers/STM32F4xx_HAL_Driver/Src/stm32f4xx_hal_spi.c ****   /* Process locked */
1887:Drivers/STM32F4xx_HAL_Driver/Src/stm32f4xx_hal_spi.c ****   __HAL_LOCK(hspi);
 3043              		.loc 1 1887 3
 3044 0052 FB68     		ldr	r3, [r7, #12]
 3045 0054 93F85030 		ldrb	r3, [r3, #80]	@ zero_extendqisi2
 3046 0058 012B     		cmp	r3, #1
 3047 005a 01D1     		bne	.L157
 3048              		.loc 1 1887 3 is_stmt 0 discriminator 1
 3049 005c 0223     		movs	r3, #2
 3050 005e BDE0     		b	.L154
 3051              	.L157:
 3052              		.loc 1 1887 3 discriminator 2
 3053 0060 FB68     		ldr	r3, [r7, #12]
 3054 0062 0122     		movs	r2, #1
 3055 0064 83F85020 		strb	r2, [r3, #80]
1888:Drivers/STM32F4xx_HAL_Driver/Src/stm32f4xx_hal_spi.c **** 
1889:Drivers/STM32F4xx_HAL_Driver/Src/stm32f4xx_hal_spi.c ****   /* Don't overwrite in case of HAL_SPI_STATE_BUSY_RX */
1890:Drivers/STM32F4xx_HAL_Driver/Src/stm32f4xx_hal_spi.c ****   if (hspi->State != HAL_SPI_STATE_BUSY_RX)
 3056              		.loc 1 1890 11 is_stmt 1 discriminator 2
 3057 0068 FB68     		ldr	r3, [r7, #12]
 3058 006a 93F85130 		ldrb	r3, [r3, #81]
 3059 006e DBB2     		uxtb	r3, r3
 3060              		.loc 1 1890 6 discriminator 2
 3061 0070 042B     		cmp	r3, #4
 3062 0072 03D0     		beq	.L158
1891:Drivers/STM32F4xx_HAL_Driver/Src/stm32f4xx_hal_spi.c ****   {
1892:Drivers/STM32F4xx_HAL_Driver/Src/stm32f4xx_hal_spi.c ****     hspi->State = HAL_SPI_STATE_BUSY_TX_RX;
 3063              		.loc 1 1892 17
 3064 0074 FB68     		ldr	r3, [r7, #12]
 3065 0076 0522     		movs	r2, #5
 3066 0078 83F85120 		strb	r2, [r3, #81]
 3067              	.L158:
1893:Drivers/STM32F4xx_HAL_Driver/Src/stm32f4xx_hal_spi.c ****   }
1894:Drivers/STM32F4xx_HAL_Driver/Src/stm32f4xx_hal_spi.c **** 
1895:Drivers/STM32F4xx_HAL_Driver/Src/stm32f4xx_hal_spi.c ****   /* Set the transaction information */
1896:Drivers/STM32F4xx_HAL_Driver/Src/stm32f4xx_hal_spi.c ****   hspi->ErrorCode   = HAL_SPI_ERROR_NONE;
 3068              		.loc 1 1896 21
ARM GAS  C:\Users\16323\AppData\Local\Temp\ccbQ7VoP.s 			page 88


 3069 007c FB68     		ldr	r3, [r7, #12]
 3070 007e 0022     		movs	r2, #0
 3071 0080 5A65     		str	r2, [r3, #84]
1897:Drivers/STM32F4xx_HAL_Driver/Src/stm32f4xx_hal_spi.c ****   hspi->pTxBuffPtr  = (const uint8_t *)pTxData;
 3072              		.loc 1 1897 21
 3073 0082 FB68     		ldr	r3, [r7, #12]
 3074 0084 BA68     		ldr	r2, [r7, #8]
 3075 0086 1A63     		str	r2, [r3, #48]
1898:Drivers/STM32F4xx_HAL_Driver/Src/stm32f4xx_hal_spi.c ****   hspi->TxXferSize  = Size;
 3076              		.loc 1 1898 21
 3077 0088 FB68     		ldr	r3, [r7, #12]
 3078 008a 7A88     		ldrh	r2, [r7, #2]	@ movhi
 3079 008c 9A86     		strh	r2, [r3, #52]	@ movhi
1899:Drivers/STM32F4xx_HAL_Driver/Src/stm32f4xx_hal_spi.c ****   hspi->TxXferCount = Size;
 3080              		.loc 1 1899 21
 3081 008e FB68     		ldr	r3, [r7, #12]
 3082 0090 7A88     		ldrh	r2, [r7, #2]	@ movhi
 3083 0092 DA86     		strh	r2, [r3, #54]	@ movhi
1900:Drivers/STM32F4xx_HAL_Driver/Src/stm32f4xx_hal_spi.c ****   hspi->pRxBuffPtr  = (uint8_t *)pRxData;
 3084              		.loc 1 1900 21
 3085 0094 FB68     		ldr	r3, [r7, #12]
 3086 0096 7A68     		ldr	r2, [r7, #4]
 3087 0098 9A63     		str	r2, [r3, #56]
1901:Drivers/STM32F4xx_HAL_Driver/Src/stm32f4xx_hal_spi.c ****   hspi->RxXferSize  = Size;
 3088              		.loc 1 1901 21
 3089 009a FB68     		ldr	r3, [r7, #12]
 3090 009c 7A88     		ldrh	r2, [r7, #2]	@ movhi
 3091 009e 9A87     		strh	r2, [r3, #60]	@ movhi
1902:Drivers/STM32F4xx_HAL_Driver/Src/stm32f4xx_hal_spi.c ****   hspi->RxXferCount = Size;
 3092              		.loc 1 1902 21
 3093 00a0 FB68     		ldr	r3, [r7, #12]
 3094 00a2 7A88     		ldrh	r2, [r7, #2]	@ movhi
 3095 00a4 DA87     		strh	r2, [r3, #62]	@ movhi
1903:Drivers/STM32F4xx_HAL_Driver/Src/stm32f4xx_hal_spi.c **** 
1904:Drivers/STM32F4xx_HAL_Driver/Src/stm32f4xx_hal_spi.c ****   /* Init field not used in handle to zero */
1905:Drivers/STM32F4xx_HAL_Driver/Src/stm32f4xx_hal_spi.c ****   hspi->RxISR       = NULL;
 3096              		.loc 1 1905 21
 3097 00a6 FB68     		ldr	r3, [r7, #12]
 3098 00a8 0022     		movs	r2, #0
 3099 00aa 1A64     		str	r2, [r3, #64]
1906:Drivers/STM32F4xx_HAL_Driver/Src/stm32f4xx_hal_spi.c ****   hspi->TxISR       = NULL;
 3100              		.loc 1 1906 21
 3101 00ac FB68     		ldr	r3, [r7, #12]
 3102 00ae 0022     		movs	r2, #0
 3103 00b0 5A64     		str	r2, [r3, #68]
1907:Drivers/STM32F4xx_HAL_Driver/Src/stm32f4xx_hal_spi.c **** 
1908:Drivers/STM32F4xx_HAL_Driver/Src/stm32f4xx_hal_spi.c **** #if (USE_SPI_CRC != 0U)
1909:Drivers/STM32F4xx_HAL_Driver/Src/stm32f4xx_hal_spi.c ****   /* Reset CRC Calculation */
1910:Drivers/STM32F4xx_HAL_Driver/Src/stm32f4xx_hal_spi.c ****   if (hspi->Init.CRCCalculation == SPI_CRCCALCULATION_ENABLE)
1911:Drivers/STM32F4xx_HAL_Driver/Src/stm32f4xx_hal_spi.c ****   {
1912:Drivers/STM32F4xx_HAL_Driver/Src/stm32f4xx_hal_spi.c ****     SPI_RESET_CRC(hspi);
1913:Drivers/STM32F4xx_HAL_Driver/Src/stm32f4xx_hal_spi.c ****   }
1914:Drivers/STM32F4xx_HAL_Driver/Src/stm32f4xx_hal_spi.c **** #endif /* USE_SPI_CRC */
1915:Drivers/STM32F4xx_HAL_Driver/Src/stm32f4xx_hal_spi.c **** 
1916:Drivers/STM32F4xx_HAL_Driver/Src/stm32f4xx_hal_spi.c ****   /* Check if we are in Rx only or in Rx/Tx Mode and configure the DMA transfer complete callback *
1917:Drivers/STM32F4xx_HAL_Driver/Src/stm32f4xx_hal_spi.c ****   if (hspi->State == HAL_SPI_STATE_BUSY_RX)
 3104              		.loc 1 1917 11
ARM GAS  C:\Users\16323\AppData\Local\Temp\ccbQ7VoP.s 			page 89


 3105 00b2 FB68     		ldr	r3, [r7, #12]
 3106 00b4 93F85130 		ldrb	r3, [r3, #81]
 3107 00b8 DBB2     		uxtb	r3, r3
 3108              		.loc 1 1917 6
 3109 00ba 042B     		cmp	r3, #4
 3110 00bc 08D1     		bne	.L159
1918:Drivers/STM32F4xx_HAL_Driver/Src/stm32f4xx_hal_spi.c ****   {
1919:Drivers/STM32F4xx_HAL_Driver/Src/stm32f4xx_hal_spi.c ****     /* Set the SPI Rx DMA Half transfer complete callback */
1920:Drivers/STM32F4xx_HAL_Driver/Src/stm32f4xx_hal_spi.c ****     hspi->hdmarx->XferHalfCpltCallback = SPI_DMAHalfReceiveCplt;
 3111              		.loc 1 1920 9
 3112 00be FB68     		ldr	r3, [r7, #12]
 3113 00c0 DB6C     		ldr	r3, [r3, #76]
 3114              		.loc 1 1920 40
 3115 00c2 484A     		ldr	r2, .L164
 3116 00c4 1A64     		str	r2, [r3, #64]
1921:Drivers/STM32F4xx_HAL_Driver/Src/stm32f4xx_hal_spi.c ****     hspi->hdmarx->XferCpltCallback     = SPI_DMAReceiveCplt;
 3117              		.loc 1 1921 9
 3118 00c6 FB68     		ldr	r3, [r7, #12]
 3119 00c8 DB6C     		ldr	r3, [r3, #76]
 3120              		.loc 1 1921 40
 3121 00ca 474A     		ldr	r2, .L164+4
 3122 00cc DA63     		str	r2, [r3, #60]
 3123 00ce 07E0     		b	.L160
 3124              	.L159:
1922:Drivers/STM32F4xx_HAL_Driver/Src/stm32f4xx_hal_spi.c ****   }
1923:Drivers/STM32F4xx_HAL_Driver/Src/stm32f4xx_hal_spi.c ****   else
1924:Drivers/STM32F4xx_HAL_Driver/Src/stm32f4xx_hal_spi.c ****   {
1925:Drivers/STM32F4xx_HAL_Driver/Src/stm32f4xx_hal_spi.c ****     /* Set the SPI Tx/Rx DMA Half transfer complete callback */
1926:Drivers/STM32F4xx_HAL_Driver/Src/stm32f4xx_hal_spi.c ****     hspi->hdmarx->XferHalfCpltCallback = SPI_DMAHalfTransmitReceiveCplt;
 3125              		.loc 1 1926 9
 3126 00d0 FB68     		ldr	r3, [r7, #12]
 3127 00d2 DB6C     		ldr	r3, [r3, #76]
 3128              		.loc 1 1926 40
 3129 00d4 454A     		ldr	r2, .L164+8
 3130 00d6 1A64     		str	r2, [r3, #64]
1927:Drivers/STM32F4xx_HAL_Driver/Src/stm32f4xx_hal_spi.c ****     hspi->hdmarx->XferCpltCallback     = SPI_DMATransmitReceiveCplt;
 3131              		.loc 1 1927 9
 3132 00d8 FB68     		ldr	r3, [r7, #12]
 3133 00da DB6C     		ldr	r3, [r3, #76]
 3134              		.loc 1 1927 40
 3135 00dc 444A     		ldr	r2, .L164+12
 3136 00de DA63     		str	r2, [r3, #60]
 3137              	.L160:
1928:Drivers/STM32F4xx_HAL_Driver/Src/stm32f4xx_hal_spi.c ****   }
1929:Drivers/STM32F4xx_HAL_Driver/Src/stm32f4xx_hal_spi.c **** 
1930:Drivers/STM32F4xx_HAL_Driver/Src/stm32f4xx_hal_spi.c ****   /* Set the DMA error callback */
1931:Drivers/STM32F4xx_HAL_Driver/Src/stm32f4xx_hal_spi.c ****   hspi->hdmarx->XferErrorCallback = SPI_DMAError;
 3138              		.loc 1 1931 7
 3139 00e0 FB68     		ldr	r3, [r7, #12]
 3140 00e2 DB6C     		ldr	r3, [r3, #76]
 3141              		.loc 1 1931 35
 3142 00e4 434A     		ldr	r2, .L164+16
 3143 00e6 DA64     		str	r2, [r3, #76]
1932:Drivers/STM32F4xx_HAL_Driver/Src/stm32f4xx_hal_spi.c **** 
1933:Drivers/STM32F4xx_HAL_Driver/Src/stm32f4xx_hal_spi.c ****   /* Set the DMA AbortCpltCallback */
1934:Drivers/STM32F4xx_HAL_Driver/Src/stm32f4xx_hal_spi.c ****   hspi->hdmarx->XferAbortCallback = NULL;
 3144              		.loc 1 1934 7
ARM GAS  C:\Users\16323\AppData\Local\Temp\ccbQ7VoP.s 			page 90


 3145 00e8 FB68     		ldr	r3, [r7, #12]
 3146 00ea DB6C     		ldr	r3, [r3, #76]
 3147              		.loc 1 1934 35
 3148 00ec 0022     		movs	r2, #0
 3149 00ee 1A65     		str	r2, [r3, #80]
1935:Drivers/STM32F4xx_HAL_Driver/Src/stm32f4xx_hal_spi.c **** 
1936:Drivers/STM32F4xx_HAL_Driver/Src/stm32f4xx_hal_spi.c ****   /* Enable the Rx DMA Stream/Channel  */
1937:Drivers/STM32F4xx_HAL_Driver/Src/stm32f4xx_hal_spi.c ****   if (HAL_OK != HAL_DMA_Start_IT(hspi->hdmarx, (uint32_t)&hspi->Instance->DR, (uint32_t)hspi->pRxBu
 3150              		.loc 1 1937 17
 3151 00f0 FB68     		ldr	r3, [r7, #12]
 3152 00f2 D86C     		ldr	r0, [r3, #76]
 3153              		.loc 1 1937 63
 3154 00f4 FB68     		ldr	r3, [r7, #12]
 3155 00f6 1B68     		ldr	r3, [r3]
 3156              		.loc 1 1937 58
 3157 00f8 0C33     		adds	r3, r3, #12
 3158              		.loc 1 1937 17
 3159 00fa 1946     		mov	r1, r3
 3160              		.loc 1 1937 93
 3161 00fc FB68     		ldr	r3, [r7, #12]
 3162 00fe 9B6B     		ldr	r3, [r3, #56]
 3163              		.loc 1 1937 17
 3164 0100 1A46     		mov	r2, r3
1938:Drivers/STM32F4xx_HAL_Driver/Src/stm32f4xx_hal_spi.c ****                                  hspi->RxXferCount))
 3165              		.loc 1 1938 38
 3166 0102 FB68     		ldr	r3, [r7, #12]
 3167 0104 DB8F     		ldrh	r3, [r3, #62]	@ movhi
 3168 0106 9BB2     		uxth	r3, r3
1937:Drivers/STM32F4xx_HAL_Driver/Src/stm32f4xx_hal_spi.c ****                                  hspi->RxXferCount))
 3169              		.loc 1 1937 17
 3170 0108 FFF7FEFF 		bl	HAL_DMA_Start_IT
 3171 010c 0346     		mov	r3, r0
1937:Drivers/STM32F4xx_HAL_Driver/Src/stm32f4xx_hal_spi.c ****                                  hspi->RxXferCount))
 3172              		.loc 1 1937 6
 3173 010e 002B     		cmp	r3, #0
 3174 0110 0BD0     		beq	.L161
1939:Drivers/STM32F4xx_HAL_Driver/Src/stm32f4xx_hal_spi.c ****   {
1940:Drivers/STM32F4xx_HAL_Driver/Src/stm32f4xx_hal_spi.c ****     /* Update SPI error code */
1941:Drivers/STM32F4xx_HAL_Driver/Src/stm32f4xx_hal_spi.c ****     SET_BIT(hspi->ErrorCode, HAL_SPI_ERROR_DMA);
 3175              		.loc 1 1941 5
 3176 0112 FB68     		ldr	r3, [r7, #12]
 3177 0114 5B6D     		ldr	r3, [r3, #84]
 3178 0116 43F01002 		orr	r2, r3, #16
 3179 011a FB68     		ldr	r3, [r7, #12]
 3180 011c 5A65     		str	r2, [r3, #84]
1942:Drivers/STM32F4xx_HAL_Driver/Src/stm32f4xx_hal_spi.c ****     /* Process Unlocked */
1943:Drivers/STM32F4xx_HAL_Driver/Src/stm32f4xx_hal_spi.c ****     __HAL_UNLOCK(hspi);
 3181              		.loc 1 1943 5
 3182 011e FB68     		ldr	r3, [r7, #12]
 3183 0120 0022     		movs	r2, #0
 3184 0122 83F85020 		strb	r2, [r3, #80]
1944:Drivers/STM32F4xx_HAL_Driver/Src/stm32f4xx_hal_spi.c ****     return HAL_ERROR;
 3185              		.loc 1 1944 12
 3186 0126 0123     		movs	r3, #1
 3187 0128 58E0     		b	.L154
 3188              	.L161:
1945:Drivers/STM32F4xx_HAL_Driver/Src/stm32f4xx_hal_spi.c ****   }
ARM GAS  C:\Users\16323\AppData\Local\Temp\ccbQ7VoP.s 			page 91


1946:Drivers/STM32F4xx_HAL_Driver/Src/stm32f4xx_hal_spi.c **** 
1947:Drivers/STM32F4xx_HAL_Driver/Src/stm32f4xx_hal_spi.c ****   /* Enable Rx DMA Request */
1948:Drivers/STM32F4xx_HAL_Driver/Src/stm32f4xx_hal_spi.c ****   SET_BIT(hspi->Instance->CR2, SPI_CR2_RXDMAEN);
 3189              		.loc 1 1948 3
 3190 012a FB68     		ldr	r3, [r7, #12]
 3191 012c 1B68     		ldr	r3, [r3]
 3192 012e 5A68     		ldr	r2, [r3, #4]
 3193 0130 FB68     		ldr	r3, [r7, #12]
 3194 0132 1B68     		ldr	r3, [r3]
 3195 0134 42F00102 		orr	r2, r2, #1
 3196 0138 5A60     		str	r2, [r3, #4]
1949:Drivers/STM32F4xx_HAL_Driver/Src/stm32f4xx_hal_spi.c **** 
1950:Drivers/STM32F4xx_HAL_Driver/Src/stm32f4xx_hal_spi.c ****   /* Set the SPI Tx DMA transfer complete callback as NULL because the communication closing
1951:Drivers/STM32F4xx_HAL_Driver/Src/stm32f4xx_hal_spi.c ****   is performed in DMA reception complete callback  */
1952:Drivers/STM32F4xx_HAL_Driver/Src/stm32f4xx_hal_spi.c ****   hspi->hdmatx->XferHalfCpltCallback = NULL;
 3197              		.loc 1 1952 7
 3198 013a FB68     		ldr	r3, [r7, #12]
 3199 013c 9B6C     		ldr	r3, [r3, #72]
 3200              		.loc 1 1952 38
 3201 013e 0022     		movs	r2, #0
 3202 0140 1A64     		str	r2, [r3, #64]
1953:Drivers/STM32F4xx_HAL_Driver/Src/stm32f4xx_hal_spi.c ****   hspi->hdmatx->XferCpltCallback     = NULL;
 3203              		.loc 1 1953 7
 3204 0142 FB68     		ldr	r3, [r7, #12]
 3205 0144 9B6C     		ldr	r3, [r3, #72]
 3206              		.loc 1 1953 38
 3207 0146 0022     		movs	r2, #0
 3208 0148 DA63     		str	r2, [r3, #60]
1954:Drivers/STM32F4xx_HAL_Driver/Src/stm32f4xx_hal_spi.c ****   hspi->hdmatx->XferErrorCallback    = NULL;
 3209              		.loc 1 1954 7
 3210 014a FB68     		ldr	r3, [r7, #12]
 3211 014c 9B6C     		ldr	r3, [r3, #72]
 3212              		.loc 1 1954 38
 3213 014e 0022     		movs	r2, #0
 3214 0150 DA64     		str	r2, [r3, #76]
1955:Drivers/STM32F4xx_HAL_Driver/Src/stm32f4xx_hal_spi.c ****   hspi->hdmatx->XferAbortCallback    = NULL;
 3215              		.loc 1 1955 7
 3216 0152 FB68     		ldr	r3, [r7, #12]
 3217 0154 9B6C     		ldr	r3, [r3, #72]
 3218              		.loc 1 1955 38
 3219 0156 0022     		movs	r2, #0
 3220 0158 1A65     		str	r2, [r3, #80]
1956:Drivers/STM32F4xx_HAL_Driver/Src/stm32f4xx_hal_spi.c **** 
1957:Drivers/STM32F4xx_HAL_Driver/Src/stm32f4xx_hal_spi.c ****   /* Enable the Tx DMA Stream/Channel  */
1958:Drivers/STM32F4xx_HAL_Driver/Src/stm32f4xx_hal_spi.c ****   if (HAL_OK != HAL_DMA_Start_IT(hspi->hdmatx, (uint32_t)hspi->pTxBuffPtr, (uint32_t)&hspi->Instanc
 3221              		.loc 1 1958 17
 3222 015a FB68     		ldr	r3, [r7, #12]
 3223 015c 986C     		ldr	r0, [r3, #72]
 3224              		.loc 1 1958 62
 3225 015e FB68     		ldr	r3, [r7, #12]
 3226 0160 1B6B     		ldr	r3, [r3, #48]
 3227              		.loc 1 1958 17
 3228 0162 1946     		mov	r1, r3
 3229              		.loc 1 1958 91
 3230 0164 FB68     		ldr	r3, [r7, #12]
 3231 0166 1B68     		ldr	r3, [r3]
 3232              		.loc 1 1958 86
ARM GAS  C:\Users\16323\AppData\Local\Temp\ccbQ7VoP.s 			page 92


 3233 0168 0C33     		adds	r3, r3, #12
 3234              		.loc 1 1958 17
 3235 016a 1A46     		mov	r2, r3
1959:Drivers/STM32F4xx_HAL_Driver/Src/stm32f4xx_hal_spi.c ****                                  hspi->TxXferCount))
 3236              		.loc 1 1959 38
 3237 016c FB68     		ldr	r3, [r7, #12]
 3238 016e DB8E     		ldrh	r3, [r3, #54]	@ movhi
 3239 0170 9BB2     		uxth	r3, r3
1958:Drivers/STM32F4xx_HAL_Driver/Src/stm32f4xx_hal_spi.c ****                                  hspi->TxXferCount))
 3240              		.loc 1 1958 17
 3241 0172 FFF7FEFF 		bl	HAL_DMA_Start_IT
 3242 0176 0346     		mov	r3, r0
1958:Drivers/STM32F4xx_HAL_Driver/Src/stm32f4xx_hal_spi.c ****                                  hspi->TxXferCount))
 3243              		.loc 1 1958 6
 3244 0178 002B     		cmp	r3, #0
 3245 017a 0BD0     		beq	.L162
1960:Drivers/STM32F4xx_HAL_Driver/Src/stm32f4xx_hal_spi.c ****   {
1961:Drivers/STM32F4xx_HAL_Driver/Src/stm32f4xx_hal_spi.c ****     /* Update SPI error code */
1962:Drivers/STM32F4xx_HAL_Driver/Src/stm32f4xx_hal_spi.c ****     SET_BIT(hspi->ErrorCode, HAL_SPI_ERROR_DMA);
 3246              		.loc 1 1962 5
 3247 017c FB68     		ldr	r3, [r7, #12]
 3248 017e 5B6D     		ldr	r3, [r3, #84]
 3249 0180 43F01002 		orr	r2, r3, #16
 3250 0184 FB68     		ldr	r3, [r7, #12]
 3251 0186 5A65     		str	r2, [r3, #84]
1963:Drivers/STM32F4xx_HAL_Driver/Src/stm32f4xx_hal_spi.c ****     /* Process Unlocked */
1964:Drivers/STM32F4xx_HAL_Driver/Src/stm32f4xx_hal_spi.c ****     __HAL_UNLOCK(hspi);
 3252              		.loc 1 1964 5
 3253 0188 FB68     		ldr	r3, [r7, #12]
 3254 018a 0022     		movs	r2, #0
 3255 018c 83F85020 		strb	r2, [r3, #80]
1965:Drivers/STM32F4xx_HAL_Driver/Src/stm32f4xx_hal_spi.c ****     return HAL_ERROR;
 3256              		.loc 1 1965 12
 3257 0190 0123     		movs	r3, #1
 3258 0192 23E0     		b	.L154
 3259              	.L162:
1966:Drivers/STM32F4xx_HAL_Driver/Src/stm32f4xx_hal_spi.c ****   }
1967:Drivers/STM32F4xx_HAL_Driver/Src/stm32f4xx_hal_spi.c **** 
1968:Drivers/STM32F4xx_HAL_Driver/Src/stm32f4xx_hal_spi.c ****   /* Check if the SPI is already enabled */
1969:Drivers/STM32F4xx_HAL_Driver/Src/stm32f4xx_hal_spi.c ****   if ((hspi->Instance->CR1 & SPI_CR1_SPE) != SPI_CR1_SPE)
 3260              		.loc 1 1969 12
 3261 0194 FB68     		ldr	r3, [r7, #12]
 3262 0196 1B68     		ldr	r3, [r3]
 3263              		.loc 1 1969 22
 3264 0198 1B68     		ldr	r3, [r3]
 3265              		.loc 1 1969 28
 3266 019a 03F04003 		and	r3, r3, #64
 3267              		.loc 1 1969 6
 3268 019e 402B     		cmp	r3, #64
 3269 01a0 07D0     		beq	.L163
1970:Drivers/STM32F4xx_HAL_Driver/Src/stm32f4xx_hal_spi.c ****   {
1971:Drivers/STM32F4xx_HAL_Driver/Src/stm32f4xx_hal_spi.c ****     /* Enable SPI peripheral */
1972:Drivers/STM32F4xx_HAL_Driver/Src/stm32f4xx_hal_spi.c ****     __HAL_SPI_ENABLE(hspi);
 3270              		.loc 1 1972 5
 3271 01a2 FB68     		ldr	r3, [r7, #12]
 3272 01a4 1B68     		ldr	r3, [r3]
 3273 01a6 1A68     		ldr	r2, [r3]
ARM GAS  C:\Users\16323\AppData\Local\Temp\ccbQ7VoP.s 			page 93


 3274 01a8 FB68     		ldr	r3, [r7, #12]
 3275 01aa 1B68     		ldr	r3, [r3]
 3276 01ac 42F04002 		orr	r2, r2, #64
 3277 01b0 1A60     		str	r2, [r3]
 3278              	.L163:
1973:Drivers/STM32F4xx_HAL_Driver/Src/stm32f4xx_hal_spi.c ****   }
1974:Drivers/STM32F4xx_HAL_Driver/Src/stm32f4xx_hal_spi.c **** 
1975:Drivers/STM32F4xx_HAL_Driver/Src/stm32f4xx_hal_spi.c ****   /* Process Unlocked */
1976:Drivers/STM32F4xx_HAL_Driver/Src/stm32f4xx_hal_spi.c ****   __HAL_UNLOCK(hspi);
 3279              		.loc 1 1976 3
 3280 01b2 FB68     		ldr	r3, [r7, #12]
 3281 01b4 0022     		movs	r2, #0
 3282 01b6 83F85020 		strb	r2, [r3, #80]
1977:Drivers/STM32F4xx_HAL_Driver/Src/stm32f4xx_hal_spi.c **** 
1978:Drivers/STM32F4xx_HAL_Driver/Src/stm32f4xx_hal_spi.c ****   /* Enable the SPI Error Interrupt Bit */
1979:Drivers/STM32F4xx_HAL_Driver/Src/stm32f4xx_hal_spi.c ****   __HAL_SPI_ENABLE_IT(hspi, (SPI_IT_ERR));
 3283              		.loc 1 1979 3
 3284 01ba FB68     		ldr	r3, [r7, #12]
 3285 01bc 1B68     		ldr	r3, [r3]
 3286 01be 5A68     		ldr	r2, [r3, #4]
 3287 01c0 FB68     		ldr	r3, [r7, #12]
 3288 01c2 1B68     		ldr	r3, [r3]
 3289 01c4 42F02002 		orr	r2, r2, #32
 3290 01c8 5A60     		str	r2, [r3, #4]
1980:Drivers/STM32F4xx_HAL_Driver/Src/stm32f4xx_hal_spi.c **** 
1981:Drivers/STM32F4xx_HAL_Driver/Src/stm32f4xx_hal_spi.c ****   /* Enable Tx DMA Request */
1982:Drivers/STM32F4xx_HAL_Driver/Src/stm32f4xx_hal_spi.c ****   SET_BIT(hspi->Instance->CR2, SPI_CR2_TXDMAEN);
 3291              		.loc 1 1982 3
 3292 01ca FB68     		ldr	r3, [r7, #12]
 3293 01cc 1B68     		ldr	r3, [r3]
 3294 01ce 5A68     		ldr	r2, [r3, #4]
 3295 01d0 FB68     		ldr	r3, [r7, #12]
 3296 01d2 1B68     		ldr	r3, [r3]
 3297 01d4 42F00202 		orr	r2, r2, #2
 3298 01d8 5A60     		str	r2, [r3, #4]
1983:Drivers/STM32F4xx_HAL_Driver/Src/stm32f4xx_hal_spi.c **** 
1984:Drivers/STM32F4xx_HAL_Driver/Src/stm32f4xx_hal_spi.c ****   return HAL_OK;
 3299              		.loc 1 1984 10
 3300 01da 0023     		movs	r3, #0
 3301              	.L154:
1985:Drivers/STM32F4xx_HAL_Driver/Src/stm32f4xx_hal_spi.c **** }
 3302              		.loc 1 1985 1
 3303 01dc 1846     		mov	r0, r3
 3304 01de 1837     		adds	r7, r7, #24
 3305              	.LCFI67:
 3306              		.cfi_def_cfa_offset 8
 3307 01e0 BD46     		mov	sp, r7
 3308              	.LCFI68:
 3309              		.cfi_def_cfa_register 13
 3310              		@ sp needed
 3311 01e2 80BD     		pop	{r7, pc}
 3312              	.L165:
 3313              		.align	2
 3314              	.L164:
 3315 01e4 00000000 		.word	SPI_DMAHalfReceiveCplt
 3316 01e8 00000000 		.word	SPI_DMAReceiveCplt
 3317 01ec 00000000 		.word	SPI_DMAHalfTransmitReceiveCplt
ARM GAS  C:\Users\16323\AppData\Local\Temp\ccbQ7VoP.s 			page 94


 3318 01f0 00000000 		.word	SPI_DMATransmitReceiveCplt
 3319 01f4 00000000 		.word	SPI_DMAError
 3320              		.cfi_endproc
 3321              	.LFE251:
 3323              		.section	.text.HAL_SPI_Abort,"ax",%progbits
 3324              		.align	1
 3325              		.global	HAL_SPI_Abort
 3326              		.syntax unified
 3327              		.thumb
 3328              		.thumb_func
 3330              	HAL_SPI_Abort:
 3331              	.LFB252:
1986:Drivers/STM32F4xx_HAL_Driver/Src/stm32f4xx_hal_spi.c **** 
1987:Drivers/STM32F4xx_HAL_Driver/Src/stm32f4xx_hal_spi.c **** /**
1988:Drivers/STM32F4xx_HAL_Driver/Src/stm32f4xx_hal_spi.c ****   * @brief  Abort ongoing transfer (blocking mode).
1989:Drivers/STM32F4xx_HAL_Driver/Src/stm32f4xx_hal_spi.c ****   * @param  hspi SPI handle.
1990:Drivers/STM32F4xx_HAL_Driver/Src/stm32f4xx_hal_spi.c ****   * @note   This procedure could be used for aborting any ongoing transfer (Tx and Rx),
1991:Drivers/STM32F4xx_HAL_Driver/Src/stm32f4xx_hal_spi.c ****   *         started in Interrupt or DMA mode.
1992:Drivers/STM32F4xx_HAL_Driver/Src/stm32f4xx_hal_spi.c ****   *         This procedure performs following operations :
1993:Drivers/STM32F4xx_HAL_Driver/Src/stm32f4xx_hal_spi.c ****   *           - Disable SPI Interrupts (depending of transfer direction)
1994:Drivers/STM32F4xx_HAL_Driver/Src/stm32f4xx_hal_spi.c ****   *           - Disable the DMA transfer in the peripheral register (if enabled)
1995:Drivers/STM32F4xx_HAL_Driver/Src/stm32f4xx_hal_spi.c ****   *           - Abort DMA transfer by calling HAL_DMA_Abort (in case of transfer in DMA mode)
1996:Drivers/STM32F4xx_HAL_Driver/Src/stm32f4xx_hal_spi.c ****   *           - Set handle State to READY
1997:Drivers/STM32F4xx_HAL_Driver/Src/stm32f4xx_hal_spi.c ****   * @note   This procedure is executed in blocking mode : when exiting function, Abort is considere
1998:Drivers/STM32F4xx_HAL_Driver/Src/stm32f4xx_hal_spi.c ****   * @retval HAL status
1999:Drivers/STM32F4xx_HAL_Driver/Src/stm32f4xx_hal_spi.c ****   */
2000:Drivers/STM32F4xx_HAL_Driver/Src/stm32f4xx_hal_spi.c **** HAL_StatusTypeDef HAL_SPI_Abort(SPI_HandleTypeDef *hspi)
2001:Drivers/STM32F4xx_HAL_Driver/Src/stm32f4xx_hal_spi.c **** {
 3332              		.loc 1 2001 1
 3333              		.cfi_startproc
 3334              		@ args = 0, pretend = 0, frame = 32
 3335              		@ frame_needed = 1, uses_anonymous_args = 0
 3336 0000 80B5     		push	{r7, lr}
 3337              	.LCFI69:
 3338              		.cfi_def_cfa_offset 8
 3339              		.cfi_offset 7, -8
 3340              		.cfi_offset 14, -4
 3341 0002 88B0     		sub	sp, sp, #32
 3342              	.LCFI70:
 3343              		.cfi_def_cfa_offset 40
 3344 0004 00AF     		add	r7, sp, #0
 3345              	.LCFI71:
 3346              		.cfi_def_cfa_register 7
 3347 0006 7860     		str	r0, [r7, #4]
2002:Drivers/STM32F4xx_HAL_Driver/Src/stm32f4xx_hal_spi.c ****   HAL_StatusTypeDef errorcode;
2003:Drivers/STM32F4xx_HAL_Driver/Src/stm32f4xx_hal_spi.c ****   __IO uint32_t count;
2004:Drivers/STM32F4xx_HAL_Driver/Src/stm32f4xx_hal_spi.c ****   __IO uint32_t resetcount;
2005:Drivers/STM32F4xx_HAL_Driver/Src/stm32f4xx_hal_spi.c **** 
2006:Drivers/STM32F4xx_HAL_Driver/Src/stm32f4xx_hal_spi.c ****   /* Initialized local variable  */
2007:Drivers/STM32F4xx_HAL_Driver/Src/stm32f4xx_hal_spi.c ****   errorcode = HAL_OK;
 3348              		.loc 1 2007 13
 3349 0008 0023     		movs	r3, #0
 3350 000a FB77     		strb	r3, [r7, #31]
2008:Drivers/STM32F4xx_HAL_Driver/Src/stm32f4xx_hal_spi.c ****   resetcount = SPI_DEFAULT_TIMEOUT * (SystemCoreClock / 24U / 1000U);
 3351              		.loc 1 2008 61
 3352 000c 6E4B     		ldr	r3, .L184
 3353 000e 1B68     		ldr	r3, [r3]
ARM GAS  C:\Users\16323\AppData\Local\Temp\ccbQ7VoP.s 			page 95


 3354 0010 6E4A     		ldr	r2, .L184+4
 3355 0012 A2FB0323 		umull	r2, r3, r2, r3
 3356 0016 5B0A     		lsrs	r3, r3, #9
 3357              		.loc 1 2008 36
 3358 0018 6422     		movs	r2, #100
 3359 001a 02FB03F3 		mul	r3, r2, r3
 3360              		.loc 1 2008 14
 3361 001e 7B61     		str	r3, [r7, #20]
2009:Drivers/STM32F4xx_HAL_Driver/Src/stm32f4xx_hal_spi.c ****   count = resetcount;
 3362              		.loc 1 2009 9
 3363 0020 7B69     		ldr	r3, [r7, #20]
 3364 0022 BB61     		str	r3, [r7, #24]
2010:Drivers/STM32F4xx_HAL_Driver/Src/stm32f4xx_hal_spi.c **** 
2011:Drivers/STM32F4xx_HAL_Driver/Src/stm32f4xx_hal_spi.c ****   /* Clear ERRIE interrupt to avoid error interrupts generation during Abort procedure */
2012:Drivers/STM32F4xx_HAL_Driver/Src/stm32f4xx_hal_spi.c ****   CLEAR_BIT(hspi->Instance->CR2, SPI_CR2_ERRIE);
 3365              		.loc 1 2012 3
 3366 0024 7B68     		ldr	r3, [r7, #4]
 3367 0026 1B68     		ldr	r3, [r3]
 3368 0028 5A68     		ldr	r2, [r3, #4]
 3369 002a 7B68     		ldr	r3, [r7, #4]
 3370 002c 1B68     		ldr	r3, [r3]
 3371 002e 22F02002 		bic	r2, r2, #32
 3372 0032 5A60     		str	r2, [r3, #4]
2013:Drivers/STM32F4xx_HAL_Driver/Src/stm32f4xx_hal_spi.c **** 
2014:Drivers/STM32F4xx_HAL_Driver/Src/stm32f4xx_hal_spi.c ****   /* Disable TXEIE, RXNEIE and ERRIE(mode fault event, overrun error, TI frame error) interrupts */
2015:Drivers/STM32F4xx_HAL_Driver/Src/stm32f4xx_hal_spi.c ****   if (HAL_IS_BIT_SET(hspi->Instance->CR2, SPI_CR2_TXEIE))
 3373              		.loc 1 2015 7
 3374 0034 7B68     		ldr	r3, [r7, #4]
 3375 0036 1B68     		ldr	r3, [r3]
 3376 0038 5B68     		ldr	r3, [r3, #4]
 3377 003a 03F08003 		and	r3, r3, #128
 3378              		.loc 1 2015 6
 3379 003e 802B     		cmp	r3, #128
 3380 0040 17D1     		bne	.L167
2016:Drivers/STM32F4xx_HAL_Driver/Src/stm32f4xx_hal_spi.c ****   {
2017:Drivers/STM32F4xx_HAL_Driver/Src/stm32f4xx_hal_spi.c ****     hspi->TxISR = SPI_AbortTx_ISR;
 3381              		.loc 1 2017 17
 3382 0042 7B68     		ldr	r3, [r7, #4]
 3383 0044 624A     		ldr	r2, .L184+8
 3384 0046 5A64     		str	r2, [r3, #68]
 3385              	.L170:
2018:Drivers/STM32F4xx_HAL_Driver/Src/stm32f4xx_hal_spi.c ****     /* Wait HAL_SPI_STATE_ABORT state */
2019:Drivers/STM32F4xx_HAL_Driver/Src/stm32f4xx_hal_spi.c ****     do
2020:Drivers/STM32F4xx_HAL_Driver/Src/stm32f4xx_hal_spi.c ****     {
2021:Drivers/STM32F4xx_HAL_Driver/Src/stm32f4xx_hal_spi.c ****       if (count == 0U)
 3386              		.loc 1 2021 17
 3387 0048 BB69     		ldr	r3, [r7, #24]
 3388              		.loc 1 2021 10
 3389 004a 002B     		cmp	r3, #0
 3390 004c 06D1     		bne	.L168
2022:Drivers/STM32F4xx_HAL_Driver/Src/stm32f4xx_hal_spi.c ****       {
2023:Drivers/STM32F4xx_HAL_Driver/Src/stm32f4xx_hal_spi.c ****         SET_BIT(hspi->ErrorCode, HAL_SPI_ERROR_ABORT);
 3391              		.loc 1 2023 9
 3392 004e 7B68     		ldr	r3, [r7, #4]
 3393 0050 5B6D     		ldr	r3, [r3, #84]
 3394 0052 43F04002 		orr	r2, r3, #64
 3395 0056 7B68     		ldr	r3, [r7, #4]
ARM GAS  C:\Users\16323\AppData\Local\Temp\ccbQ7VoP.s 			page 96


 3396 0058 5A65     		str	r2, [r3, #84]
2024:Drivers/STM32F4xx_HAL_Driver/Src/stm32f4xx_hal_spi.c ****         break;
 3397              		.loc 1 2024 9
 3398 005a 08E0     		b	.L169
 3399              	.L168:
2025:Drivers/STM32F4xx_HAL_Driver/Src/stm32f4xx_hal_spi.c ****       }
2026:Drivers/STM32F4xx_HAL_Driver/Src/stm32f4xx_hal_spi.c ****       count--;
 3400              		.loc 1 2026 12
 3401 005c BB69     		ldr	r3, [r7, #24]
 3402 005e 013B     		subs	r3, r3, #1
 3403 0060 BB61     		str	r3, [r7, #24]
2027:Drivers/STM32F4xx_HAL_Driver/Src/stm32f4xx_hal_spi.c ****     } while (hspi->State != HAL_SPI_STATE_ABORT);
 3404              		.loc 1 2027 18
 3405 0062 7B68     		ldr	r3, [r7, #4]
 3406 0064 93F85130 		ldrb	r3, [r3, #81]
 3407 0068 DBB2     		uxtb	r3, r3
 3408              		.loc 1 2027 5
 3409 006a 072B     		cmp	r3, #7
 3410 006c ECD1     		bne	.L170
 3411              	.L169:
2028:Drivers/STM32F4xx_HAL_Driver/Src/stm32f4xx_hal_spi.c ****     /* Reset Timeout Counter */
2029:Drivers/STM32F4xx_HAL_Driver/Src/stm32f4xx_hal_spi.c ****     count = resetcount;
 3412              		.loc 1 2029 11
 3413 006e 7B69     		ldr	r3, [r7, #20]
 3414 0070 BB61     		str	r3, [r7, #24]
 3415              	.L167:
2030:Drivers/STM32F4xx_HAL_Driver/Src/stm32f4xx_hal_spi.c ****   }
2031:Drivers/STM32F4xx_HAL_Driver/Src/stm32f4xx_hal_spi.c **** 
2032:Drivers/STM32F4xx_HAL_Driver/Src/stm32f4xx_hal_spi.c ****   if (HAL_IS_BIT_SET(hspi->Instance->CR2, SPI_CR2_RXNEIE))
 3416              		.loc 1 2032 7
 3417 0072 7B68     		ldr	r3, [r7, #4]
 3418 0074 1B68     		ldr	r3, [r3]
 3419 0076 5B68     		ldr	r3, [r3, #4]
 3420 0078 03F04003 		and	r3, r3, #64
 3421              		.loc 1 2032 6
 3422 007c 402B     		cmp	r3, #64
 3423 007e 17D1     		bne	.L171
2033:Drivers/STM32F4xx_HAL_Driver/Src/stm32f4xx_hal_spi.c ****   {
2034:Drivers/STM32F4xx_HAL_Driver/Src/stm32f4xx_hal_spi.c ****     hspi->RxISR = SPI_AbortRx_ISR;
 3424              		.loc 1 2034 17
 3425 0080 7B68     		ldr	r3, [r7, #4]
 3426 0082 544A     		ldr	r2, .L184+12
 3427 0084 1A64     		str	r2, [r3, #64]
 3428              	.L174:
2035:Drivers/STM32F4xx_HAL_Driver/Src/stm32f4xx_hal_spi.c ****     /* Wait HAL_SPI_STATE_ABORT state */
2036:Drivers/STM32F4xx_HAL_Driver/Src/stm32f4xx_hal_spi.c ****     do
2037:Drivers/STM32F4xx_HAL_Driver/Src/stm32f4xx_hal_spi.c ****     {
2038:Drivers/STM32F4xx_HAL_Driver/Src/stm32f4xx_hal_spi.c ****       if (count == 0U)
 3429              		.loc 1 2038 17
 3430 0086 BB69     		ldr	r3, [r7, #24]
 3431              		.loc 1 2038 10
 3432 0088 002B     		cmp	r3, #0
 3433 008a 06D1     		bne	.L172
2039:Drivers/STM32F4xx_HAL_Driver/Src/stm32f4xx_hal_spi.c ****       {
2040:Drivers/STM32F4xx_HAL_Driver/Src/stm32f4xx_hal_spi.c ****         SET_BIT(hspi->ErrorCode, HAL_SPI_ERROR_ABORT);
 3434              		.loc 1 2040 9
 3435 008c 7B68     		ldr	r3, [r7, #4]
ARM GAS  C:\Users\16323\AppData\Local\Temp\ccbQ7VoP.s 			page 97


 3436 008e 5B6D     		ldr	r3, [r3, #84]
 3437 0090 43F04002 		orr	r2, r3, #64
 3438 0094 7B68     		ldr	r3, [r7, #4]
 3439 0096 5A65     		str	r2, [r3, #84]
2041:Drivers/STM32F4xx_HAL_Driver/Src/stm32f4xx_hal_spi.c ****         break;
 3440              		.loc 1 2041 9
 3441 0098 08E0     		b	.L173
 3442              	.L172:
2042:Drivers/STM32F4xx_HAL_Driver/Src/stm32f4xx_hal_spi.c ****       }
2043:Drivers/STM32F4xx_HAL_Driver/Src/stm32f4xx_hal_spi.c ****       count--;
 3443              		.loc 1 2043 12
 3444 009a BB69     		ldr	r3, [r7, #24]
 3445 009c 013B     		subs	r3, r3, #1
 3446 009e BB61     		str	r3, [r7, #24]
2044:Drivers/STM32F4xx_HAL_Driver/Src/stm32f4xx_hal_spi.c ****     } while (hspi->State != HAL_SPI_STATE_ABORT);
 3447              		.loc 1 2044 18
 3448 00a0 7B68     		ldr	r3, [r7, #4]
 3449 00a2 93F85130 		ldrb	r3, [r3, #81]
 3450 00a6 DBB2     		uxtb	r3, r3
 3451              		.loc 1 2044 5
 3452 00a8 072B     		cmp	r3, #7
 3453 00aa ECD1     		bne	.L174
 3454              	.L173:
2045:Drivers/STM32F4xx_HAL_Driver/Src/stm32f4xx_hal_spi.c ****     /* Reset Timeout Counter */
2046:Drivers/STM32F4xx_HAL_Driver/Src/stm32f4xx_hal_spi.c ****     count = resetcount;
 3455              		.loc 1 2046 11
 3456 00ac 7B69     		ldr	r3, [r7, #20]
 3457 00ae BB61     		str	r3, [r7, #24]
 3458              	.L171:
2047:Drivers/STM32F4xx_HAL_Driver/Src/stm32f4xx_hal_spi.c ****   }
2048:Drivers/STM32F4xx_HAL_Driver/Src/stm32f4xx_hal_spi.c **** 
2049:Drivers/STM32F4xx_HAL_Driver/Src/stm32f4xx_hal_spi.c ****   /* Disable the SPI DMA Tx request if enabled */
2050:Drivers/STM32F4xx_HAL_Driver/Src/stm32f4xx_hal_spi.c ****   if (HAL_IS_BIT_SET(hspi->Instance->CR2, SPI_CR2_TXDMAEN))
 3459              		.loc 1 2050 7
 3460 00b0 7B68     		ldr	r3, [r7, #4]
 3461 00b2 1B68     		ldr	r3, [r3]
 3462 00b4 5B68     		ldr	r3, [r3, #4]
 3463 00b6 03F00203 		and	r3, r3, #2
 3464              		.loc 1 2050 6
 3465 00ba 022B     		cmp	r3, #2
 3466 00bc 2ED1     		bne	.L175
2051:Drivers/STM32F4xx_HAL_Driver/Src/stm32f4xx_hal_spi.c ****   {
2052:Drivers/STM32F4xx_HAL_Driver/Src/stm32f4xx_hal_spi.c ****     /* Abort the SPI DMA Tx Stream/Channel : use blocking DMA Abort API (no callback) */
2053:Drivers/STM32F4xx_HAL_Driver/Src/stm32f4xx_hal_spi.c ****     if (hspi->hdmatx != NULL)
 3467              		.loc 1 2053 13
 3468 00be 7B68     		ldr	r3, [r7, #4]
 3469 00c0 9B6C     		ldr	r3, [r3, #72]
 3470              		.loc 1 2053 8
 3471 00c2 002B     		cmp	r3, #0
 3472 00c4 2AD0     		beq	.L175
2054:Drivers/STM32F4xx_HAL_Driver/Src/stm32f4xx_hal_spi.c ****     {
2055:Drivers/STM32F4xx_HAL_Driver/Src/stm32f4xx_hal_spi.c ****       /* Set the SPI DMA Abort callback :
2056:Drivers/STM32F4xx_HAL_Driver/Src/stm32f4xx_hal_spi.c ****       will lead to call HAL_SPI_AbortCpltCallback() at end of DMA abort procedure */
2057:Drivers/STM32F4xx_HAL_Driver/Src/stm32f4xx_hal_spi.c ****       hspi->hdmatx->XferAbortCallback = NULL;
 3473              		.loc 1 2057 11
 3474 00c6 7B68     		ldr	r3, [r7, #4]
 3475 00c8 9B6C     		ldr	r3, [r3, #72]
ARM GAS  C:\Users\16323\AppData\Local\Temp\ccbQ7VoP.s 			page 98


 3476              		.loc 1 2057 39
 3477 00ca 0022     		movs	r2, #0
 3478 00cc 1A65     		str	r2, [r3, #80]
2058:Drivers/STM32F4xx_HAL_Driver/Src/stm32f4xx_hal_spi.c **** 
2059:Drivers/STM32F4xx_HAL_Driver/Src/stm32f4xx_hal_spi.c ****       /* Abort DMA Tx Handle linked to SPI Peripheral */
2060:Drivers/STM32F4xx_HAL_Driver/Src/stm32f4xx_hal_spi.c ****       if (HAL_DMA_Abort(hspi->hdmatx) != HAL_OK)
 3479              		.loc 1 2060 11
 3480 00ce 7B68     		ldr	r3, [r7, #4]
 3481 00d0 9B6C     		ldr	r3, [r3, #72]
 3482 00d2 1846     		mov	r0, r3
 3483 00d4 FFF7FEFF 		bl	HAL_DMA_Abort
 3484 00d8 0346     		mov	r3, r0
 3485              		.loc 1 2060 10
 3486 00da 002B     		cmp	r3, #0
 3487 00dc 02D0     		beq	.L176
2061:Drivers/STM32F4xx_HAL_Driver/Src/stm32f4xx_hal_spi.c ****       {
2062:Drivers/STM32F4xx_HAL_Driver/Src/stm32f4xx_hal_spi.c ****         hspi->ErrorCode = HAL_SPI_ERROR_ABORT;
 3488              		.loc 1 2062 25
 3489 00de 7B68     		ldr	r3, [r7, #4]
 3490 00e0 4022     		movs	r2, #64
 3491 00e2 5A65     		str	r2, [r3, #84]
 3492              	.L176:
2063:Drivers/STM32F4xx_HAL_Driver/Src/stm32f4xx_hal_spi.c ****       }
2064:Drivers/STM32F4xx_HAL_Driver/Src/stm32f4xx_hal_spi.c **** 
2065:Drivers/STM32F4xx_HAL_Driver/Src/stm32f4xx_hal_spi.c ****       /* Disable Tx DMA Request */
2066:Drivers/STM32F4xx_HAL_Driver/Src/stm32f4xx_hal_spi.c ****       CLEAR_BIT(hspi->Instance->CR2, (SPI_CR2_TXDMAEN));
 3493              		.loc 1 2066 7
 3494 00e4 7B68     		ldr	r3, [r7, #4]
 3495 00e6 1B68     		ldr	r3, [r3]
 3496 00e8 5A68     		ldr	r2, [r3, #4]
 3497 00ea 7B68     		ldr	r3, [r7, #4]
 3498 00ec 1B68     		ldr	r3, [r3]
 3499 00ee 22F00202 		bic	r2, r2, #2
 3500 00f2 5A60     		str	r2, [r3, #4]
 3501              	.L178:
2067:Drivers/STM32F4xx_HAL_Driver/Src/stm32f4xx_hal_spi.c **** 
2068:Drivers/STM32F4xx_HAL_Driver/Src/stm32f4xx_hal_spi.c ****       /* Wait until TXE flag is set */
2069:Drivers/STM32F4xx_HAL_Driver/Src/stm32f4xx_hal_spi.c ****       do
2070:Drivers/STM32F4xx_HAL_Driver/Src/stm32f4xx_hal_spi.c ****       {
2071:Drivers/STM32F4xx_HAL_Driver/Src/stm32f4xx_hal_spi.c ****         if (count == 0U)
 3502              		.loc 1 2071 19
 3503 00f4 BB69     		ldr	r3, [r7, #24]
 3504              		.loc 1 2071 12
 3505 00f6 002B     		cmp	r3, #0
 3506 00f8 06D1     		bne	.L177
2072:Drivers/STM32F4xx_HAL_Driver/Src/stm32f4xx_hal_spi.c ****         {
2073:Drivers/STM32F4xx_HAL_Driver/Src/stm32f4xx_hal_spi.c ****           SET_BIT(hspi->ErrorCode, HAL_SPI_ERROR_ABORT);
 3507              		.loc 1 2073 11
 3508 00fa 7B68     		ldr	r3, [r7, #4]
 3509 00fc 5B6D     		ldr	r3, [r3, #84]
 3510 00fe 43F04002 		orr	r2, r3, #64
 3511 0102 7B68     		ldr	r3, [r7, #4]
 3512 0104 5A65     		str	r2, [r3, #84]
2074:Drivers/STM32F4xx_HAL_Driver/Src/stm32f4xx_hal_spi.c ****           break;
 3513              		.loc 1 2074 11
 3514 0106 09E0     		b	.L175
 3515              	.L177:
ARM GAS  C:\Users\16323\AppData\Local\Temp\ccbQ7VoP.s 			page 99


2075:Drivers/STM32F4xx_HAL_Driver/Src/stm32f4xx_hal_spi.c ****         }
2076:Drivers/STM32F4xx_HAL_Driver/Src/stm32f4xx_hal_spi.c ****         count--;
 3516              		.loc 1 2076 14
 3517 0108 BB69     		ldr	r3, [r7, #24]
 3518 010a 013B     		subs	r3, r3, #1
 3519 010c BB61     		str	r3, [r7, #24]
2077:Drivers/STM32F4xx_HAL_Driver/Src/stm32f4xx_hal_spi.c ****       } while ((hspi->Instance->SR & SPI_FLAG_TXE) == RESET);
 3520              		.loc 1 2077 21
 3521 010e 7B68     		ldr	r3, [r7, #4]
 3522 0110 1B68     		ldr	r3, [r3]
 3523              		.loc 1 2077 31
 3524 0112 9B68     		ldr	r3, [r3, #8]
 3525              		.loc 1 2077 36
 3526 0114 03F00203 		and	r3, r3, #2
 3527              		.loc 1 2077 7
 3528 0118 002B     		cmp	r3, #0
 3529 011a EBD0     		beq	.L178
 3530              	.L175:
2078:Drivers/STM32F4xx_HAL_Driver/Src/stm32f4xx_hal_spi.c ****     }
2079:Drivers/STM32F4xx_HAL_Driver/Src/stm32f4xx_hal_spi.c ****   }
2080:Drivers/STM32F4xx_HAL_Driver/Src/stm32f4xx_hal_spi.c **** 
2081:Drivers/STM32F4xx_HAL_Driver/Src/stm32f4xx_hal_spi.c ****   /* Disable the SPI DMA Rx request if enabled */
2082:Drivers/STM32F4xx_HAL_Driver/Src/stm32f4xx_hal_spi.c ****   if (HAL_IS_BIT_SET(hspi->Instance->CR2, SPI_CR2_RXDMAEN))
 3531              		.loc 1 2082 7
 3532 011c 7B68     		ldr	r3, [r7, #4]
 3533 011e 1B68     		ldr	r3, [r3]
 3534 0120 5B68     		ldr	r3, [r3, #4]
 3535 0122 03F00103 		and	r3, r3, #1
 3536              		.loc 1 2082 6
 3537 0126 012B     		cmp	r3, #1
 3538 0128 22D1     		bne	.L179
2083:Drivers/STM32F4xx_HAL_Driver/Src/stm32f4xx_hal_spi.c ****   {
2084:Drivers/STM32F4xx_HAL_Driver/Src/stm32f4xx_hal_spi.c ****     /* Abort the SPI DMA Rx Stream/Channel : use blocking DMA Abort API (no callback) */
2085:Drivers/STM32F4xx_HAL_Driver/Src/stm32f4xx_hal_spi.c ****     if (hspi->hdmarx != NULL)
 3539              		.loc 1 2085 13
 3540 012a 7B68     		ldr	r3, [r7, #4]
 3541 012c DB6C     		ldr	r3, [r3, #76]
 3542              		.loc 1 2085 8
 3543 012e 002B     		cmp	r3, #0
 3544 0130 1ED0     		beq	.L179
2086:Drivers/STM32F4xx_HAL_Driver/Src/stm32f4xx_hal_spi.c ****     {
2087:Drivers/STM32F4xx_HAL_Driver/Src/stm32f4xx_hal_spi.c ****       /* Set the SPI DMA Abort callback :
2088:Drivers/STM32F4xx_HAL_Driver/Src/stm32f4xx_hal_spi.c ****       will lead to call HAL_SPI_AbortCpltCallback() at end of DMA abort procedure */
2089:Drivers/STM32F4xx_HAL_Driver/Src/stm32f4xx_hal_spi.c ****       hspi->hdmarx->XferAbortCallback = NULL;
 3545              		.loc 1 2089 11
 3546 0132 7B68     		ldr	r3, [r7, #4]
 3547 0134 DB6C     		ldr	r3, [r3, #76]
 3548              		.loc 1 2089 39
 3549 0136 0022     		movs	r2, #0
 3550 0138 1A65     		str	r2, [r3, #80]
2090:Drivers/STM32F4xx_HAL_Driver/Src/stm32f4xx_hal_spi.c **** 
2091:Drivers/STM32F4xx_HAL_Driver/Src/stm32f4xx_hal_spi.c ****       /* Abort DMA Rx Handle linked to SPI Peripheral */
2092:Drivers/STM32F4xx_HAL_Driver/Src/stm32f4xx_hal_spi.c ****       if (HAL_DMA_Abort(hspi->hdmarx) != HAL_OK)
 3551              		.loc 1 2092 11
 3552 013a 7B68     		ldr	r3, [r7, #4]
 3553 013c DB6C     		ldr	r3, [r3, #76]
 3554 013e 1846     		mov	r0, r3
ARM GAS  C:\Users\16323\AppData\Local\Temp\ccbQ7VoP.s 			page 100


 3555 0140 FFF7FEFF 		bl	HAL_DMA_Abort
 3556 0144 0346     		mov	r3, r0
 3557              		.loc 1 2092 10
 3558 0146 002B     		cmp	r3, #0
 3559 0148 02D0     		beq	.L180
2093:Drivers/STM32F4xx_HAL_Driver/Src/stm32f4xx_hal_spi.c ****       {
2094:Drivers/STM32F4xx_HAL_Driver/Src/stm32f4xx_hal_spi.c ****         hspi->ErrorCode = HAL_SPI_ERROR_ABORT;
 3560              		.loc 1 2094 25
 3561 014a 7B68     		ldr	r3, [r7, #4]
 3562 014c 4022     		movs	r2, #64
 3563 014e 5A65     		str	r2, [r3, #84]
 3564              	.L180:
2095:Drivers/STM32F4xx_HAL_Driver/Src/stm32f4xx_hal_spi.c ****       }
2096:Drivers/STM32F4xx_HAL_Driver/Src/stm32f4xx_hal_spi.c **** 
2097:Drivers/STM32F4xx_HAL_Driver/Src/stm32f4xx_hal_spi.c ****       /* Disable peripheral */
2098:Drivers/STM32F4xx_HAL_Driver/Src/stm32f4xx_hal_spi.c ****       __HAL_SPI_DISABLE(hspi);
 3565              		.loc 1 2098 7
 3566 0150 7B68     		ldr	r3, [r7, #4]
 3567 0152 1B68     		ldr	r3, [r3]
 3568 0154 1A68     		ldr	r2, [r3]
 3569 0156 7B68     		ldr	r3, [r7, #4]
 3570 0158 1B68     		ldr	r3, [r3]
 3571 015a 22F04002 		bic	r2, r2, #64
 3572 015e 1A60     		str	r2, [r3]
2099:Drivers/STM32F4xx_HAL_Driver/Src/stm32f4xx_hal_spi.c **** 
2100:Drivers/STM32F4xx_HAL_Driver/Src/stm32f4xx_hal_spi.c ****       /* Disable Rx DMA Request */
2101:Drivers/STM32F4xx_HAL_Driver/Src/stm32f4xx_hal_spi.c ****       CLEAR_BIT(hspi->Instance->CR2, (SPI_CR2_RXDMAEN));
 3573              		.loc 1 2101 7
 3574 0160 7B68     		ldr	r3, [r7, #4]
 3575 0162 1B68     		ldr	r3, [r3]
 3576 0164 5A68     		ldr	r2, [r3, #4]
 3577 0166 7B68     		ldr	r3, [r7, #4]
 3578 0168 1B68     		ldr	r3, [r3]
 3579 016a 22F00102 		bic	r2, r2, #1
 3580 016e 5A60     		str	r2, [r3, #4]
 3581              	.L179:
2102:Drivers/STM32F4xx_HAL_Driver/Src/stm32f4xx_hal_spi.c ****     }
2103:Drivers/STM32F4xx_HAL_Driver/Src/stm32f4xx_hal_spi.c ****   }
2104:Drivers/STM32F4xx_HAL_Driver/Src/stm32f4xx_hal_spi.c ****   /* Reset Tx and Rx transfer counters */
2105:Drivers/STM32F4xx_HAL_Driver/Src/stm32f4xx_hal_spi.c ****   hspi->RxXferCount = 0U;
 3582              		.loc 1 2105 21
 3583 0170 7B68     		ldr	r3, [r7, #4]
 3584 0172 0022     		movs	r2, #0
 3585 0174 DA87     		strh	r2, [r3, #62]	@ movhi
2106:Drivers/STM32F4xx_HAL_Driver/Src/stm32f4xx_hal_spi.c ****   hspi->TxXferCount = 0U;
 3586              		.loc 1 2106 21
 3587 0176 7B68     		ldr	r3, [r7, #4]
 3588 0178 0022     		movs	r2, #0
 3589 017a DA86     		strh	r2, [r3, #54]	@ movhi
2107:Drivers/STM32F4xx_HAL_Driver/Src/stm32f4xx_hal_spi.c **** 
2108:Drivers/STM32F4xx_HAL_Driver/Src/stm32f4xx_hal_spi.c ****   /* Check error during Abort procedure */
2109:Drivers/STM32F4xx_HAL_Driver/Src/stm32f4xx_hal_spi.c ****   if (hspi->ErrorCode == HAL_SPI_ERROR_ABORT)
 3590              		.loc 1 2109 11
 3591 017c 7B68     		ldr	r3, [r7, #4]
 3592 017e 5B6D     		ldr	r3, [r3, #84]
 3593              		.loc 1 2109 6
 3594 0180 402B     		cmp	r3, #64
ARM GAS  C:\Users\16323\AppData\Local\Temp\ccbQ7VoP.s 			page 101


 3595 0182 02D1     		bne	.L181
2110:Drivers/STM32F4xx_HAL_Driver/Src/stm32f4xx_hal_spi.c ****   {
2111:Drivers/STM32F4xx_HAL_Driver/Src/stm32f4xx_hal_spi.c ****     /* return HAL_Error in case of error during Abort procedure */
2112:Drivers/STM32F4xx_HAL_Driver/Src/stm32f4xx_hal_spi.c ****     errorcode = HAL_ERROR;
 3596              		.loc 1 2112 15
 3597 0184 0123     		movs	r3, #1
 3598 0186 FB77     		strb	r3, [r7, #31]
 3599 0188 02E0     		b	.L182
 3600              	.L181:
2113:Drivers/STM32F4xx_HAL_Driver/Src/stm32f4xx_hal_spi.c ****   }
2114:Drivers/STM32F4xx_HAL_Driver/Src/stm32f4xx_hal_spi.c ****   else
2115:Drivers/STM32F4xx_HAL_Driver/Src/stm32f4xx_hal_spi.c ****   {
2116:Drivers/STM32F4xx_HAL_Driver/Src/stm32f4xx_hal_spi.c ****     /* Reset errorCode */
2117:Drivers/STM32F4xx_HAL_Driver/Src/stm32f4xx_hal_spi.c ****     hspi->ErrorCode = HAL_SPI_ERROR_NONE;
 3601              		.loc 1 2117 21
 3602 018a 7B68     		ldr	r3, [r7, #4]
 3603 018c 0022     		movs	r2, #0
 3604 018e 5A65     		str	r2, [r3, #84]
 3605              	.L182:
 3606              	.LBB4:
2118:Drivers/STM32F4xx_HAL_Driver/Src/stm32f4xx_hal_spi.c ****   }
2119:Drivers/STM32F4xx_HAL_Driver/Src/stm32f4xx_hal_spi.c **** 
2120:Drivers/STM32F4xx_HAL_Driver/Src/stm32f4xx_hal_spi.c ****   /* Clear the Error flags in the SR register */
2121:Drivers/STM32F4xx_HAL_Driver/Src/stm32f4xx_hal_spi.c ****   __HAL_SPI_CLEAR_OVRFLAG(hspi);
 3607              		.loc 1 2121 3
 3608 0190 0023     		movs	r3, #0
 3609 0192 3B61     		str	r3, [r7, #16]
 3610 0194 7B68     		ldr	r3, [r7, #4]
 3611 0196 1B68     		ldr	r3, [r3]
 3612 0198 DB68     		ldr	r3, [r3, #12]
 3613 019a 3B61     		str	r3, [r7, #16]
 3614 019c 7B68     		ldr	r3, [r7, #4]
 3615 019e 1B68     		ldr	r3, [r3]
 3616 01a0 9B68     		ldr	r3, [r3, #8]
 3617 01a2 3B61     		str	r3, [r7, #16]
 3618 01a4 3B69     		ldr	r3, [r7, #16]
 3619              	.LBE4:
 3620              	.LBB5:
2122:Drivers/STM32F4xx_HAL_Driver/Src/stm32f4xx_hal_spi.c ****   __HAL_SPI_CLEAR_FREFLAG(hspi);
 3621              		.loc 1 2122 3
 3622 01a6 0023     		movs	r3, #0
 3623 01a8 FB60     		str	r3, [r7, #12]
 3624 01aa 7B68     		ldr	r3, [r7, #4]
 3625 01ac 1B68     		ldr	r3, [r3]
 3626 01ae 9B68     		ldr	r3, [r3, #8]
 3627 01b0 FB60     		str	r3, [r7, #12]
 3628 01b2 FB68     		ldr	r3, [r7, #12]
 3629              	.LBE5:
2123:Drivers/STM32F4xx_HAL_Driver/Src/stm32f4xx_hal_spi.c **** 
2124:Drivers/STM32F4xx_HAL_Driver/Src/stm32f4xx_hal_spi.c ****   /* Restore hspi->state to ready */
2125:Drivers/STM32F4xx_HAL_Driver/Src/stm32f4xx_hal_spi.c ****   hspi->State = HAL_SPI_STATE_READY;
 3630              		.loc 1 2125 15
 3631 01b4 7B68     		ldr	r3, [r7, #4]
 3632 01b6 0122     		movs	r2, #1
 3633 01b8 83F85120 		strb	r2, [r3, #81]
2126:Drivers/STM32F4xx_HAL_Driver/Src/stm32f4xx_hal_spi.c **** 
2127:Drivers/STM32F4xx_HAL_Driver/Src/stm32f4xx_hal_spi.c ****   return errorcode;
ARM GAS  C:\Users\16323\AppData\Local\Temp\ccbQ7VoP.s 			page 102


 3634              		.loc 1 2127 10
 3635 01bc FB7F     		ldrb	r3, [r7, #31]	@ zero_extendqisi2
2128:Drivers/STM32F4xx_HAL_Driver/Src/stm32f4xx_hal_spi.c **** }
 3636              		.loc 1 2128 1
 3637 01be 1846     		mov	r0, r3
 3638 01c0 2037     		adds	r7, r7, #32
 3639              	.LCFI72:
 3640              		.cfi_def_cfa_offset 8
 3641 01c2 BD46     		mov	sp, r7
 3642              	.LCFI73:
 3643              		.cfi_def_cfa_register 13
 3644              		@ sp needed
 3645 01c4 80BD     		pop	{r7, pc}
 3646              	.L185:
 3647 01c6 00BF     		.align	2
 3648              	.L184:
 3649 01c8 00000000 		.word	SystemCoreClock
 3650 01cc F1197605 		.word	91625969
 3651 01d0 00000000 		.word	SPI_AbortTx_ISR
 3652 01d4 00000000 		.word	SPI_AbortRx_ISR
 3653              		.cfi_endproc
 3654              	.LFE252:
 3656              		.section	.text.HAL_SPI_Abort_IT,"ax",%progbits
 3657              		.align	1
 3658              		.global	HAL_SPI_Abort_IT
 3659              		.syntax unified
 3660              		.thumb
 3661              		.thumb_func
 3663              	HAL_SPI_Abort_IT:
 3664              	.LFB253:
2129:Drivers/STM32F4xx_HAL_Driver/Src/stm32f4xx_hal_spi.c **** 
2130:Drivers/STM32F4xx_HAL_Driver/Src/stm32f4xx_hal_spi.c **** /**
2131:Drivers/STM32F4xx_HAL_Driver/Src/stm32f4xx_hal_spi.c ****   * @brief  Abort ongoing transfer (Interrupt mode).
2132:Drivers/STM32F4xx_HAL_Driver/Src/stm32f4xx_hal_spi.c ****   * @param  hspi SPI handle.
2133:Drivers/STM32F4xx_HAL_Driver/Src/stm32f4xx_hal_spi.c ****   * @note   This procedure could be used for aborting any ongoing transfer (Tx and Rx),
2134:Drivers/STM32F4xx_HAL_Driver/Src/stm32f4xx_hal_spi.c ****   *         started in Interrupt or DMA mode.
2135:Drivers/STM32F4xx_HAL_Driver/Src/stm32f4xx_hal_spi.c ****   *         This procedure performs following operations :
2136:Drivers/STM32F4xx_HAL_Driver/Src/stm32f4xx_hal_spi.c ****   *           - Disable SPI Interrupts (depending of transfer direction)
2137:Drivers/STM32F4xx_HAL_Driver/Src/stm32f4xx_hal_spi.c ****   *           - Disable the DMA transfer in the peripheral register (if enabled)
2138:Drivers/STM32F4xx_HAL_Driver/Src/stm32f4xx_hal_spi.c ****   *           - Abort DMA transfer by calling HAL_DMA_Abort_IT (in case of transfer in DMA mode)
2139:Drivers/STM32F4xx_HAL_Driver/Src/stm32f4xx_hal_spi.c ****   *           - Set handle State to READY
2140:Drivers/STM32F4xx_HAL_Driver/Src/stm32f4xx_hal_spi.c ****   *           - At abort completion, call user abort complete callback
2141:Drivers/STM32F4xx_HAL_Driver/Src/stm32f4xx_hal_spi.c ****   * @note   This procedure is executed in Interrupt mode, meaning that abort procedure could be
2142:Drivers/STM32F4xx_HAL_Driver/Src/stm32f4xx_hal_spi.c ****   *         considered as completed only when user abort complete callback is executed (not when ex
2143:Drivers/STM32F4xx_HAL_Driver/Src/stm32f4xx_hal_spi.c ****   * @retval HAL status
2144:Drivers/STM32F4xx_HAL_Driver/Src/stm32f4xx_hal_spi.c ****   */
2145:Drivers/STM32F4xx_HAL_Driver/Src/stm32f4xx_hal_spi.c **** HAL_StatusTypeDef HAL_SPI_Abort_IT(SPI_HandleTypeDef *hspi)
2146:Drivers/STM32F4xx_HAL_Driver/Src/stm32f4xx_hal_spi.c **** {
 3665              		.loc 1 2146 1
 3666              		.cfi_startproc
 3667              		@ args = 0, pretend = 0, frame = 32
 3668              		@ frame_needed = 1, uses_anonymous_args = 0
 3669 0000 80B5     		push	{r7, lr}
 3670              	.LCFI74:
 3671              		.cfi_def_cfa_offset 8
 3672              		.cfi_offset 7, -8
 3673              		.cfi_offset 14, -4
ARM GAS  C:\Users\16323\AppData\Local\Temp\ccbQ7VoP.s 			page 103


 3674 0002 88B0     		sub	sp, sp, #32
 3675              	.LCFI75:
 3676              		.cfi_def_cfa_offset 40
 3677 0004 00AF     		add	r7, sp, #0
 3678              	.LCFI76:
 3679              		.cfi_def_cfa_register 7
 3680 0006 7860     		str	r0, [r7, #4]
2147:Drivers/STM32F4xx_HAL_Driver/Src/stm32f4xx_hal_spi.c ****   HAL_StatusTypeDef errorcode;
2148:Drivers/STM32F4xx_HAL_Driver/Src/stm32f4xx_hal_spi.c ****   uint32_t abortcplt ;
2149:Drivers/STM32F4xx_HAL_Driver/Src/stm32f4xx_hal_spi.c ****   __IO uint32_t count;
2150:Drivers/STM32F4xx_HAL_Driver/Src/stm32f4xx_hal_spi.c ****   __IO uint32_t resetcount;
2151:Drivers/STM32F4xx_HAL_Driver/Src/stm32f4xx_hal_spi.c **** 
2152:Drivers/STM32F4xx_HAL_Driver/Src/stm32f4xx_hal_spi.c ****   /* Initialized local variable  */
2153:Drivers/STM32F4xx_HAL_Driver/Src/stm32f4xx_hal_spi.c ****   errorcode = HAL_OK;
 3681              		.loc 1 2153 13
 3682 0008 0023     		movs	r3, #0
 3683 000a FB77     		strb	r3, [r7, #31]
2154:Drivers/STM32F4xx_HAL_Driver/Src/stm32f4xx_hal_spi.c ****   abortcplt = 1U;
 3684              		.loc 1 2154 13
 3685 000c 0123     		movs	r3, #1
 3686 000e BB61     		str	r3, [r7, #24]
2155:Drivers/STM32F4xx_HAL_Driver/Src/stm32f4xx_hal_spi.c ****   resetcount = SPI_DEFAULT_TIMEOUT * (SystemCoreClock / 24U / 1000U);
 3687              		.loc 1 2155 61
 3688 0010 724B     		ldr	r3, .L207
 3689 0012 1B68     		ldr	r3, [r3]
 3690 0014 724A     		ldr	r2, .L207+4
 3691 0016 A2FB0323 		umull	r2, r3, r2, r3
 3692 001a 5B0A     		lsrs	r3, r3, #9
 3693              		.loc 1 2155 36
 3694 001c 6422     		movs	r2, #100
 3695 001e 02FB03F3 		mul	r3, r2, r3
 3696              		.loc 1 2155 14
 3697 0022 3B61     		str	r3, [r7, #16]
2156:Drivers/STM32F4xx_HAL_Driver/Src/stm32f4xx_hal_spi.c ****   count = resetcount;
 3698              		.loc 1 2156 9
 3699 0024 3B69     		ldr	r3, [r7, #16]
 3700 0026 7B61     		str	r3, [r7, #20]
2157:Drivers/STM32F4xx_HAL_Driver/Src/stm32f4xx_hal_spi.c **** 
2158:Drivers/STM32F4xx_HAL_Driver/Src/stm32f4xx_hal_spi.c ****   /* Clear ERRIE interrupt to avoid error interrupts generation during Abort procedure */
2159:Drivers/STM32F4xx_HAL_Driver/Src/stm32f4xx_hal_spi.c ****   CLEAR_BIT(hspi->Instance->CR2, SPI_CR2_ERRIE);
 3701              		.loc 1 2159 3
 3702 0028 7B68     		ldr	r3, [r7, #4]
 3703 002a 1B68     		ldr	r3, [r3]
 3704 002c 5A68     		ldr	r2, [r3, #4]
 3705 002e 7B68     		ldr	r3, [r7, #4]
 3706 0030 1B68     		ldr	r3, [r3]
 3707 0032 22F02002 		bic	r2, r2, #32
 3708 0036 5A60     		str	r2, [r3, #4]
2160:Drivers/STM32F4xx_HAL_Driver/Src/stm32f4xx_hal_spi.c **** 
2161:Drivers/STM32F4xx_HAL_Driver/Src/stm32f4xx_hal_spi.c ****   /* Change Rx and Tx Irq Handler to Disable TXEIE, RXNEIE and ERRIE interrupts */
2162:Drivers/STM32F4xx_HAL_Driver/Src/stm32f4xx_hal_spi.c ****   if (HAL_IS_BIT_SET(hspi->Instance->CR2, SPI_CR2_TXEIE))
 3709              		.loc 1 2162 7
 3710 0038 7B68     		ldr	r3, [r7, #4]
 3711 003a 1B68     		ldr	r3, [r3]
 3712 003c 5B68     		ldr	r3, [r3, #4]
 3713 003e 03F08003 		and	r3, r3, #128
 3714              		.loc 1 2162 6
ARM GAS  C:\Users\16323\AppData\Local\Temp\ccbQ7VoP.s 			page 104


 3715 0042 802B     		cmp	r3, #128
 3716 0044 17D1     		bne	.L187
2163:Drivers/STM32F4xx_HAL_Driver/Src/stm32f4xx_hal_spi.c ****   {
2164:Drivers/STM32F4xx_HAL_Driver/Src/stm32f4xx_hal_spi.c ****     hspi->TxISR = SPI_AbortTx_ISR;
 3717              		.loc 1 2164 17
 3718 0046 7B68     		ldr	r3, [r7, #4]
 3719 0048 664A     		ldr	r2, .L207+8
 3720 004a 5A64     		str	r2, [r3, #68]
 3721              	.L190:
2165:Drivers/STM32F4xx_HAL_Driver/Src/stm32f4xx_hal_spi.c ****     /* Wait HAL_SPI_STATE_ABORT state */
2166:Drivers/STM32F4xx_HAL_Driver/Src/stm32f4xx_hal_spi.c ****     do
2167:Drivers/STM32F4xx_HAL_Driver/Src/stm32f4xx_hal_spi.c ****     {
2168:Drivers/STM32F4xx_HAL_Driver/Src/stm32f4xx_hal_spi.c ****       if (count == 0U)
 3722              		.loc 1 2168 17
 3723 004c 7B69     		ldr	r3, [r7, #20]
 3724              		.loc 1 2168 10
 3725 004e 002B     		cmp	r3, #0
 3726 0050 06D1     		bne	.L188
2169:Drivers/STM32F4xx_HAL_Driver/Src/stm32f4xx_hal_spi.c ****       {
2170:Drivers/STM32F4xx_HAL_Driver/Src/stm32f4xx_hal_spi.c ****         SET_BIT(hspi->ErrorCode, HAL_SPI_ERROR_ABORT);
 3727              		.loc 1 2170 9
 3728 0052 7B68     		ldr	r3, [r7, #4]
 3729 0054 5B6D     		ldr	r3, [r3, #84]
 3730 0056 43F04002 		orr	r2, r3, #64
 3731 005a 7B68     		ldr	r3, [r7, #4]
 3732 005c 5A65     		str	r2, [r3, #84]
2171:Drivers/STM32F4xx_HAL_Driver/Src/stm32f4xx_hal_spi.c ****         break;
 3733              		.loc 1 2171 9
 3734 005e 08E0     		b	.L189
 3735              	.L188:
2172:Drivers/STM32F4xx_HAL_Driver/Src/stm32f4xx_hal_spi.c ****       }
2173:Drivers/STM32F4xx_HAL_Driver/Src/stm32f4xx_hal_spi.c ****       count--;
 3736              		.loc 1 2173 12
 3737 0060 7B69     		ldr	r3, [r7, #20]
 3738 0062 013B     		subs	r3, r3, #1
 3739 0064 7B61     		str	r3, [r7, #20]
2174:Drivers/STM32F4xx_HAL_Driver/Src/stm32f4xx_hal_spi.c ****     } while (hspi->State != HAL_SPI_STATE_ABORT);
 3740              		.loc 1 2174 18
 3741 0066 7B68     		ldr	r3, [r7, #4]
 3742 0068 93F85130 		ldrb	r3, [r3, #81]
 3743 006c DBB2     		uxtb	r3, r3
 3744              		.loc 1 2174 5
 3745 006e 072B     		cmp	r3, #7
 3746 0070 ECD1     		bne	.L190
 3747              	.L189:
2175:Drivers/STM32F4xx_HAL_Driver/Src/stm32f4xx_hal_spi.c ****     /* Reset Timeout Counter */
2176:Drivers/STM32F4xx_HAL_Driver/Src/stm32f4xx_hal_spi.c ****     count = resetcount;
 3748              		.loc 1 2176 11
 3749 0072 3B69     		ldr	r3, [r7, #16]
 3750 0074 7B61     		str	r3, [r7, #20]
 3751              	.L187:
2177:Drivers/STM32F4xx_HAL_Driver/Src/stm32f4xx_hal_spi.c ****   }
2178:Drivers/STM32F4xx_HAL_Driver/Src/stm32f4xx_hal_spi.c **** 
2179:Drivers/STM32F4xx_HAL_Driver/Src/stm32f4xx_hal_spi.c ****   if (HAL_IS_BIT_SET(hspi->Instance->CR2, SPI_CR2_RXNEIE))
 3752              		.loc 1 2179 7
 3753 0076 7B68     		ldr	r3, [r7, #4]
 3754 0078 1B68     		ldr	r3, [r3]
ARM GAS  C:\Users\16323\AppData\Local\Temp\ccbQ7VoP.s 			page 105


 3755 007a 5B68     		ldr	r3, [r3, #4]
 3756 007c 03F04003 		and	r3, r3, #64
 3757              		.loc 1 2179 6
 3758 0080 402B     		cmp	r3, #64
 3759 0082 17D1     		bne	.L191
2180:Drivers/STM32F4xx_HAL_Driver/Src/stm32f4xx_hal_spi.c ****   {
2181:Drivers/STM32F4xx_HAL_Driver/Src/stm32f4xx_hal_spi.c ****     hspi->RxISR = SPI_AbortRx_ISR;
 3760              		.loc 1 2181 17
 3761 0084 7B68     		ldr	r3, [r7, #4]
 3762 0086 584A     		ldr	r2, .L207+12
 3763 0088 1A64     		str	r2, [r3, #64]
 3764              	.L194:
2182:Drivers/STM32F4xx_HAL_Driver/Src/stm32f4xx_hal_spi.c ****     /* Wait HAL_SPI_STATE_ABORT state */
2183:Drivers/STM32F4xx_HAL_Driver/Src/stm32f4xx_hal_spi.c ****     do
2184:Drivers/STM32F4xx_HAL_Driver/Src/stm32f4xx_hal_spi.c ****     {
2185:Drivers/STM32F4xx_HAL_Driver/Src/stm32f4xx_hal_spi.c ****       if (count == 0U)
 3765              		.loc 1 2185 17
 3766 008a 7B69     		ldr	r3, [r7, #20]
 3767              		.loc 1 2185 10
 3768 008c 002B     		cmp	r3, #0
 3769 008e 06D1     		bne	.L192
2186:Drivers/STM32F4xx_HAL_Driver/Src/stm32f4xx_hal_spi.c ****       {
2187:Drivers/STM32F4xx_HAL_Driver/Src/stm32f4xx_hal_spi.c ****         SET_BIT(hspi->ErrorCode, HAL_SPI_ERROR_ABORT);
 3770              		.loc 1 2187 9
 3771 0090 7B68     		ldr	r3, [r7, #4]
 3772 0092 5B6D     		ldr	r3, [r3, #84]
 3773 0094 43F04002 		orr	r2, r3, #64
 3774 0098 7B68     		ldr	r3, [r7, #4]
 3775 009a 5A65     		str	r2, [r3, #84]
2188:Drivers/STM32F4xx_HAL_Driver/Src/stm32f4xx_hal_spi.c ****         break;
 3776              		.loc 1 2188 9
 3777 009c 08E0     		b	.L193
 3778              	.L192:
2189:Drivers/STM32F4xx_HAL_Driver/Src/stm32f4xx_hal_spi.c ****       }
2190:Drivers/STM32F4xx_HAL_Driver/Src/stm32f4xx_hal_spi.c ****       count--;
 3779              		.loc 1 2190 12
 3780 009e 7B69     		ldr	r3, [r7, #20]
 3781 00a0 013B     		subs	r3, r3, #1
 3782 00a2 7B61     		str	r3, [r7, #20]
2191:Drivers/STM32F4xx_HAL_Driver/Src/stm32f4xx_hal_spi.c ****     } while (hspi->State != HAL_SPI_STATE_ABORT);
 3783              		.loc 1 2191 18
 3784 00a4 7B68     		ldr	r3, [r7, #4]
 3785 00a6 93F85130 		ldrb	r3, [r3, #81]
 3786 00aa DBB2     		uxtb	r3, r3
 3787              		.loc 1 2191 5
 3788 00ac 072B     		cmp	r3, #7
 3789 00ae ECD1     		bne	.L194
 3790              	.L193:
2192:Drivers/STM32F4xx_HAL_Driver/Src/stm32f4xx_hal_spi.c ****     /* Reset Timeout Counter */
2193:Drivers/STM32F4xx_HAL_Driver/Src/stm32f4xx_hal_spi.c ****     count = resetcount;
 3791              		.loc 1 2193 11
 3792 00b0 3B69     		ldr	r3, [r7, #16]
 3793 00b2 7B61     		str	r3, [r7, #20]
 3794              	.L191:
2194:Drivers/STM32F4xx_HAL_Driver/Src/stm32f4xx_hal_spi.c ****   }
2195:Drivers/STM32F4xx_HAL_Driver/Src/stm32f4xx_hal_spi.c **** 
2196:Drivers/STM32F4xx_HAL_Driver/Src/stm32f4xx_hal_spi.c ****   /* If DMA Tx and/or DMA Rx Handles are associated to SPI Handle, DMA Abort complete callbacks sho
ARM GAS  C:\Users\16323\AppData\Local\Temp\ccbQ7VoP.s 			page 106


2197:Drivers/STM32F4xx_HAL_Driver/Src/stm32f4xx_hal_spi.c ****      before any call to DMA Abort functions */
2198:Drivers/STM32F4xx_HAL_Driver/Src/stm32f4xx_hal_spi.c ****   /* DMA Tx Handle is valid */
2199:Drivers/STM32F4xx_HAL_Driver/Src/stm32f4xx_hal_spi.c ****   if (hspi->hdmatx != NULL)
 3795              		.loc 1 2199 11
 3796 00b4 7B68     		ldr	r3, [r7, #4]
 3797 00b6 9B6C     		ldr	r3, [r3, #72]
 3798              		.loc 1 2199 6
 3799 00b8 002B     		cmp	r3, #0
 3800 00ba 0FD0     		beq	.L195
2200:Drivers/STM32F4xx_HAL_Driver/Src/stm32f4xx_hal_spi.c ****   {
2201:Drivers/STM32F4xx_HAL_Driver/Src/stm32f4xx_hal_spi.c ****     /* Set DMA Abort Complete callback if UART DMA Tx request if enabled.
2202:Drivers/STM32F4xx_HAL_Driver/Src/stm32f4xx_hal_spi.c ****        Otherwise, set it to NULL */
2203:Drivers/STM32F4xx_HAL_Driver/Src/stm32f4xx_hal_spi.c ****     if (HAL_IS_BIT_SET(hspi->Instance->CR2, SPI_CR2_TXDMAEN))
 3801              		.loc 1 2203 9
 3802 00bc 7B68     		ldr	r3, [r7, #4]
 3803 00be 1B68     		ldr	r3, [r3]
 3804 00c0 5B68     		ldr	r3, [r3, #4]
 3805 00c2 03F00203 		and	r3, r3, #2
 3806              		.loc 1 2203 8
 3807 00c6 022B     		cmp	r3, #2
 3808 00c8 04D1     		bne	.L196
2204:Drivers/STM32F4xx_HAL_Driver/Src/stm32f4xx_hal_spi.c ****     {
2205:Drivers/STM32F4xx_HAL_Driver/Src/stm32f4xx_hal_spi.c ****       hspi->hdmatx->XferAbortCallback = SPI_DMATxAbortCallback;
 3809              		.loc 1 2205 11
 3810 00ca 7B68     		ldr	r3, [r7, #4]
 3811 00cc 9B6C     		ldr	r3, [r3, #72]
 3812              		.loc 1 2205 39
 3813 00ce 474A     		ldr	r2, .L207+16
 3814 00d0 1A65     		str	r2, [r3, #80]
 3815 00d2 03E0     		b	.L195
 3816              	.L196:
2206:Drivers/STM32F4xx_HAL_Driver/Src/stm32f4xx_hal_spi.c ****     }
2207:Drivers/STM32F4xx_HAL_Driver/Src/stm32f4xx_hal_spi.c ****     else
2208:Drivers/STM32F4xx_HAL_Driver/Src/stm32f4xx_hal_spi.c ****     {
2209:Drivers/STM32F4xx_HAL_Driver/Src/stm32f4xx_hal_spi.c ****       hspi->hdmatx->XferAbortCallback = NULL;
 3817              		.loc 1 2209 11
 3818 00d4 7B68     		ldr	r3, [r7, #4]
 3819 00d6 9B6C     		ldr	r3, [r3, #72]
 3820              		.loc 1 2209 39
 3821 00d8 0022     		movs	r2, #0
 3822 00da 1A65     		str	r2, [r3, #80]
 3823              	.L195:
2210:Drivers/STM32F4xx_HAL_Driver/Src/stm32f4xx_hal_spi.c ****     }
2211:Drivers/STM32F4xx_HAL_Driver/Src/stm32f4xx_hal_spi.c ****   }
2212:Drivers/STM32F4xx_HAL_Driver/Src/stm32f4xx_hal_spi.c ****   /* DMA Rx Handle is valid */
2213:Drivers/STM32F4xx_HAL_Driver/Src/stm32f4xx_hal_spi.c ****   if (hspi->hdmarx != NULL)
 3824              		.loc 1 2213 11
 3825 00dc 7B68     		ldr	r3, [r7, #4]
 3826 00de DB6C     		ldr	r3, [r3, #76]
 3827              		.loc 1 2213 6
 3828 00e0 002B     		cmp	r3, #0
 3829 00e2 0FD0     		beq	.L197
2214:Drivers/STM32F4xx_HAL_Driver/Src/stm32f4xx_hal_spi.c ****   {
2215:Drivers/STM32F4xx_HAL_Driver/Src/stm32f4xx_hal_spi.c ****     /* Set DMA Abort Complete callback if UART DMA Rx request if enabled.
2216:Drivers/STM32F4xx_HAL_Driver/Src/stm32f4xx_hal_spi.c ****        Otherwise, set it to NULL */
2217:Drivers/STM32F4xx_HAL_Driver/Src/stm32f4xx_hal_spi.c ****     if (HAL_IS_BIT_SET(hspi->Instance->CR2, SPI_CR2_RXDMAEN))
 3830              		.loc 1 2217 9
ARM GAS  C:\Users\16323\AppData\Local\Temp\ccbQ7VoP.s 			page 107


 3831 00e4 7B68     		ldr	r3, [r7, #4]
 3832 00e6 1B68     		ldr	r3, [r3]
 3833 00e8 5B68     		ldr	r3, [r3, #4]
 3834 00ea 03F00103 		and	r3, r3, #1
 3835              		.loc 1 2217 8
 3836 00ee 012B     		cmp	r3, #1
 3837 00f0 04D1     		bne	.L198
2218:Drivers/STM32F4xx_HAL_Driver/Src/stm32f4xx_hal_spi.c ****     {
2219:Drivers/STM32F4xx_HAL_Driver/Src/stm32f4xx_hal_spi.c ****       hspi->hdmarx->XferAbortCallback = SPI_DMARxAbortCallback;
 3838              		.loc 1 2219 11
 3839 00f2 7B68     		ldr	r3, [r7, #4]
 3840 00f4 DB6C     		ldr	r3, [r3, #76]
 3841              		.loc 1 2219 39
 3842 00f6 3E4A     		ldr	r2, .L207+20
 3843 00f8 1A65     		str	r2, [r3, #80]
 3844 00fa 03E0     		b	.L197
 3845              	.L198:
2220:Drivers/STM32F4xx_HAL_Driver/Src/stm32f4xx_hal_spi.c ****     }
2221:Drivers/STM32F4xx_HAL_Driver/Src/stm32f4xx_hal_spi.c ****     else
2222:Drivers/STM32F4xx_HAL_Driver/Src/stm32f4xx_hal_spi.c ****     {
2223:Drivers/STM32F4xx_HAL_Driver/Src/stm32f4xx_hal_spi.c ****       hspi->hdmarx->XferAbortCallback = NULL;
 3846              		.loc 1 2223 11
 3847 00fc 7B68     		ldr	r3, [r7, #4]
 3848 00fe DB6C     		ldr	r3, [r3, #76]
 3849              		.loc 1 2223 39
 3850 0100 0022     		movs	r2, #0
 3851 0102 1A65     		str	r2, [r3, #80]
 3852              	.L197:
2224:Drivers/STM32F4xx_HAL_Driver/Src/stm32f4xx_hal_spi.c ****     }
2225:Drivers/STM32F4xx_HAL_Driver/Src/stm32f4xx_hal_spi.c ****   }
2226:Drivers/STM32F4xx_HAL_Driver/Src/stm32f4xx_hal_spi.c **** 
2227:Drivers/STM32F4xx_HAL_Driver/Src/stm32f4xx_hal_spi.c ****   /* Disable the SPI DMA Tx request if enabled */
2228:Drivers/STM32F4xx_HAL_Driver/Src/stm32f4xx_hal_spi.c ****   if (HAL_IS_BIT_SET(hspi->Instance->CR2, SPI_CR2_TXDMAEN))
 3853              		.loc 1 2228 7
 3854 0104 7B68     		ldr	r3, [r7, #4]
 3855 0106 1B68     		ldr	r3, [r3]
 3856 0108 5B68     		ldr	r3, [r3, #4]
 3857 010a 03F00203 		and	r3, r3, #2
 3858              		.loc 1 2228 6
 3859 010e 022B     		cmp	r3, #2
 3860 0110 15D1     		bne	.L199
2229:Drivers/STM32F4xx_HAL_Driver/Src/stm32f4xx_hal_spi.c ****   {
2230:Drivers/STM32F4xx_HAL_Driver/Src/stm32f4xx_hal_spi.c ****     /* Abort the SPI DMA Tx Stream/Channel */
2231:Drivers/STM32F4xx_HAL_Driver/Src/stm32f4xx_hal_spi.c ****     if (hspi->hdmatx != NULL)
 3861              		.loc 1 2231 13
 3862 0112 7B68     		ldr	r3, [r7, #4]
 3863 0114 9B6C     		ldr	r3, [r3, #72]
 3864              		.loc 1 2231 8
 3865 0116 002B     		cmp	r3, #0
 3866 0118 11D0     		beq	.L199
2232:Drivers/STM32F4xx_HAL_Driver/Src/stm32f4xx_hal_spi.c ****     {
2233:Drivers/STM32F4xx_HAL_Driver/Src/stm32f4xx_hal_spi.c ****       /* Abort DMA Tx Handle linked to SPI Peripheral */
2234:Drivers/STM32F4xx_HAL_Driver/Src/stm32f4xx_hal_spi.c ****       if (HAL_DMA_Abort_IT(hspi->hdmatx) != HAL_OK)
 3867              		.loc 1 2234 11
 3868 011a 7B68     		ldr	r3, [r7, #4]
 3869 011c 9B6C     		ldr	r3, [r3, #72]
 3870 011e 1846     		mov	r0, r3
ARM GAS  C:\Users\16323\AppData\Local\Temp\ccbQ7VoP.s 			page 108


 3871 0120 FFF7FEFF 		bl	HAL_DMA_Abort_IT
 3872 0124 0346     		mov	r3, r0
 3873              		.loc 1 2234 10
 3874 0126 002B     		cmp	r3, #0
 3875 0128 07D0     		beq	.L200
2235:Drivers/STM32F4xx_HAL_Driver/Src/stm32f4xx_hal_spi.c ****       {
2236:Drivers/STM32F4xx_HAL_Driver/Src/stm32f4xx_hal_spi.c ****         hspi->hdmatx->XferAbortCallback = NULL;
 3876              		.loc 1 2236 13
 3877 012a 7B68     		ldr	r3, [r7, #4]
 3878 012c 9B6C     		ldr	r3, [r3, #72]
 3879              		.loc 1 2236 41
 3880 012e 0022     		movs	r2, #0
 3881 0130 1A65     		str	r2, [r3, #80]
2237:Drivers/STM32F4xx_HAL_Driver/Src/stm32f4xx_hal_spi.c ****         hspi->ErrorCode = HAL_SPI_ERROR_ABORT;
 3882              		.loc 1 2237 25
 3883 0132 7B68     		ldr	r3, [r7, #4]
 3884 0134 4022     		movs	r2, #64
 3885 0136 5A65     		str	r2, [r3, #84]
 3886 0138 01E0     		b	.L199
 3887              	.L200:
2238:Drivers/STM32F4xx_HAL_Driver/Src/stm32f4xx_hal_spi.c ****       }
2239:Drivers/STM32F4xx_HAL_Driver/Src/stm32f4xx_hal_spi.c ****       else
2240:Drivers/STM32F4xx_HAL_Driver/Src/stm32f4xx_hal_spi.c ****       {
2241:Drivers/STM32F4xx_HAL_Driver/Src/stm32f4xx_hal_spi.c ****         abortcplt = 0U;
 3888              		.loc 1 2241 19
 3889 013a 0023     		movs	r3, #0
 3890 013c BB61     		str	r3, [r7, #24]
 3891              	.L199:
2242:Drivers/STM32F4xx_HAL_Driver/Src/stm32f4xx_hal_spi.c ****       }
2243:Drivers/STM32F4xx_HAL_Driver/Src/stm32f4xx_hal_spi.c ****     }
2244:Drivers/STM32F4xx_HAL_Driver/Src/stm32f4xx_hal_spi.c ****   }
2245:Drivers/STM32F4xx_HAL_Driver/Src/stm32f4xx_hal_spi.c ****   /* Disable the SPI DMA Rx request if enabled */
2246:Drivers/STM32F4xx_HAL_Driver/Src/stm32f4xx_hal_spi.c ****   if (HAL_IS_BIT_SET(hspi->Instance->CR2, SPI_CR2_RXDMAEN))
 3892              		.loc 1 2246 7
 3893 013e 7B68     		ldr	r3, [r7, #4]
 3894 0140 1B68     		ldr	r3, [r3]
 3895 0142 5B68     		ldr	r3, [r3, #4]
 3896 0144 03F00103 		and	r3, r3, #1
 3897              		.loc 1 2246 6
 3898 0148 012B     		cmp	r3, #1
 3899 014a 15D1     		bne	.L201
2247:Drivers/STM32F4xx_HAL_Driver/Src/stm32f4xx_hal_spi.c ****   {
2248:Drivers/STM32F4xx_HAL_Driver/Src/stm32f4xx_hal_spi.c ****     /* Abort the SPI DMA Rx Stream/Channel */
2249:Drivers/STM32F4xx_HAL_Driver/Src/stm32f4xx_hal_spi.c ****     if (hspi->hdmarx != NULL)
 3900              		.loc 1 2249 13
 3901 014c 7B68     		ldr	r3, [r7, #4]
 3902 014e DB6C     		ldr	r3, [r3, #76]
 3903              		.loc 1 2249 8
 3904 0150 002B     		cmp	r3, #0
 3905 0152 11D0     		beq	.L201
2250:Drivers/STM32F4xx_HAL_Driver/Src/stm32f4xx_hal_spi.c ****     {
2251:Drivers/STM32F4xx_HAL_Driver/Src/stm32f4xx_hal_spi.c ****       /* Abort DMA Rx Handle linked to SPI Peripheral */
2252:Drivers/STM32F4xx_HAL_Driver/Src/stm32f4xx_hal_spi.c ****       if (HAL_DMA_Abort_IT(hspi->hdmarx) !=  HAL_OK)
 3906              		.loc 1 2252 11
 3907 0154 7B68     		ldr	r3, [r7, #4]
 3908 0156 DB6C     		ldr	r3, [r3, #76]
 3909 0158 1846     		mov	r0, r3
ARM GAS  C:\Users\16323\AppData\Local\Temp\ccbQ7VoP.s 			page 109


 3910 015a FFF7FEFF 		bl	HAL_DMA_Abort_IT
 3911 015e 0346     		mov	r3, r0
 3912              		.loc 1 2252 10
 3913 0160 002B     		cmp	r3, #0
 3914 0162 07D0     		beq	.L202
2253:Drivers/STM32F4xx_HAL_Driver/Src/stm32f4xx_hal_spi.c ****       {
2254:Drivers/STM32F4xx_HAL_Driver/Src/stm32f4xx_hal_spi.c ****         hspi->hdmarx->XferAbortCallback = NULL;
 3915              		.loc 1 2254 13
 3916 0164 7B68     		ldr	r3, [r7, #4]
 3917 0166 DB6C     		ldr	r3, [r3, #76]
 3918              		.loc 1 2254 41
 3919 0168 0022     		movs	r2, #0
 3920 016a 1A65     		str	r2, [r3, #80]
2255:Drivers/STM32F4xx_HAL_Driver/Src/stm32f4xx_hal_spi.c ****         hspi->ErrorCode = HAL_SPI_ERROR_ABORT;
 3921              		.loc 1 2255 25
 3922 016c 7B68     		ldr	r3, [r7, #4]
 3923 016e 4022     		movs	r2, #64
 3924 0170 5A65     		str	r2, [r3, #84]
 3925 0172 01E0     		b	.L201
 3926              	.L202:
2256:Drivers/STM32F4xx_HAL_Driver/Src/stm32f4xx_hal_spi.c ****       }
2257:Drivers/STM32F4xx_HAL_Driver/Src/stm32f4xx_hal_spi.c ****       else
2258:Drivers/STM32F4xx_HAL_Driver/Src/stm32f4xx_hal_spi.c ****       {
2259:Drivers/STM32F4xx_HAL_Driver/Src/stm32f4xx_hal_spi.c ****         abortcplt = 0U;
 3927              		.loc 1 2259 19
 3928 0174 0023     		movs	r3, #0
 3929 0176 BB61     		str	r3, [r7, #24]
 3930              	.L201:
2260:Drivers/STM32F4xx_HAL_Driver/Src/stm32f4xx_hal_spi.c ****       }
2261:Drivers/STM32F4xx_HAL_Driver/Src/stm32f4xx_hal_spi.c ****     }
2262:Drivers/STM32F4xx_HAL_Driver/Src/stm32f4xx_hal_spi.c ****   }
2263:Drivers/STM32F4xx_HAL_Driver/Src/stm32f4xx_hal_spi.c **** 
2264:Drivers/STM32F4xx_HAL_Driver/Src/stm32f4xx_hal_spi.c ****   if (abortcplt == 1U)
 3931              		.loc 1 2264 6
 3932 0178 BB69     		ldr	r3, [r7, #24]
 3933 017a 012B     		cmp	r3, #1
 3934 017c 28D1     		bne	.L203
2265:Drivers/STM32F4xx_HAL_Driver/Src/stm32f4xx_hal_spi.c ****   {
2266:Drivers/STM32F4xx_HAL_Driver/Src/stm32f4xx_hal_spi.c ****     /* Reset Tx and Rx transfer counters */
2267:Drivers/STM32F4xx_HAL_Driver/Src/stm32f4xx_hal_spi.c ****     hspi->RxXferCount = 0U;
 3935              		.loc 1 2267 23
 3936 017e 7B68     		ldr	r3, [r7, #4]
 3937 0180 0022     		movs	r2, #0
 3938 0182 DA87     		strh	r2, [r3, #62]	@ movhi
2268:Drivers/STM32F4xx_HAL_Driver/Src/stm32f4xx_hal_spi.c ****     hspi->TxXferCount = 0U;
 3939              		.loc 1 2268 23
 3940 0184 7B68     		ldr	r3, [r7, #4]
 3941 0186 0022     		movs	r2, #0
 3942 0188 DA86     		strh	r2, [r3, #54]	@ movhi
2269:Drivers/STM32F4xx_HAL_Driver/Src/stm32f4xx_hal_spi.c **** 
2270:Drivers/STM32F4xx_HAL_Driver/Src/stm32f4xx_hal_spi.c ****     /* Check error during Abort procedure */
2271:Drivers/STM32F4xx_HAL_Driver/Src/stm32f4xx_hal_spi.c ****     if (hspi->ErrorCode == HAL_SPI_ERROR_ABORT)
 3943              		.loc 1 2271 13
 3944 018a 7B68     		ldr	r3, [r7, #4]
 3945 018c 5B6D     		ldr	r3, [r3, #84]
 3946              		.loc 1 2271 8
 3947 018e 402B     		cmp	r3, #64
ARM GAS  C:\Users\16323\AppData\Local\Temp\ccbQ7VoP.s 			page 110


 3948 0190 02D1     		bne	.L204
2272:Drivers/STM32F4xx_HAL_Driver/Src/stm32f4xx_hal_spi.c ****     {
2273:Drivers/STM32F4xx_HAL_Driver/Src/stm32f4xx_hal_spi.c ****       /* return HAL_Error in case of error during Abort procedure */
2274:Drivers/STM32F4xx_HAL_Driver/Src/stm32f4xx_hal_spi.c ****       errorcode = HAL_ERROR;
 3949              		.loc 1 2274 17
 3950 0192 0123     		movs	r3, #1
 3951 0194 FB77     		strb	r3, [r7, #31]
 3952 0196 02E0     		b	.L205
 3953              	.L204:
2275:Drivers/STM32F4xx_HAL_Driver/Src/stm32f4xx_hal_spi.c ****     }
2276:Drivers/STM32F4xx_HAL_Driver/Src/stm32f4xx_hal_spi.c ****     else
2277:Drivers/STM32F4xx_HAL_Driver/Src/stm32f4xx_hal_spi.c ****     {
2278:Drivers/STM32F4xx_HAL_Driver/Src/stm32f4xx_hal_spi.c ****       /* Reset errorCode */
2279:Drivers/STM32F4xx_HAL_Driver/Src/stm32f4xx_hal_spi.c ****       hspi->ErrorCode = HAL_SPI_ERROR_NONE;
 3954              		.loc 1 2279 23
 3955 0198 7B68     		ldr	r3, [r7, #4]
 3956 019a 0022     		movs	r2, #0
 3957 019c 5A65     		str	r2, [r3, #84]
 3958              	.L205:
 3959              	.LBB6:
2280:Drivers/STM32F4xx_HAL_Driver/Src/stm32f4xx_hal_spi.c ****     }
2281:Drivers/STM32F4xx_HAL_Driver/Src/stm32f4xx_hal_spi.c **** 
2282:Drivers/STM32F4xx_HAL_Driver/Src/stm32f4xx_hal_spi.c ****     /* Clear the Error flags in the SR register */
2283:Drivers/STM32F4xx_HAL_Driver/Src/stm32f4xx_hal_spi.c ****     __HAL_SPI_CLEAR_OVRFLAG(hspi);
 3960              		.loc 1 2283 5
 3961 019e 0023     		movs	r3, #0
 3962 01a0 FB60     		str	r3, [r7, #12]
 3963 01a2 7B68     		ldr	r3, [r7, #4]
 3964 01a4 1B68     		ldr	r3, [r3]
 3965 01a6 DB68     		ldr	r3, [r3, #12]
 3966 01a8 FB60     		str	r3, [r7, #12]
 3967 01aa 7B68     		ldr	r3, [r7, #4]
 3968 01ac 1B68     		ldr	r3, [r3]
 3969 01ae 9B68     		ldr	r3, [r3, #8]
 3970 01b0 FB60     		str	r3, [r7, #12]
 3971 01b2 FB68     		ldr	r3, [r7, #12]
 3972              	.LBE6:
 3973              	.LBB7:
2284:Drivers/STM32F4xx_HAL_Driver/Src/stm32f4xx_hal_spi.c ****     __HAL_SPI_CLEAR_FREFLAG(hspi);
 3974              		.loc 1 2284 5
 3975 01b4 0023     		movs	r3, #0
 3976 01b6 BB60     		str	r3, [r7, #8]
 3977 01b8 7B68     		ldr	r3, [r7, #4]
 3978 01ba 1B68     		ldr	r3, [r3]
 3979 01bc 9B68     		ldr	r3, [r3, #8]
 3980 01be BB60     		str	r3, [r7, #8]
 3981 01c0 BB68     		ldr	r3, [r7, #8]
 3982              	.LBE7:
2285:Drivers/STM32F4xx_HAL_Driver/Src/stm32f4xx_hal_spi.c **** 
2286:Drivers/STM32F4xx_HAL_Driver/Src/stm32f4xx_hal_spi.c ****     /* Restore hspi->State to Ready */
2287:Drivers/STM32F4xx_HAL_Driver/Src/stm32f4xx_hal_spi.c ****     hspi->State = HAL_SPI_STATE_READY;
 3983              		.loc 1 2287 17
 3984 01c2 7B68     		ldr	r3, [r7, #4]
 3985 01c4 0122     		movs	r2, #1
 3986 01c6 83F85120 		strb	r2, [r3, #81]
2288:Drivers/STM32F4xx_HAL_Driver/Src/stm32f4xx_hal_spi.c **** 
2289:Drivers/STM32F4xx_HAL_Driver/Src/stm32f4xx_hal_spi.c ****     /* As no DMA to be aborted, call directly user Abort complete callback */
ARM GAS  C:\Users\16323\AppData\Local\Temp\ccbQ7VoP.s 			page 111


2290:Drivers/STM32F4xx_HAL_Driver/Src/stm32f4xx_hal_spi.c **** #if (USE_HAL_SPI_REGISTER_CALLBACKS == 1U)
2291:Drivers/STM32F4xx_HAL_Driver/Src/stm32f4xx_hal_spi.c ****     hspi->AbortCpltCallback(hspi);
2292:Drivers/STM32F4xx_HAL_Driver/Src/stm32f4xx_hal_spi.c **** #else
2293:Drivers/STM32F4xx_HAL_Driver/Src/stm32f4xx_hal_spi.c ****     HAL_SPI_AbortCpltCallback(hspi);
 3987              		.loc 1 2293 5
 3988 01ca 7868     		ldr	r0, [r7, #4]
 3989 01cc FFF7FEFF 		bl	HAL_SPI_AbortCpltCallback
 3990              	.L203:
2294:Drivers/STM32F4xx_HAL_Driver/Src/stm32f4xx_hal_spi.c **** #endif /* USE_HAL_SPI_REGISTER_CALLBACKS */
2295:Drivers/STM32F4xx_HAL_Driver/Src/stm32f4xx_hal_spi.c ****   }
2296:Drivers/STM32F4xx_HAL_Driver/Src/stm32f4xx_hal_spi.c **** 
2297:Drivers/STM32F4xx_HAL_Driver/Src/stm32f4xx_hal_spi.c ****   return errorcode;
 3991              		.loc 1 2297 10
 3992 01d0 FB7F     		ldrb	r3, [r7, #31]	@ zero_extendqisi2
2298:Drivers/STM32F4xx_HAL_Driver/Src/stm32f4xx_hal_spi.c **** }
 3993              		.loc 1 2298 1
 3994 01d2 1846     		mov	r0, r3
 3995 01d4 2037     		adds	r7, r7, #32
 3996              	.LCFI77:
 3997              		.cfi_def_cfa_offset 8
 3998 01d6 BD46     		mov	sp, r7
 3999              	.LCFI78:
 4000              		.cfi_def_cfa_register 13
 4001              		@ sp needed
 4002 01d8 80BD     		pop	{r7, pc}
 4003              	.L208:
 4004 01da 00BF     		.align	2
 4005              	.L207:
 4006 01dc 00000000 		.word	SystemCoreClock
 4007 01e0 F1197605 		.word	91625969
 4008 01e4 00000000 		.word	SPI_AbortTx_ISR
 4009 01e8 00000000 		.word	SPI_AbortRx_ISR
 4010 01ec 00000000 		.word	SPI_DMATxAbortCallback
 4011 01f0 00000000 		.word	SPI_DMARxAbortCallback
 4012              		.cfi_endproc
 4013              	.LFE253:
 4015              		.section	.text.HAL_SPI_DMAPause,"ax",%progbits
 4016              		.align	1
 4017              		.global	HAL_SPI_DMAPause
 4018              		.syntax unified
 4019              		.thumb
 4020              		.thumb_func
 4022              	HAL_SPI_DMAPause:
 4023              	.LFB254:
2299:Drivers/STM32F4xx_HAL_Driver/Src/stm32f4xx_hal_spi.c **** 
2300:Drivers/STM32F4xx_HAL_Driver/Src/stm32f4xx_hal_spi.c **** /**
2301:Drivers/STM32F4xx_HAL_Driver/Src/stm32f4xx_hal_spi.c ****   * @brief  Pause the DMA Transfer.
2302:Drivers/STM32F4xx_HAL_Driver/Src/stm32f4xx_hal_spi.c ****   * @param  hspi pointer to a SPI_HandleTypeDef structure that contains
2303:Drivers/STM32F4xx_HAL_Driver/Src/stm32f4xx_hal_spi.c ****   *               the configuration information for the specified SPI module.
2304:Drivers/STM32F4xx_HAL_Driver/Src/stm32f4xx_hal_spi.c ****   * @retval HAL status
2305:Drivers/STM32F4xx_HAL_Driver/Src/stm32f4xx_hal_spi.c ****   */
2306:Drivers/STM32F4xx_HAL_Driver/Src/stm32f4xx_hal_spi.c **** HAL_StatusTypeDef HAL_SPI_DMAPause(SPI_HandleTypeDef *hspi)
2307:Drivers/STM32F4xx_HAL_Driver/Src/stm32f4xx_hal_spi.c **** {
 4024              		.loc 1 2307 1
 4025              		.cfi_startproc
 4026              		@ args = 0, pretend = 0, frame = 8
 4027              		@ frame_needed = 1, uses_anonymous_args = 0
ARM GAS  C:\Users\16323\AppData\Local\Temp\ccbQ7VoP.s 			page 112


 4028              		@ link register save eliminated.
 4029 0000 80B4     		push	{r7}
 4030              	.LCFI79:
 4031              		.cfi_def_cfa_offset 4
 4032              		.cfi_offset 7, -4
 4033 0002 83B0     		sub	sp, sp, #12
 4034              	.LCFI80:
 4035              		.cfi_def_cfa_offset 16
 4036 0004 00AF     		add	r7, sp, #0
 4037              	.LCFI81:
 4038              		.cfi_def_cfa_register 7
 4039 0006 7860     		str	r0, [r7, #4]
2308:Drivers/STM32F4xx_HAL_Driver/Src/stm32f4xx_hal_spi.c ****   /* Process Locked */
2309:Drivers/STM32F4xx_HAL_Driver/Src/stm32f4xx_hal_spi.c ****   __HAL_LOCK(hspi);
 4040              		.loc 1 2309 3
 4041 0008 7B68     		ldr	r3, [r7, #4]
 4042 000a 93F85030 		ldrb	r3, [r3, #80]	@ zero_extendqisi2
 4043 000e 012B     		cmp	r3, #1
 4044 0010 01D1     		bne	.L210
 4045              		.loc 1 2309 3 is_stmt 0 discriminator 1
 4046 0012 0223     		movs	r3, #2
 4047 0014 10E0     		b	.L211
 4048              	.L210:
 4049              		.loc 1 2309 3 discriminator 2
 4050 0016 7B68     		ldr	r3, [r7, #4]
 4051 0018 0122     		movs	r2, #1
 4052 001a 83F85020 		strb	r2, [r3, #80]
2310:Drivers/STM32F4xx_HAL_Driver/Src/stm32f4xx_hal_spi.c **** 
2311:Drivers/STM32F4xx_HAL_Driver/Src/stm32f4xx_hal_spi.c ****   /* Disable the SPI DMA Tx & Rx requests */
2312:Drivers/STM32F4xx_HAL_Driver/Src/stm32f4xx_hal_spi.c ****   CLEAR_BIT(hspi->Instance->CR2, SPI_CR2_TXDMAEN | SPI_CR2_RXDMAEN);
 4053              		.loc 1 2312 3 is_stmt 1 discriminator 2
 4054 001e 7B68     		ldr	r3, [r7, #4]
 4055 0020 1B68     		ldr	r3, [r3]
 4056 0022 5A68     		ldr	r2, [r3, #4]
 4057 0024 7B68     		ldr	r3, [r7, #4]
 4058 0026 1B68     		ldr	r3, [r3]
 4059 0028 22F00302 		bic	r2, r2, #3
 4060 002c 5A60     		str	r2, [r3, #4]
2313:Drivers/STM32F4xx_HAL_Driver/Src/stm32f4xx_hal_spi.c **** 
2314:Drivers/STM32F4xx_HAL_Driver/Src/stm32f4xx_hal_spi.c ****   /* Process Unlocked */
2315:Drivers/STM32F4xx_HAL_Driver/Src/stm32f4xx_hal_spi.c ****   __HAL_UNLOCK(hspi);
 4061              		.loc 1 2315 3 discriminator 2
 4062 002e 7B68     		ldr	r3, [r7, #4]
 4063 0030 0022     		movs	r2, #0
 4064 0032 83F85020 		strb	r2, [r3, #80]
2316:Drivers/STM32F4xx_HAL_Driver/Src/stm32f4xx_hal_spi.c **** 
2317:Drivers/STM32F4xx_HAL_Driver/Src/stm32f4xx_hal_spi.c ****   return HAL_OK;
 4065              		.loc 1 2317 10 discriminator 2
 4066 0036 0023     		movs	r3, #0
 4067              	.L211:
2318:Drivers/STM32F4xx_HAL_Driver/Src/stm32f4xx_hal_spi.c **** }
 4068              		.loc 1 2318 1
 4069 0038 1846     		mov	r0, r3
 4070 003a 0C37     		adds	r7, r7, #12
 4071              	.LCFI82:
 4072              		.cfi_def_cfa_offset 4
 4073 003c BD46     		mov	sp, r7
ARM GAS  C:\Users\16323\AppData\Local\Temp\ccbQ7VoP.s 			page 113


 4074              	.LCFI83:
 4075              		.cfi_def_cfa_register 13
 4076              		@ sp needed
 4077 003e 5DF8047B 		ldr	r7, [sp], #4
 4078              	.LCFI84:
 4079              		.cfi_restore 7
 4080              		.cfi_def_cfa_offset 0
 4081 0042 7047     		bx	lr
 4082              		.cfi_endproc
 4083              	.LFE254:
 4085              		.section	.text.HAL_SPI_DMAResume,"ax",%progbits
 4086              		.align	1
 4087              		.global	HAL_SPI_DMAResume
 4088              		.syntax unified
 4089              		.thumb
 4090              		.thumb_func
 4092              	HAL_SPI_DMAResume:
 4093              	.LFB255:
2319:Drivers/STM32F4xx_HAL_Driver/Src/stm32f4xx_hal_spi.c **** 
2320:Drivers/STM32F4xx_HAL_Driver/Src/stm32f4xx_hal_spi.c **** /**
2321:Drivers/STM32F4xx_HAL_Driver/Src/stm32f4xx_hal_spi.c ****   * @brief  Resume the DMA Transfer.
2322:Drivers/STM32F4xx_HAL_Driver/Src/stm32f4xx_hal_spi.c ****   * @param  hspi pointer to a SPI_HandleTypeDef structure that contains
2323:Drivers/STM32F4xx_HAL_Driver/Src/stm32f4xx_hal_spi.c ****   *               the configuration information for the specified SPI module.
2324:Drivers/STM32F4xx_HAL_Driver/Src/stm32f4xx_hal_spi.c ****   * @retval HAL status
2325:Drivers/STM32F4xx_HAL_Driver/Src/stm32f4xx_hal_spi.c ****   */
2326:Drivers/STM32F4xx_HAL_Driver/Src/stm32f4xx_hal_spi.c **** HAL_StatusTypeDef HAL_SPI_DMAResume(SPI_HandleTypeDef *hspi)
2327:Drivers/STM32F4xx_HAL_Driver/Src/stm32f4xx_hal_spi.c **** {
 4094              		.loc 1 2327 1
 4095              		.cfi_startproc
 4096              		@ args = 0, pretend = 0, frame = 8
 4097              		@ frame_needed = 1, uses_anonymous_args = 0
 4098              		@ link register save eliminated.
 4099 0000 80B4     		push	{r7}
 4100              	.LCFI85:
 4101              		.cfi_def_cfa_offset 4
 4102              		.cfi_offset 7, -4
 4103 0002 83B0     		sub	sp, sp, #12
 4104              	.LCFI86:
 4105              		.cfi_def_cfa_offset 16
 4106 0004 00AF     		add	r7, sp, #0
 4107              	.LCFI87:
 4108              		.cfi_def_cfa_register 7
 4109 0006 7860     		str	r0, [r7, #4]
2328:Drivers/STM32F4xx_HAL_Driver/Src/stm32f4xx_hal_spi.c ****   /* Process Locked */
2329:Drivers/STM32F4xx_HAL_Driver/Src/stm32f4xx_hal_spi.c ****   __HAL_LOCK(hspi);
 4110              		.loc 1 2329 3
 4111 0008 7B68     		ldr	r3, [r7, #4]
 4112 000a 93F85030 		ldrb	r3, [r3, #80]	@ zero_extendqisi2
 4113 000e 012B     		cmp	r3, #1
 4114 0010 01D1     		bne	.L213
 4115              		.loc 1 2329 3 is_stmt 0 discriminator 1
 4116 0012 0223     		movs	r3, #2
 4117 0014 10E0     		b	.L214
 4118              	.L213:
 4119              		.loc 1 2329 3 discriminator 2
 4120 0016 7B68     		ldr	r3, [r7, #4]
 4121 0018 0122     		movs	r2, #1
ARM GAS  C:\Users\16323\AppData\Local\Temp\ccbQ7VoP.s 			page 114


 4122 001a 83F85020 		strb	r2, [r3, #80]
2330:Drivers/STM32F4xx_HAL_Driver/Src/stm32f4xx_hal_spi.c **** 
2331:Drivers/STM32F4xx_HAL_Driver/Src/stm32f4xx_hal_spi.c ****   /* Enable the SPI DMA Tx & Rx requests */
2332:Drivers/STM32F4xx_HAL_Driver/Src/stm32f4xx_hal_spi.c ****   SET_BIT(hspi->Instance->CR2, SPI_CR2_TXDMAEN | SPI_CR2_RXDMAEN);
 4123              		.loc 1 2332 3 is_stmt 1 discriminator 2
 4124 001e 7B68     		ldr	r3, [r7, #4]
 4125 0020 1B68     		ldr	r3, [r3]
 4126 0022 5A68     		ldr	r2, [r3, #4]
 4127 0024 7B68     		ldr	r3, [r7, #4]
 4128 0026 1B68     		ldr	r3, [r3]
 4129 0028 42F00302 		orr	r2, r2, #3
 4130 002c 5A60     		str	r2, [r3, #4]
2333:Drivers/STM32F4xx_HAL_Driver/Src/stm32f4xx_hal_spi.c **** 
2334:Drivers/STM32F4xx_HAL_Driver/Src/stm32f4xx_hal_spi.c ****   /* Process Unlocked */
2335:Drivers/STM32F4xx_HAL_Driver/Src/stm32f4xx_hal_spi.c ****   __HAL_UNLOCK(hspi);
 4131              		.loc 1 2335 3 discriminator 2
 4132 002e 7B68     		ldr	r3, [r7, #4]
 4133 0030 0022     		movs	r2, #0
 4134 0032 83F85020 		strb	r2, [r3, #80]
2336:Drivers/STM32F4xx_HAL_Driver/Src/stm32f4xx_hal_spi.c **** 
2337:Drivers/STM32F4xx_HAL_Driver/Src/stm32f4xx_hal_spi.c ****   return HAL_OK;
 4135              		.loc 1 2337 10 discriminator 2
 4136 0036 0023     		movs	r3, #0
 4137              	.L214:
2338:Drivers/STM32F4xx_HAL_Driver/Src/stm32f4xx_hal_spi.c **** }
 4138              		.loc 1 2338 1
 4139 0038 1846     		mov	r0, r3
 4140 003a 0C37     		adds	r7, r7, #12
 4141              	.LCFI88:
 4142              		.cfi_def_cfa_offset 4
 4143 003c BD46     		mov	sp, r7
 4144              	.LCFI89:
 4145              		.cfi_def_cfa_register 13
 4146              		@ sp needed
 4147 003e 5DF8047B 		ldr	r7, [sp], #4
 4148              	.LCFI90:
 4149              		.cfi_restore 7
 4150              		.cfi_def_cfa_offset 0
 4151 0042 7047     		bx	lr
 4152              		.cfi_endproc
 4153              	.LFE255:
 4155              		.section	.text.HAL_SPI_DMAStop,"ax",%progbits
 4156              		.align	1
 4157              		.global	HAL_SPI_DMAStop
 4158              		.syntax unified
 4159              		.thumb
 4160              		.thumb_func
 4162              	HAL_SPI_DMAStop:
 4163              	.LFB256:
2339:Drivers/STM32F4xx_HAL_Driver/Src/stm32f4xx_hal_spi.c **** 
2340:Drivers/STM32F4xx_HAL_Driver/Src/stm32f4xx_hal_spi.c **** /**
2341:Drivers/STM32F4xx_HAL_Driver/Src/stm32f4xx_hal_spi.c ****   * @brief  Stop the DMA Transfer.
2342:Drivers/STM32F4xx_HAL_Driver/Src/stm32f4xx_hal_spi.c ****   * @param  hspi pointer to a SPI_HandleTypeDef structure that contains
2343:Drivers/STM32F4xx_HAL_Driver/Src/stm32f4xx_hal_spi.c ****   *               the configuration information for the specified SPI module.
2344:Drivers/STM32F4xx_HAL_Driver/Src/stm32f4xx_hal_spi.c ****   * @retval HAL status
2345:Drivers/STM32F4xx_HAL_Driver/Src/stm32f4xx_hal_spi.c ****   */
2346:Drivers/STM32F4xx_HAL_Driver/Src/stm32f4xx_hal_spi.c **** HAL_StatusTypeDef HAL_SPI_DMAStop(SPI_HandleTypeDef *hspi)
ARM GAS  C:\Users\16323\AppData\Local\Temp\ccbQ7VoP.s 			page 115


2347:Drivers/STM32F4xx_HAL_Driver/Src/stm32f4xx_hal_spi.c **** {
 4164              		.loc 1 2347 1
 4165              		.cfi_startproc
 4166              		@ args = 0, pretend = 0, frame = 16
 4167              		@ frame_needed = 1, uses_anonymous_args = 0
 4168 0000 80B5     		push	{r7, lr}
 4169              	.LCFI91:
 4170              		.cfi_def_cfa_offset 8
 4171              		.cfi_offset 7, -8
 4172              		.cfi_offset 14, -4
 4173 0002 84B0     		sub	sp, sp, #16
 4174              	.LCFI92:
 4175              		.cfi_def_cfa_offset 24
 4176 0004 00AF     		add	r7, sp, #0
 4177              	.LCFI93:
 4178              		.cfi_def_cfa_register 7
 4179 0006 7860     		str	r0, [r7, #4]
2348:Drivers/STM32F4xx_HAL_Driver/Src/stm32f4xx_hal_spi.c ****   HAL_StatusTypeDef errorcode = HAL_OK;
 4180              		.loc 1 2348 21
 4181 0008 0023     		movs	r3, #0
 4182 000a FB73     		strb	r3, [r7, #15]
2349:Drivers/STM32F4xx_HAL_Driver/Src/stm32f4xx_hal_spi.c ****   /* The Lock is not implemented on this API to allow the user application
2350:Drivers/STM32F4xx_HAL_Driver/Src/stm32f4xx_hal_spi.c ****      to call the HAL SPI API under callbacks HAL_SPI_TxCpltCallback() or HAL_SPI_RxCpltCallback() o
2351:Drivers/STM32F4xx_HAL_Driver/Src/stm32f4xx_hal_spi.c ****      when calling HAL_DMA_Abort() API the DMA TX/RX Transfer complete interrupt is generated
2352:Drivers/STM32F4xx_HAL_Driver/Src/stm32f4xx_hal_spi.c ****      and the correspond call back is executed HAL_SPI_TxCpltCallback() or HAL_SPI_RxCpltCallback() 
2353:Drivers/STM32F4xx_HAL_Driver/Src/stm32f4xx_hal_spi.c ****      */
2354:Drivers/STM32F4xx_HAL_Driver/Src/stm32f4xx_hal_spi.c **** 
2355:Drivers/STM32F4xx_HAL_Driver/Src/stm32f4xx_hal_spi.c ****   /* Abort the SPI DMA tx Stream/Channel  */
2356:Drivers/STM32F4xx_HAL_Driver/Src/stm32f4xx_hal_spi.c ****   if (hspi->hdmatx != NULL)
 4183              		.loc 1 2356 11
 4184 000c 7B68     		ldr	r3, [r7, #4]
 4185 000e 9B6C     		ldr	r3, [r3, #72]
 4186              		.loc 1 2356 6
 4187 0010 002B     		cmp	r3, #0
 4188 0012 0FD0     		beq	.L216
2357:Drivers/STM32F4xx_HAL_Driver/Src/stm32f4xx_hal_spi.c ****   {
2358:Drivers/STM32F4xx_HAL_Driver/Src/stm32f4xx_hal_spi.c ****     if (HAL_OK != HAL_DMA_Abort(hspi->hdmatx))
 4189              		.loc 1 2358 19
 4190 0014 7B68     		ldr	r3, [r7, #4]
 4191 0016 9B6C     		ldr	r3, [r3, #72]
 4192 0018 1846     		mov	r0, r3
 4193 001a FFF7FEFF 		bl	HAL_DMA_Abort
 4194 001e 0346     		mov	r3, r0
 4195              		.loc 1 2358 8
 4196 0020 002B     		cmp	r3, #0
 4197 0022 07D0     		beq	.L216
2359:Drivers/STM32F4xx_HAL_Driver/Src/stm32f4xx_hal_spi.c ****     {
2360:Drivers/STM32F4xx_HAL_Driver/Src/stm32f4xx_hal_spi.c ****       SET_BIT(hspi->ErrorCode, HAL_SPI_ERROR_DMA);
 4198              		.loc 1 2360 7
 4199 0024 7B68     		ldr	r3, [r7, #4]
 4200 0026 5B6D     		ldr	r3, [r3, #84]
 4201 0028 43F01002 		orr	r2, r3, #16
 4202 002c 7B68     		ldr	r3, [r7, #4]
 4203 002e 5A65     		str	r2, [r3, #84]
2361:Drivers/STM32F4xx_HAL_Driver/Src/stm32f4xx_hal_spi.c ****       errorcode = HAL_ERROR;
 4204              		.loc 1 2361 17
 4205 0030 0123     		movs	r3, #1
ARM GAS  C:\Users\16323\AppData\Local\Temp\ccbQ7VoP.s 			page 116


 4206 0032 FB73     		strb	r3, [r7, #15]
 4207              	.L216:
2362:Drivers/STM32F4xx_HAL_Driver/Src/stm32f4xx_hal_spi.c ****     }
2363:Drivers/STM32F4xx_HAL_Driver/Src/stm32f4xx_hal_spi.c ****   }
2364:Drivers/STM32F4xx_HAL_Driver/Src/stm32f4xx_hal_spi.c ****   /* Abort the SPI DMA rx Stream/Channel  */
2365:Drivers/STM32F4xx_HAL_Driver/Src/stm32f4xx_hal_spi.c ****   if (hspi->hdmarx != NULL)
 4208              		.loc 1 2365 11
 4209 0034 7B68     		ldr	r3, [r7, #4]
 4210 0036 DB6C     		ldr	r3, [r3, #76]
 4211              		.loc 1 2365 6
 4212 0038 002B     		cmp	r3, #0
 4213 003a 0FD0     		beq	.L217
2366:Drivers/STM32F4xx_HAL_Driver/Src/stm32f4xx_hal_spi.c ****   {
2367:Drivers/STM32F4xx_HAL_Driver/Src/stm32f4xx_hal_spi.c ****     if (HAL_OK != HAL_DMA_Abort(hspi->hdmarx))
 4214              		.loc 1 2367 19
 4215 003c 7B68     		ldr	r3, [r7, #4]
 4216 003e DB6C     		ldr	r3, [r3, #76]
 4217 0040 1846     		mov	r0, r3
 4218 0042 FFF7FEFF 		bl	HAL_DMA_Abort
 4219 0046 0346     		mov	r3, r0
 4220              		.loc 1 2367 8
 4221 0048 002B     		cmp	r3, #0
 4222 004a 07D0     		beq	.L217
2368:Drivers/STM32F4xx_HAL_Driver/Src/stm32f4xx_hal_spi.c ****     {
2369:Drivers/STM32F4xx_HAL_Driver/Src/stm32f4xx_hal_spi.c ****       SET_BIT(hspi->ErrorCode, HAL_SPI_ERROR_DMA);
 4223              		.loc 1 2369 7
 4224 004c 7B68     		ldr	r3, [r7, #4]
 4225 004e 5B6D     		ldr	r3, [r3, #84]
 4226 0050 43F01002 		orr	r2, r3, #16
 4227 0054 7B68     		ldr	r3, [r7, #4]
 4228 0056 5A65     		str	r2, [r3, #84]
2370:Drivers/STM32F4xx_HAL_Driver/Src/stm32f4xx_hal_spi.c ****       errorcode = HAL_ERROR;
 4229              		.loc 1 2370 17
 4230 0058 0123     		movs	r3, #1
 4231 005a FB73     		strb	r3, [r7, #15]
 4232              	.L217:
2371:Drivers/STM32F4xx_HAL_Driver/Src/stm32f4xx_hal_spi.c ****     }
2372:Drivers/STM32F4xx_HAL_Driver/Src/stm32f4xx_hal_spi.c ****   }
2373:Drivers/STM32F4xx_HAL_Driver/Src/stm32f4xx_hal_spi.c **** 
2374:Drivers/STM32F4xx_HAL_Driver/Src/stm32f4xx_hal_spi.c ****   /* Disable the SPI DMA Tx & Rx requests */
2375:Drivers/STM32F4xx_HAL_Driver/Src/stm32f4xx_hal_spi.c ****   CLEAR_BIT(hspi->Instance->CR2, SPI_CR2_TXDMAEN | SPI_CR2_RXDMAEN);
 4233              		.loc 1 2375 3
 4234 005c 7B68     		ldr	r3, [r7, #4]
 4235 005e 1B68     		ldr	r3, [r3]
 4236 0060 5A68     		ldr	r2, [r3, #4]
 4237 0062 7B68     		ldr	r3, [r7, #4]
 4238 0064 1B68     		ldr	r3, [r3]
 4239 0066 22F00302 		bic	r2, r2, #3
 4240 006a 5A60     		str	r2, [r3, #4]
2376:Drivers/STM32F4xx_HAL_Driver/Src/stm32f4xx_hal_spi.c ****   hspi->State = HAL_SPI_STATE_READY;
 4241              		.loc 1 2376 15
 4242 006c 7B68     		ldr	r3, [r7, #4]
 4243 006e 0122     		movs	r2, #1
 4244 0070 83F85120 		strb	r2, [r3, #81]
2377:Drivers/STM32F4xx_HAL_Driver/Src/stm32f4xx_hal_spi.c ****   return errorcode;
 4245              		.loc 1 2377 10
 4246 0074 FB7B     		ldrb	r3, [r7, #15]	@ zero_extendqisi2
ARM GAS  C:\Users\16323\AppData\Local\Temp\ccbQ7VoP.s 			page 117


2378:Drivers/STM32F4xx_HAL_Driver/Src/stm32f4xx_hal_spi.c **** }
 4247              		.loc 1 2378 1
 4248 0076 1846     		mov	r0, r3
 4249 0078 1037     		adds	r7, r7, #16
 4250              	.LCFI94:
 4251              		.cfi_def_cfa_offset 8
 4252 007a BD46     		mov	sp, r7
 4253              	.LCFI95:
 4254              		.cfi_def_cfa_register 13
 4255              		@ sp needed
 4256 007c 80BD     		pop	{r7, pc}
 4257              		.cfi_endproc
 4258              	.LFE256:
 4260              		.section	.text.HAL_SPI_IRQHandler,"ax",%progbits
 4261              		.align	1
 4262              		.global	HAL_SPI_IRQHandler
 4263              		.syntax unified
 4264              		.thumb
 4265              		.thumb_func
 4267              	HAL_SPI_IRQHandler:
 4268              	.LFB257:
2379:Drivers/STM32F4xx_HAL_Driver/Src/stm32f4xx_hal_spi.c **** 
2380:Drivers/STM32F4xx_HAL_Driver/Src/stm32f4xx_hal_spi.c **** /**
2381:Drivers/STM32F4xx_HAL_Driver/Src/stm32f4xx_hal_spi.c ****   * @brief  Handle SPI interrupt request.
2382:Drivers/STM32F4xx_HAL_Driver/Src/stm32f4xx_hal_spi.c ****   * @param  hspi pointer to a SPI_HandleTypeDef structure that contains
2383:Drivers/STM32F4xx_HAL_Driver/Src/stm32f4xx_hal_spi.c ****   *               the configuration information for the specified SPI module.
2384:Drivers/STM32F4xx_HAL_Driver/Src/stm32f4xx_hal_spi.c ****   * @retval None
2385:Drivers/STM32F4xx_HAL_Driver/Src/stm32f4xx_hal_spi.c ****   */
2386:Drivers/STM32F4xx_HAL_Driver/Src/stm32f4xx_hal_spi.c **** void HAL_SPI_IRQHandler(SPI_HandleTypeDef *hspi)
2387:Drivers/STM32F4xx_HAL_Driver/Src/stm32f4xx_hal_spi.c **** {
 4269              		.loc 1 2387 1
 4270              		.cfi_startproc
 4271              		@ args = 0, pretend = 0, frame = 32
 4272              		@ frame_needed = 1, uses_anonymous_args = 0
 4273 0000 80B5     		push	{r7, lr}
 4274              	.LCFI96:
 4275              		.cfi_def_cfa_offset 8
 4276              		.cfi_offset 7, -8
 4277              		.cfi_offset 14, -4
 4278 0002 88B0     		sub	sp, sp, #32
 4279              	.LCFI97:
 4280              		.cfi_def_cfa_offset 40
 4281 0004 00AF     		add	r7, sp, #0
 4282              	.LCFI98:
 4283              		.cfi_def_cfa_register 7
 4284 0006 7860     		str	r0, [r7, #4]
2388:Drivers/STM32F4xx_HAL_Driver/Src/stm32f4xx_hal_spi.c ****   uint32_t itsource = hspi->Instance->CR2;
 4285              		.loc 1 2388 27
 4286 0008 7B68     		ldr	r3, [r7, #4]
 4287 000a 1B68     		ldr	r3, [r3]
 4288              		.loc 1 2388 12
 4289 000c 5B68     		ldr	r3, [r3, #4]
 4290 000e FB61     		str	r3, [r7, #28]
2389:Drivers/STM32F4xx_HAL_Driver/Src/stm32f4xx_hal_spi.c ****   uint32_t itflag   = hspi->Instance->SR;
 4291              		.loc 1 2389 27
 4292 0010 7B68     		ldr	r3, [r7, #4]
 4293 0012 1B68     		ldr	r3, [r3]
ARM GAS  C:\Users\16323\AppData\Local\Temp\ccbQ7VoP.s 			page 118


 4294              		.loc 1 2389 12
 4295 0014 9B68     		ldr	r3, [r3, #8]
 4296 0016 BB61     		str	r3, [r7, #24]
2390:Drivers/STM32F4xx_HAL_Driver/Src/stm32f4xx_hal_spi.c **** 
2391:Drivers/STM32F4xx_HAL_Driver/Src/stm32f4xx_hal_spi.c ****   /* SPI in mode Receiver ----------------------------------------------------*/
2392:Drivers/STM32F4xx_HAL_Driver/Src/stm32f4xx_hal_spi.c ****   if ((SPI_CHECK_FLAG(itflag, SPI_FLAG_OVR) == RESET) &&
 4297              		.loc 1 2392 8
 4298 0018 BB69     		ldr	r3, [r7, #24]
 4299 001a 9B09     		lsrs	r3, r3, #6
 4300 001c 03F00103 		and	r3, r3, #1
 4301              		.loc 1 2392 6
 4302 0020 002B     		cmp	r3, #0
 4303 0022 0FD1     		bne	.L220
2393:Drivers/STM32F4xx_HAL_Driver/Src/stm32f4xx_hal_spi.c ****       (SPI_CHECK_FLAG(itflag, SPI_FLAG_RXNE) != RESET) && (SPI_CHECK_IT_SOURCE(itsource, SPI_IT_RXN
 4304              		.loc 1 2393 8 discriminator 1
 4305 0024 BB69     		ldr	r3, [r7, #24]
 4306 0026 03F00103 		and	r3, r3, #1
2392:Drivers/STM32F4xx_HAL_Driver/Src/stm32f4xx_hal_spi.c ****       (SPI_CHECK_FLAG(itflag, SPI_FLAG_RXNE) != RESET) && (SPI_CHECK_IT_SOURCE(itsource, SPI_IT_RXN
 4307              		.loc 1 2392 55 discriminator 1
 4308 002a 002B     		cmp	r3, #0
 4309 002c 0AD0     		beq	.L220
 4310              		.loc 1 2393 60
 4311 002e FB69     		ldr	r3, [r7, #28]
 4312 0030 9B09     		lsrs	r3, r3, #6
 4313 0032 03F00103 		and	r3, r3, #1
 4314              		.loc 1 2393 56
 4315 0036 002B     		cmp	r3, #0
 4316 0038 04D0     		beq	.L220
2394:Drivers/STM32F4xx_HAL_Driver/Src/stm32f4xx_hal_spi.c ****   {
2395:Drivers/STM32F4xx_HAL_Driver/Src/stm32f4xx_hal_spi.c ****     hspi->RxISR(hspi);
 4317              		.loc 1 2395 9
 4318 003a 7B68     		ldr	r3, [r7, #4]
 4319 003c 1B6C     		ldr	r3, [r3, #64]
 4320              		.loc 1 2395 5
 4321 003e 7868     		ldr	r0, [r7, #4]
 4322 0040 9847     		blx	r3
 4323              	.LVL0:
2396:Drivers/STM32F4xx_HAL_Driver/Src/stm32f4xx_hal_spi.c ****     return;
 4324              		.loc 1 2396 5
 4325 0042 D7E0     		b	.L219
 4326              	.L220:
2397:Drivers/STM32F4xx_HAL_Driver/Src/stm32f4xx_hal_spi.c ****   }
2398:Drivers/STM32F4xx_HAL_Driver/Src/stm32f4xx_hal_spi.c **** 
2399:Drivers/STM32F4xx_HAL_Driver/Src/stm32f4xx_hal_spi.c ****   /* SPI in mode Transmitter -------------------------------------------------*/
2400:Drivers/STM32F4xx_HAL_Driver/Src/stm32f4xx_hal_spi.c ****   if ((SPI_CHECK_FLAG(itflag, SPI_FLAG_TXE) != RESET) && (SPI_CHECK_IT_SOURCE(itsource, SPI_IT_TXE)
 4327              		.loc 1 2400 8
 4328 0044 BB69     		ldr	r3, [r7, #24]
 4329 0046 5B08     		lsrs	r3, r3, #1
 4330 0048 03F00103 		and	r3, r3, #1
 4331              		.loc 1 2400 6
 4332 004c 002B     		cmp	r3, #0
 4333 004e 0AD0     		beq	.L222
 4334              		.loc 1 2400 59 discriminator 1
 4335 0050 FB69     		ldr	r3, [r7, #28]
 4336 0052 DB09     		lsrs	r3, r3, #7
 4337 0054 03F00103 		and	r3, r3, #1
 4338              		.loc 1 2400 55 discriminator 1
ARM GAS  C:\Users\16323\AppData\Local\Temp\ccbQ7VoP.s 			page 119


 4339 0058 002B     		cmp	r3, #0
 4340 005a 04D0     		beq	.L222
2401:Drivers/STM32F4xx_HAL_Driver/Src/stm32f4xx_hal_spi.c ****   {
2402:Drivers/STM32F4xx_HAL_Driver/Src/stm32f4xx_hal_spi.c ****     hspi->TxISR(hspi);
 4341              		.loc 1 2402 9
 4342 005c 7B68     		ldr	r3, [r7, #4]
 4343 005e 5B6C     		ldr	r3, [r3, #68]
 4344              		.loc 1 2402 5
 4345 0060 7868     		ldr	r0, [r7, #4]
 4346 0062 9847     		blx	r3
 4347              	.LVL1:
2403:Drivers/STM32F4xx_HAL_Driver/Src/stm32f4xx_hal_spi.c ****     return;
 4348              		.loc 1 2403 5
 4349 0064 C6E0     		b	.L219
 4350              	.L222:
2404:Drivers/STM32F4xx_HAL_Driver/Src/stm32f4xx_hal_spi.c ****   }
2405:Drivers/STM32F4xx_HAL_Driver/Src/stm32f4xx_hal_spi.c **** 
2406:Drivers/STM32F4xx_HAL_Driver/Src/stm32f4xx_hal_spi.c ****   /* SPI in Error Treatment --------------------------------------------------*/
2407:Drivers/STM32F4xx_HAL_Driver/Src/stm32f4xx_hal_spi.c ****   if (((SPI_CHECK_FLAG(itflag, SPI_FLAG_MODF) != RESET) || (SPI_CHECK_FLAG(itflag, SPI_FLAG_OVR) !=
 4351              		.loc 1 2407 9
 4352 0066 BB69     		ldr	r3, [r7, #24]
 4353 0068 5B09     		lsrs	r3, r3, #5
 4354 006a 03F00103 		and	r3, r3, #1
 4355              		.loc 1 2407 6
 4356 006e 002B     		cmp	r3, #0
 4357 0070 0CD1     		bne	.L223
 4358              		.loc 1 2407 61 discriminator 1
 4359 0072 BB69     		ldr	r3, [r7, #24]
 4360 0074 9B09     		lsrs	r3, r3, #6
 4361 0076 03F00103 		and	r3, r3, #1
 4362              		.loc 1 2407 57 discriminator 1
 4363 007a 002B     		cmp	r3, #0
 4364 007c 06D1     		bne	.L223
2408:Drivers/STM32F4xx_HAL_Driver/Src/stm32f4xx_hal_spi.c ****        || (SPI_CHECK_FLAG(itflag, SPI_FLAG_FRE) != RESET)) && (SPI_CHECK_IT_SOURCE(itsource, SPI_IT
 4365              		.loc 1 2408 12
 4366 007e BB69     		ldr	r3, [r7, #24]
 4367 0080 1B0A     		lsrs	r3, r3, #8
 4368 0082 03F00103 		and	r3, r3, #1
 4369              		.loc 1 2408 8
 4370 0086 002B     		cmp	r3, #0
 4371 0088 00F0B480 		beq	.L219
 4372              	.L223:
 4373              		.loc 1 2408 64 discriminator 1
 4374 008c FB69     		ldr	r3, [r7, #28]
 4375 008e 5B09     		lsrs	r3, r3, #5
 4376 0090 03F00103 		and	r3, r3, #1
 4377              		.loc 1 2408 60 discriminator 1
 4378 0094 002B     		cmp	r3, #0
 4379 0096 00F0AD80 		beq	.L219
2409:Drivers/STM32F4xx_HAL_Driver/Src/stm32f4xx_hal_spi.c ****   {
2410:Drivers/STM32F4xx_HAL_Driver/Src/stm32f4xx_hal_spi.c ****     /* SPI Overrun error interrupt occurred ----------------------------------*/
2411:Drivers/STM32F4xx_HAL_Driver/Src/stm32f4xx_hal_spi.c ****     if (SPI_CHECK_FLAG(itflag, SPI_FLAG_OVR) != RESET)
 4380              		.loc 1 2411 9
 4381 009a BB69     		ldr	r3, [r7, #24]
 4382 009c 9B09     		lsrs	r3, r3, #6
 4383 009e 03F00103 		and	r3, r3, #1
 4384              		.loc 1 2411 8
ARM GAS  C:\Users\16323\AppData\Local\Temp\ccbQ7VoP.s 			page 120


 4385 00a2 002B     		cmp	r3, #0
 4386 00a4 23D0     		beq	.L224
2412:Drivers/STM32F4xx_HAL_Driver/Src/stm32f4xx_hal_spi.c ****     {
2413:Drivers/STM32F4xx_HAL_Driver/Src/stm32f4xx_hal_spi.c ****       if (hspi->State != HAL_SPI_STATE_BUSY_TX)
 4387              		.loc 1 2413 15
 4388 00a6 7B68     		ldr	r3, [r7, #4]
 4389 00a8 93F85130 		ldrb	r3, [r3, #81]
 4390 00ac DBB2     		uxtb	r3, r3
 4391              		.loc 1 2413 10
 4392 00ae 032B     		cmp	r3, #3
 4393 00b0 11D0     		beq	.L225
2414:Drivers/STM32F4xx_HAL_Driver/Src/stm32f4xx_hal_spi.c ****       {
2415:Drivers/STM32F4xx_HAL_Driver/Src/stm32f4xx_hal_spi.c ****         SET_BIT(hspi->ErrorCode, HAL_SPI_ERROR_OVR);
 4394              		.loc 1 2415 9
 4395 00b2 7B68     		ldr	r3, [r7, #4]
 4396 00b4 5B6D     		ldr	r3, [r3, #84]
 4397 00b6 43F00402 		orr	r2, r3, #4
 4398 00ba 7B68     		ldr	r3, [r7, #4]
 4399 00bc 5A65     		str	r2, [r3, #84]
 4400              	.LBB8:
2416:Drivers/STM32F4xx_HAL_Driver/Src/stm32f4xx_hal_spi.c ****         __HAL_SPI_CLEAR_OVRFLAG(hspi);
 4401              		.loc 1 2416 9
 4402 00be 0023     		movs	r3, #0
 4403 00c0 7B61     		str	r3, [r7, #20]
 4404 00c2 7B68     		ldr	r3, [r7, #4]
 4405 00c4 1B68     		ldr	r3, [r3]
 4406 00c6 DB68     		ldr	r3, [r3, #12]
 4407 00c8 7B61     		str	r3, [r7, #20]
 4408 00ca 7B68     		ldr	r3, [r7, #4]
 4409 00cc 1B68     		ldr	r3, [r3]
 4410 00ce 9B68     		ldr	r3, [r3, #8]
 4411 00d0 7B61     		str	r3, [r7, #20]
 4412 00d2 7B69     		ldr	r3, [r7, #20]
 4413              	.LBE8:
 4414 00d4 0BE0     		b	.L224
 4415              	.L225:
 4416              	.LBB9:
2417:Drivers/STM32F4xx_HAL_Driver/Src/stm32f4xx_hal_spi.c ****       }
2418:Drivers/STM32F4xx_HAL_Driver/Src/stm32f4xx_hal_spi.c ****       else
2419:Drivers/STM32F4xx_HAL_Driver/Src/stm32f4xx_hal_spi.c ****       {
2420:Drivers/STM32F4xx_HAL_Driver/Src/stm32f4xx_hal_spi.c ****         __HAL_SPI_CLEAR_OVRFLAG(hspi);
 4417              		.loc 1 2420 9
 4418 00d6 0023     		movs	r3, #0
 4419 00d8 3B61     		str	r3, [r7, #16]
 4420 00da 7B68     		ldr	r3, [r7, #4]
 4421 00dc 1B68     		ldr	r3, [r3]
 4422 00de DB68     		ldr	r3, [r3, #12]
 4423 00e0 3B61     		str	r3, [r7, #16]
 4424 00e2 7B68     		ldr	r3, [r7, #4]
 4425 00e4 1B68     		ldr	r3, [r3]
 4426 00e6 9B68     		ldr	r3, [r3, #8]
 4427 00e8 3B61     		str	r3, [r7, #16]
 4428 00ea 3B69     		ldr	r3, [r7, #16]
 4429              	.LBE9:
2421:Drivers/STM32F4xx_HAL_Driver/Src/stm32f4xx_hal_spi.c ****         return;
 4430              		.loc 1 2421 9
 4431 00ec 82E0     		b	.L219
ARM GAS  C:\Users\16323\AppData\Local\Temp\ccbQ7VoP.s 			page 121


 4432              	.L224:
2422:Drivers/STM32F4xx_HAL_Driver/Src/stm32f4xx_hal_spi.c ****       }
2423:Drivers/STM32F4xx_HAL_Driver/Src/stm32f4xx_hal_spi.c ****     }
2424:Drivers/STM32F4xx_HAL_Driver/Src/stm32f4xx_hal_spi.c **** 
2425:Drivers/STM32F4xx_HAL_Driver/Src/stm32f4xx_hal_spi.c ****     /* SPI Mode Fault error interrupt occurred -------------------------------*/
2426:Drivers/STM32F4xx_HAL_Driver/Src/stm32f4xx_hal_spi.c ****     if (SPI_CHECK_FLAG(itflag, SPI_FLAG_MODF) != RESET)
 4433              		.loc 1 2426 9
 4434 00ee BB69     		ldr	r3, [r7, #24]
 4435 00f0 5B09     		lsrs	r3, r3, #5
 4436 00f2 03F00103 		and	r3, r3, #1
 4437              		.loc 1 2426 8
 4438 00f6 002B     		cmp	r3, #0
 4439 00f8 14D0     		beq	.L226
2427:Drivers/STM32F4xx_HAL_Driver/Src/stm32f4xx_hal_spi.c ****     {
2428:Drivers/STM32F4xx_HAL_Driver/Src/stm32f4xx_hal_spi.c ****       SET_BIT(hspi->ErrorCode, HAL_SPI_ERROR_MODF);
 4440              		.loc 1 2428 7
 4441 00fa 7B68     		ldr	r3, [r7, #4]
 4442 00fc 5B6D     		ldr	r3, [r3, #84]
 4443 00fe 43F00102 		orr	r2, r3, #1
 4444 0102 7B68     		ldr	r3, [r7, #4]
 4445 0104 5A65     		str	r2, [r3, #84]
 4446              	.LBB10:
2429:Drivers/STM32F4xx_HAL_Driver/Src/stm32f4xx_hal_spi.c ****       __HAL_SPI_CLEAR_MODFFLAG(hspi);
 4447              		.loc 1 2429 7
 4448 0106 0023     		movs	r3, #0
 4449 0108 FB60     		str	r3, [r7, #12]
 4450 010a 7B68     		ldr	r3, [r7, #4]
 4451 010c 1B68     		ldr	r3, [r3]
 4452 010e 9B68     		ldr	r3, [r3, #8]
 4453 0110 FB60     		str	r3, [r7, #12]
 4454 0112 7B68     		ldr	r3, [r7, #4]
 4455 0114 1B68     		ldr	r3, [r3]
 4456 0116 1A68     		ldr	r2, [r3]
 4457 0118 7B68     		ldr	r3, [r7, #4]
 4458 011a 1B68     		ldr	r3, [r3]
 4459 011c 22F04002 		bic	r2, r2, #64
 4460 0120 1A60     		str	r2, [r3]
 4461 0122 FB68     		ldr	r3, [r7, #12]
 4462              	.L226:
 4463              	.LBE10:
2430:Drivers/STM32F4xx_HAL_Driver/Src/stm32f4xx_hal_spi.c ****     }
2431:Drivers/STM32F4xx_HAL_Driver/Src/stm32f4xx_hal_spi.c **** 
2432:Drivers/STM32F4xx_HAL_Driver/Src/stm32f4xx_hal_spi.c ****     /* SPI Frame error interrupt occurred ------------------------------------*/
2433:Drivers/STM32F4xx_HAL_Driver/Src/stm32f4xx_hal_spi.c ****     if (SPI_CHECK_FLAG(itflag, SPI_FLAG_FRE) != RESET)
 4464              		.loc 1 2433 9
 4465 0124 BB69     		ldr	r3, [r7, #24]
 4466 0126 1B0A     		lsrs	r3, r3, #8
 4467 0128 03F00103 		and	r3, r3, #1
 4468              		.loc 1 2433 8
 4469 012c 002B     		cmp	r3, #0
 4470 012e 0CD0     		beq	.L227
2434:Drivers/STM32F4xx_HAL_Driver/Src/stm32f4xx_hal_spi.c ****     {
2435:Drivers/STM32F4xx_HAL_Driver/Src/stm32f4xx_hal_spi.c ****       SET_BIT(hspi->ErrorCode, HAL_SPI_ERROR_FRE);
 4471              		.loc 1 2435 7
 4472 0130 7B68     		ldr	r3, [r7, #4]
 4473 0132 5B6D     		ldr	r3, [r3, #84]
 4474 0134 43F00802 		orr	r2, r3, #8
ARM GAS  C:\Users\16323\AppData\Local\Temp\ccbQ7VoP.s 			page 122


 4475 0138 7B68     		ldr	r3, [r7, #4]
 4476 013a 5A65     		str	r2, [r3, #84]
 4477              	.LBB11:
2436:Drivers/STM32F4xx_HAL_Driver/Src/stm32f4xx_hal_spi.c ****       __HAL_SPI_CLEAR_FREFLAG(hspi);
 4478              		.loc 1 2436 7
 4479 013c 0023     		movs	r3, #0
 4480 013e BB60     		str	r3, [r7, #8]
 4481 0140 7B68     		ldr	r3, [r7, #4]
 4482 0142 1B68     		ldr	r3, [r3]
 4483 0144 9B68     		ldr	r3, [r3, #8]
 4484 0146 BB60     		str	r3, [r7, #8]
 4485 0148 BB68     		ldr	r3, [r7, #8]
 4486              	.L227:
 4487              	.LBE11:
2437:Drivers/STM32F4xx_HAL_Driver/Src/stm32f4xx_hal_spi.c ****     }
2438:Drivers/STM32F4xx_HAL_Driver/Src/stm32f4xx_hal_spi.c **** 
2439:Drivers/STM32F4xx_HAL_Driver/Src/stm32f4xx_hal_spi.c ****     if (hspi->ErrorCode != HAL_SPI_ERROR_NONE)
 4488              		.loc 1 2439 13
 4489 014a 7B68     		ldr	r3, [r7, #4]
 4490 014c 5B6D     		ldr	r3, [r3, #84]
 4491              		.loc 1 2439 8
 4492 014e 002B     		cmp	r3, #0
 4493 0150 4FD0     		beq	.L233
2440:Drivers/STM32F4xx_HAL_Driver/Src/stm32f4xx_hal_spi.c ****     {
2441:Drivers/STM32F4xx_HAL_Driver/Src/stm32f4xx_hal_spi.c ****       /* Disable all interrupts */
2442:Drivers/STM32F4xx_HAL_Driver/Src/stm32f4xx_hal_spi.c ****       __HAL_SPI_DISABLE_IT(hspi, SPI_IT_RXNE | SPI_IT_TXE | SPI_IT_ERR);
 4494              		.loc 1 2442 7
 4495 0152 7B68     		ldr	r3, [r7, #4]
 4496 0154 1B68     		ldr	r3, [r3]
 4497 0156 5A68     		ldr	r2, [r3, #4]
 4498 0158 7B68     		ldr	r3, [r7, #4]
 4499 015a 1B68     		ldr	r3, [r3]
 4500 015c 22F0E002 		bic	r2, r2, #224
 4501 0160 5A60     		str	r2, [r3, #4]
2443:Drivers/STM32F4xx_HAL_Driver/Src/stm32f4xx_hal_spi.c **** 
2444:Drivers/STM32F4xx_HAL_Driver/Src/stm32f4xx_hal_spi.c ****       hspi->State = HAL_SPI_STATE_READY;
 4502              		.loc 1 2444 19
 4503 0162 7B68     		ldr	r3, [r7, #4]
 4504 0164 0122     		movs	r2, #1
 4505 0166 83F85120 		strb	r2, [r3, #81]
2445:Drivers/STM32F4xx_HAL_Driver/Src/stm32f4xx_hal_spi.c ****       /* Disable the SPI DMA requests if enabled */
2446:Drivers/STM32F4xx_HAL_Driver/Src/stm32f4xx_hal_spi.c ****       if ((HAL_IS_BIT_SET(itsource, SPI_CR2_TXDMAEN)) || (HAL_IS_BIT_SET(itsource, SPI_CR2_RXDMAEN)
 4506              		.loc 1 2446 12
 4507 016a FB69     		ldr	r3, [r7, #28]
 4508 016c 03F00203 		and	r3, r3, #2
 4509              		.loc 1 2446 10
 4510 0170 002B     		cmp	r3, #0
 4511 0172 04D1     		bne	.L229
 4512              		.loc 1 2446 59 discriminator 1
 4513 0174 FB69     		ldr	r3, [r7, #28]
 4514 0176 03F00103 		and	r3, r3, #1
 4515              		.loc 1 2446 55 discriminator 1
 4516 017a 002B     		cmp	r3, #0
 4517 017c 34D0     		beq	.L230
 4518              	.L229:
2447:Drivers/STM32F4xx_HAL_Driver/Src/stm32f4xx_hal_spi.c ****       {
2448:Drivers/STM32F4xx_HAL_Driver/Src/stm32f4xx_hal_spi.c ****         CLEAR_BIT(hspi->Instance->CR2, (SPI_CR2_TXDMAEN | SPI_CR2_RXDMAEN));
ARM GAS  C:\Users\16323\AppData\Local\Temp\ccbQ7VoP.s 			page 123


 4519              		.loc 1 2448 9
 4520 017e 7B68     		ldr	r3, [r7, #4]
 4521 0180 1B68     		ldr	r3, [r3]
 4522 0182 5A68     		ldr	r2, [r3, #4]
 4523 0184 7B68     		ldr	r3, [r7, #4]
 4524 0186 1B68     		ldr	r3, [r3]
 4525 0188 22F00302 		bic	r2, r2, #3
 4526 018c 5A60     		str	r2, [r3, #4]
2449:Drivers/STM32F4xx_HAL_Driver/Src/stm32f4xx_hal_spi.c **** 
2450:Drivers/STM32F4xx_HAL_Driver/Src/stm32f4xx_hal_spi.c ****         /* Abort the SPI DMA Rx channel */
2451:Drivers/STM32F4xx_HAL_Driver/Src/stm32f4xx_hal_spi.c ****         if (hspi->hdmarx != NULL)
 4527              		.loc 1 2451 17
 4528 018e 7B68     		ldr	r3, [r7, #4]
 4529 0190 DB6C     		ldr	r3, [r3, #76]
 4530              		.loc 1 2451 12
 4531 0192 002B     		cmp	r3, #0
 4532 0194 11D0     		beq	.L231
2452:Drivers/STM32F4xx_HAL_Driver/Src/stm32f4xx_hal_spi.c ****         {
2453:Drivers/STM32F4xx_HAL_Driver/Src/stm32f4xx_hal_spi.c ****           /* Set the SPI DMA Abort callback :
2454:Drivers/STM32F4xx_HAL_Driver/Src/stm32f4xx_hal_spi.c ****           will lead to call HAL_SPI_ErrorCallback() at end of DMA abort procedure */
2455:Drivers/STM32F4xx_HAL_Driver/Src/stm32f4xx_hal_spi.c ****           hspi->hdmarx->XferAbortCallback = SPI_DMAAbortOnError;
 4533              		.loc 1 2455 15
 4534 0196 7B68     		ldr	r3, [r7, #4]
 4535 0198 DB6C     		ldr	r3, [r3, #76]
 4536              		.loc 1 2455 43
 4537 019a 184A     		ldr	r2, .L235
 4538 019c 1A65     		str	r2, [r3, #80]
2456:Drivers/STM32F4xx_HAL_Driver/Src/stm32f4xx_hal_spi.c ****           if (HAL_OK != HAL_DMA_Abort_IT(hspi->hdmarx))
 4539              		.loc 1 2456 25
 4540 019e 7B68     		ldr	r3, [r7, #4]
 4541 01a0 DB6C     		ldr	r3, [r3, #76]
 4542 01a2 1846     		mov	r0, r3
 4543 01a4 FFF7FEFF 		bl	HAL_DMA_Abort_IT
 4544 01a8 0346     		mov	r3, r0
 4545              		.loc 1 2456 14
 4546 01aa 002B     		cmp	r3, #0
 4547 01ac 05D0     		beq	.L231
2457:Drivers/STM32F4xx_HAL_Driver/Src/stm32f4xx_hal_spi.c ****           {
2458:Drivers/STM32F4xx_HAL_Driver/Src/stm32f4xx_hal_spi.c ****             SET_BIT(hspi->ErrorCode, HAL_SPI_ERROR_ABORT);
 4548              		.loc 1 2458 13
 4549 01ae 7B68     		ldr	r3, [r7, #4]
 4550 01b0 5B6D     		ldr	r3, [r3, #84]
 4551 01b2 43F04002 		orr	r2, r3, #64
 4552 01b6 7B68     		ldr	r3, [r7, #4]
 4553 01b8 5A65     		str	r2, [r3, #84]
 4554              	.L231:
2459:Drivers/STM32F4xx_HAL_Driver/Src/stm32f4xx_hal_spi.c ****           }
2460:Drivers/STM32F4xx_HAL_Driver/Src/stm32f4xx_hal_spi.c ****         }
2461:Drivers/STM32F4xx_HAL_Driver/Src/stm32f4xx_hal_spi.c ****         /* Abort the SPI DMA Tx channel */
2462:Drivers/STM32F4xx_HAL_Driver/Src/stm32f4xx_hal_spi.c ****         if (hspi->hdmatx != NULL)
 4555              		.loc 1 2462 17
 4556 01ba 7B68     		ldr	r3, [r7, #4]
 4557 01bc 9B6C     		ldr	r3, [r3, #72]
 4558              		.loc 1 2462 12
 4559 01be 002B     		cmp	r3, #0
 4560 01c0 16D0     		beq	.L234
2463:Drivers/STM32F4xx_HAL_Driver/Src/stm32f4xx_hal_spi.c ****         {
ARM GAS  C:\Users\16323\AppData\Local\Temp\ccbQ7VoP.s 			page 124


2464:Drivers/STM32F4xx_HAL_Driver/Src/stm32f4xx_hal_spi.c ****           /* Set the SPI DMA Abort callback :
2465:Drivers/STM32F4xx_HAL_Driver/Src/stm32f4xx_hal_spi.c ****           will lead to call HAL_SPI_ErrorCallback() at end of DMA abort procedure */
2466:Drivers/STM32F4xx_HAL_Driver/Src/stm32f4xx_hal_spi.c ****           hspi->hdmatx->XferAbortCallback = SPI_DMAAbortOnError;
 4561              		.loc 1 2466 15
 4562 01c2 7B68     		ldr	r3, [r7, #4]
 4563 01c4 9B6C     		ldr	r3, [r3, #72]
 4564              		.loc 1 2466 43
 4565 01c6 0D4A     		ldr	r2, .L235
 4566 01c8 1A65     		str	r2, [r3, #80]
2467:Drivers/STM32F4xx_HAL_Driver/Src/stm32f4xx_hal_spi.c ****           if (HAL_OK != HAL_DMA_Abort_IT(hspi->hdmatx))
 4567              		.loc 1 2467 25
 4568 01ca 7B68     		ldr	r3, [r7, #4]
 4569 01cc 9B6C     		ldr	r3, [r3, #72]
 4570 01ce 1846     		mov	r0, r3
 4571 01d0 FFF7FEFF 		bl	HAL_DMA_Abort_IT
 4572 01d4 0346     		mov	r3, r0
 4573              		.loc 1 2467 14
 4574 01d6 002B     		cmp	r3, #0
 4575 01d8 0AD0     		beq	.L234
2468:Drivers/STM32F4xx_HAL_Driver/Src/stm32f4xx_hal_spi.c ****           {
2469:Drivers/STM32F4xx_HAL_Driver/Src/stm32f4xx_hal_spi.c ****             SET_BIT(hspi->ErrorCode, HAL_SPI_ERROR_ABORT);
 4576              		.loc 1 2469 13
 4577 01da 7B68     		ldr	r3, [r7, #4]
 4578 01dc 5B6D     		ldr	r3, [r3, #84]
 4579 01de 43F04002 		orr	r2, r3, #64
 4580 01e2 7B68     		ldr	r3, [r7, #4]
 4581 01e4 5A65     		str	r2, [r3, #84]
2462:Drivers/STM32F4xx_HAL_Driver/Src/stm32f4xx_hal_spi.c ****         {
 4582              		.loc 1 2462 12
 4583 01e6 03E0     		b	.L234
 4584              	.L230:
2470:Drivers/STM32F4xx_HAL_Driver/Src/stm32f4xx_hal_spi.c ****           }
2471:Drivers/STM32F4xx_HAL_Driver/Src/stm32f4xx_hal_spi.c ****         }
2472:Drivers/STM32F4xx_HAL_Driver/Src/stm32f4xx_hal_spi.c ****       }
2473:Drivers/STM32F4xx_HAL_Driver/Src/stm32f4xx_hal_spi.c ****       else
2474:Drivers/STM32F4xx_HAL_Driver/Src/stm32f4xx_hal_spi.c ****       {
2475:Drivers/STM32F4xx_HAL_Driver/Src/stm32f4xx_hal_spi.c ****         /* Call user error callback */
2476:Drivers/STM32F4xx_HAL_Driver/Src/stm32f4xx_hal_spi.c **** #if (USE_HAL_SPI_REGISTER_CALLBACKS == 1U)
2477:Drivers/STM32F4xx_HAL_Driver/Src/stm32f4xx_hal_spi.c ****         hspi->ErrorCallback(hspi);
2478:Drivers/STM32F4xx_HAL_Driver/Src/stm32f4xx_hal_spi.c **** #else
2479:Drivers/STM32F4xx_HAL_Driver/Src/stm32f4xx_hal_spi.c ****         HAL_SPI_ErrorCallback(hspi);
 4585              		.loc 1 2479 9
 4586 01e8 7868     		ldr	r0, [r7, #4]
 4587 01ea FFF7FEFF 		bl	HAL_SPI_ErrorCallback
2480:Drivers/STM32F4xx_HAL_Driver/Src/stm32f4xx_hal_spi.c **** #endif /* USE_HAL_SPI_REGISTER_CALLBACKS */
2481:Drivers/STM32F4xx_HAL_Driver/Src/stm32f4xx_hal_spi.c ****       }
2482:Drivers/STM32F4xx_HAL_Driver/Src/stm32f4xx_hal_spi.c ****     }
2483:Drivers/STM32F4xx_HAL_Driver/Src/stm32f4xx_hal_spi.c ****     return;
 4588              		.loc 1 2483 5
 4589 01ee 00E0     		b	.L233
 4590              	.L234:
2462:Drivers/STM32F4xx_HAL_Driver/Src/stm32f4xx_hal_spi.c ****         {
 4591              		.loc 1 2462 12
 4592 01f0 00BF     		nop
 4593              	.L233:
 4594              		.loc 1 2483 5
 4595 01f2 00BF     		nop
ARM GAS  C:\Users\16323\AppData\Local\Temp\ccbQ7VoP.s 			page 125


 4596              	.L219:
2484:Drivers/STM32F4xx_HAL_Driver/Src/stm32f4xx_hal_spi.c ****   }
2485:Drivers/STM32F4xx_HAL_Driver/Src/stm32f4xx_hal_spi.c **** }
 4597              		.loc 1 2485 1
 4598 01f4 2037     		adds	r7, r7, #32
 4599              	.LCFI99:
 4600              		.cfi_def_cfa_offset 8
 4601 01f6 BD46     		mov	sp, r7
 4602              	.LCFI100:
 4603              		.cfi_def_cfa_register 13
 4604              		@ sp needed
 4605 01f8 80BD     		pop	{r7, pc}
 4606              	.L236:
 4607 01fa 00BF     		.align	2
 4608              	.L235:
 4609 01fc 00000000 		.word	SPI_DMAAbortOnError
 4610              		.cfi_endproc
 4611              	.LFE257:
 4613              		.section	.text.HAL_SPI_TxCpltCallback,"ax",%progbits
 4614              		.align	1
 4615              		.weak	HAL_SPI_TxCpltCallback
 4616              		.syntax unified
 4617              		.thumb
 4618              		.thumb_func
 4620              	HAL_SPI_TxCpltCallback:
 4621              	.LFB258:
2486:Drivers/STM32F4xx_HAL_Driver/Src/stm32f4xx_hal_spi.c **** 
2487:Drivers/STM32F4xx_HAL_Driver/Src/stm32f4xx_hal_spi.c **** /**
2488:Drivers/STM32F4xx_HAL_Driver/Src/stm32f4xx_hal_spi.c ****   * @brief  Tx Transfer completed callback.
2489:Drivers/STM32F4xx_HAL_Driver/Src/stm32f4xx_hal_spi.c ****   * @param  hspi pointer to a SPI_HandleTypeDef structure that contains
2490:Drivers/STM32F4xx_HAL_Driver/Src/stm32f4xx_hal_spi.c ****   *               the configuration information for SPI module.
2491:Drivers/STM32F4xx_HAL_Driver/Src/stm32f4xx_hal_spi.c ****   * @retval None
2492:Drivers/STM32F4xx_HAL_Driver/Src/stm32f4xx_hal_spi.c ****   */
2493:Drivers/STM32F4xx_HAL_Driver/Src/stm32f4xx_hal_spi.c **** __weak void HAL_SPI_TxCpltCallback(SPI_HandleTypeDef *hspi)
2494:Drivers/STM32F4xx_HAL_Driver/Src/stm32f4xx_hal_spi.c **** {
 4622              		.loc 1 2494 1
 4623              		.cfi_startproc
 4624              		@ args = 0, pretend = 0, frame = 8
 4625              		@ frame_needed = 1, uses_anonymous_args = 0
 4626              		@ link register save eliminated.
 4627 0000 80B4     		push	{r7}
 4628              	.LCFI101:
 4629              		.cfi_def_cfa_offset 4
 4630              		.cfi_offset 7, -4
 4631 0002 83B0     		sub	sp, sp, #12
 4632              	.LCFI102:
 4633              		.cfi_def_cfa_offset 16
 4634 0004 00AF     		add	r7, sp, #0
 4635              	.LCFI103:
 4636              		.cfi_def_cfa_register 7
 4637 0006 7860     		str	r0, [r7, #4]
2495:Drivers/STM32F4xx_HAL_Driver/Src/stm32f4xx_hal_spi.c ****   /* Prevent unused argument(s) compilation warning */
2496:Drivers/STM32F4xx_HAL_Driver/Src/stm32f4xx_hal_spi.c ****   UNUSED(hspi);
2497:Drivers/STM32F4xx_HAL_Driver/Src/stm32f4xx_hal_spi.c **** 
2498:Drivers/STM32F4xx_HAL_Driver/Src/stm32f4xx_hal_spi.c ****   /* NOTE : This function should not be modified, when the callback is needed,
2499:Drivers/STM32F4xx_HAL_Driver/Src/stm32f4xx_hal_spi.c ****             the HAL_SPI_TxCpltCallback should be implemented in the user file
2500:Drivers/STM32F4xx_HAL_Driver/Src/stm32f4xx_hal_spi.c ****    */
ARM GAS  C:\Users\16323\AppData\Local\Temp\ccbQ7VoP.s 			page 126


2501:Drivers/STM32F4xx_HAL_Driver/Src/stm32f4xx_hal_spi.c **** }
 4638              		.loc 1 2501 1
 4639 0008 00BF     		nop
 4640 000a 0C37     		adds	r7, r7, #12
 4641              	.LCFI104:
 4642              		.cfi_def_cfa_offset 4
 4643 000c BD46     		mov	sp, r7
 4644              	.LCFI105:
 4645              		.cfi_def_cfa_register 13
 4646              		@ sp needed
 4647 000e 5DF8047B 		ldr	r7, [sp], #4
 4648              	.LCFI106:
 4649              		.cfi_restore 7
 4650              		.cfi_def_cfa_offset 0
 4651 0012 7047     		bx	lr
 4652              		.cfi_endproc
 4653              	.LFE258:
 4655              		.section	.text.HAL_SPI_RxCpltCallback,"ax",%progbits
 4656              		.align	1
 4657              		.weak	HAL_SPI_RxCpltCallback
 4658              		.syntax unified
 4659              		.thumb
 4660              		.thumb_func
 4662              	HAL_SPI_RxCpltCallback:
 4663              	.LFB259:
2502:Drivers/STM32F4xx_HAL_Driver/Src/stm32f4xx_hal_spi.c **** 
2503:Drivers/STM32F4xx_HAL_Driver/Src/stm32f4xx_hal_spi.c **** /**
2504:Drivers/STM32F4xx_HAL_Driver/Src/stm32f4xx_hal_spi.c ****   * @brief  Rx Transfer completed callback.
2505:Drivers/STM32F4xx_HAL_Driver/Src/stm32f4xx_hal_spi.c ****   * @param  hspi pointer to a SPI_HandleTypeDef structure that contains
2506:Drivers/STM32F4xx_HAL_Driver/Src/stm32f4xx_hal_spi.c ****   *               the configuration information for SPI module.
2507:Drivers/STM32F4xx_HAL_Driver/Src/stm32f4xx_hal_spi.c ****   * @retval None
2508:Drivers/STM32F4xx_HAL_Driver/Src/stm32f4xx_hal_spi.c ****   */
2509:Drivers/STM32F4xx_HAL_Driver/Src/stm32f4xx_hal_spi.c **** __weak void HAL_SPI_RxCpltCallback(SPI_HandleTypeDef *hspi)
2510:Drivers/STM32F4xx_HAL_Driver/Src/stm32f4xx_hal_spi.c **** {
 4664              		.loc 1 2510 1
 4665              		.cfi_startproc
 4666              		@ args = 0, pretend = 0, frame = 8
 4667              		@ frame_needed = 1, uses_anonymous_args = 0
 4668              		@ link register save eliminated.
 4669 0000 80B4     		push	{r7}
 4670              	.LCFI107:
 4671              		.cfi_def_cfa_offset 4
 4672              		.cfi_offset 7, -4
 4673 0002 83B0     		sub	sp, sp, #12
 4674              	.LCFI108:
 4675              		.cfi_def_cfa_offset 16
 4676 0004 00AF     		add	r7, sp, #0
 4677              	.LCFI109:
 4678              		.cfi_def_cfa_register 7
 4679 0006 7860     		str	r0, [r7, #4]
2511:Drivers/STM32F4xx_HAL_Driver/Src/stm32f4xx_hal_spi.c ****   /* Prevent unused argument(s) compilation warning */
2512:Drivers/STM32F4xx_HAL_Driver/Src/stm32f4xx_hal_spi.c ****   UNUSED(hspi);
2513:Drivers/STM32F4xx_HAL_Driver/Src/stm32f4xx_hal_spi.c **** 
2514:Drivers/STM32F4xx_HAL_Driver/Src/stm32f4xx_hal_spi.c ****   /* NOTE : This function should not be modified, when the callback is needed,
2515:Drivers/STM32F4xx_HAL_Driver/Src/stm32f4xx_hal_spi.c ****             the HAL_SPI_RxCpltCallback should be implemented in the user file
2516:Drivers/STM32F4xx_HAL_Driver/Src/stm32f4xx_hal_spi.c ****    */
2517:Drivers/STM32F4xx_HAL_Driver/Src/stm32f4xx_hal_spi.c **** }
ARM GAS  C:\Users\16323\AppData\Local\Temp\ccbQ7VoP.s 			page 127


 4680              		.loc 1 2517 1
 4681 0008 00BF     		nop
 4682 000a 0C37     		adds	r7, r7, #12
 4683              	.LCFI110:
 4684              		.cfi_def_cfa_offset 4
 4685 000c BD46     		mov	sp, r7
 4686              	.LCFI111:
 4687              		.cfi_def_cfa_register 13
 4688              		@ sp needed
 4689 000e 5DF8047B 		ldr	r7, [sp], #4
 4690              	.LCFI112:
 4691              		.cfi_restore 7
 4692              		.cfi_def_cfa_offset 0
 4693 0012 7047     		bx	lr
 4694              		.cfi_endproc
 4695              	.LFE259:
 4697              		.section	.text.HAL_SPI_TxRxCpltCallback,"ax",%progbits
 4698              		.align	1
 4699              		.weak	HAL_SPI_TxRxCpltCallback
 4700              		.syntax unified
 4701              		.thumb
 4702              		.thumb_func
 4704              	HAL_SPI_TxRxCpltCallback:
 4705              	.LFB260:
2518:Drivers/STM32F4xx_HAL_Driver/Src/stm32f4xx_hal_spi.c **** 
2519:Drivers/STM32F4xx_HAL_Driver/Src/stm32f4xx_hal_spi.c **** /**
2520:Drivers/STM32F4xx_HAL_Driver/Src/stm32f4xx_hal_spi.c ****   * @brief  Tx and Rx Transfer completed callback.
2521:Drivers/STM32F4xx_HAL_Driver/Src/stm32f4xx_hal_spi.c ****   * @param  hspi pointer to a SPI_HandleTypeDef structure that contains
2522:Drivers/STM32F4xx_HAL_Driver/Src/stm32f4xx_hal_spi.c ****   *               the configuration information for SPI module.
2523:Drivers/STM32F4xx_HAL_Driver/Src/stm32f4xx_hal_spi.c ****   * @retval None
2524:Drivers/STM32F4xx_HAL_Driver/Src/stm32f4xx_hal_spi.c ****   */
2525:Drivers/STM32F4xx_HAL_Driver/Src/stm32f4xx_hal_spi.c **** __weak void HAL_SPI_TxRxCpltCallback(SPI_HandleTypeDef *hspi)
2526:Drivers/STM32F4xx_HAL_Driver/Src/stm32f4xx_hal_spi.c **** {
 4706              		.loc 1 2526 1
 4707              		.cfi_startproc
 4708              		@ args = 0, pretend = 0, frame = 8
 4709              		@ frame_needed = 1, uses_anonymous_args = 0
 4710              		@ link register save eliminated.
 4711 0000 80B4     		push	{r7}
 4712              	.LCFI113:
 4713              		.cfi_def_cfa_offset 4
 4714              		.cfi_offset 7, -4
 4715 0002 83B0     		sub	sp, sp, #12
 4716              	.LCFI114:
 4717              		.cfi_def_cfa_offset 16
 4718 0004 00AF     		add	r7, sp, #0
 4719              	.LCFI115:
 4720              		.cfi_def_cfa_register 7
 4721 0006 7860     		str	r0, [r7, #4]
2527:Drivers/STM32F4xx_HAL_Driver/Src/stm32f4xx_hal_spi.c ****   /* Prevent unused argument(s) compilation warning */
2528:Drivers/STM32F4xx_HAL_Driver/Src/stm32f4xx_hal_spi.c ****   UNUSED(hspi);
2529:Drivers/STM32F4xx_HAL_Driver/Src/stm32f4xx_hal_spi.c **** 
2530:Drivers/STM32F4xx_HAL_Driver/Src/stm32f4xx_hal_spi.c ****   /* NOTE : This function should not be modified, when the callback is needed,
2531:Drivers/STM32F4xx_HAL_Driver/Src/stm32f4xx_hal_spi.c ****             the HAL_SPI_TxRxCpltCallback should be implemented in the user file
2532:Drivers/STM32F4xx_HAL_Driver/Src/stm32f4xx_hal_spi.c ****    */
2533:Drivers/STM32F4xx_HAL_Driver/Src/stm32f4xx_hal_spi.c **** }
 4722              		.loc 1 2533 1
ARM GAS  C:\Users\16323\AppData\Local\Temp\ccbQ7VoP.s 			page 128


 4723 0008 00BF     		nop
 4724 000a 0C37     		adds	r7, r7, #12
 4725              	.LCFI116:
 4726              		.cfi_def_cfa_offset 4
 4727 000c BD46     		mov	sp, r7
 4728              	.LCFI117:
 4729              		.cfi_def_cfa_register 13
 4730              		@ sp needed
 4731 000e 5DF8047B 		ldr	r7, [sp], #4
 4732              	.LCFI118:
 4733              		.cfi_restore 7
 4734              		.cfi_def_cfa_offset 0
 4735 0012 7047     		bx	lr
 4736              		.cfi_endproc
 4737              	.LFE260:
 4739              		.section	.text.HAL_SPI_TxHalfCpltCallback,"ax",%progbits
 4740              		.align	1
 4741              		.weak	HAL_SPI_TxHalfCpltCallback
 4742              		.syntax unified
 4743              		.thumb
 4744              		.thumb_func
 4746              	HAL_SPI_TxHalfCpltCallback:
 4747              	.LFB261:
2534:Drivers/STM32F4xx_HAL_Driver/Src/stm32f4xx_hal_spi.c **** 
2535:Drivers/STM32F4xx_HAL_Driver/Src/stm32f4xx_hal_spi.c **** /**
2536:Drivers/STM32F4xx_HAL_Driver/Src/stm32f4xx_hal_spi.c ****   * @brief  Tx Half Transfer completed callback.
2537:Drivers/STM32F4xx_HAL_Driver/Src/stm32f4xx_hal_spi.c ****   * @param  hspi pointer to a SPI_HandleTypeDef structure that contains
2538:Drivers/STM32F4xx_HAL_Driver/Src/stm32f4xx_hal_spi.c ****   *               the configuration information for SPI module.
2539:Drivers/STM32F4xx_HAL_Driver/Src/stm32f4xx_hal_spi.c ****   * @retval None
2540:Drivers/STM32F4xx_HAL_Driver/Src/stm32f4xx_hal_spi.c ****   */
2541:Drivers/STM32F4xx_HAL_Driver/Src/stm32f4xx_hal_spi.c **** __weak void HAL_SPI_TxHalfCpltCallback(SPI_HandleTypeDef *hspi)
2542:Drivers/STM32F4xx_HAL_Driver/Src/stm32f4xx_hal_spi.c **** {
 4748              		.loc 1 2542 1
 4749              		.cfi_startproc
 4750              		@ args = 0, pretend = 0, frame = 8
 4751              		@ frame_needed = 1, uses_anonymous_args = 0
 4752              		@ link register save eliminated.
 4753 0000 80B4     		push	{r7}
 4754              	.LCFI119:
 4755              		.cfi_def_cfa_offset 4
 4756              		.cfi_offset 7, -4
 4757 0002 83B0     		sub	sp, sp, #12
 4758              	.LCFI120:
 4759              		.cfi_def_cfa_offset 16
 4760 0004 00AF     		add	r7, sp, #0
 4761              	.LCFI121:
 4762              		.cfi_def_cfa_register 7
 4763 0006 7860     		str	r0, [r7, #4]
2543:Drivers/STM32F4xx_HAL_Driver/Src/stm32f4xx_hal_spi.c ****   /* Prevent unused argument(s) compilation warning */
2544:Drivers/STM32F4xx_HAL_Driver/Src/stm32f4xx_hal_spi.c ****   UNUSED(hspi);
2545:Drivers/STM32F4xx_HAL_Driver/Src/stm32f4xx_hal_spi.c **** 
2546:Drivers/STM32F4xx_HAL_Driver/Src/stm32f4xx_hal_spi.c ****   /* NOTE : This function should not be modified, when the callback is needed,
2547:Drivers/STM32F4xx_HAL_Driver/Src/stm32f4xx_hal_spi.c ****             the HAL_SPI_TxHalfCpltCallback should be implemented in the user file
2548:Drivers/STM32F4xx_HAL_Driver/Src/stm32f4xx_hal_spi.c ****    */
2549:Drivers/STM32F4xx_HAL_Driver/Src/stm32f4xx_hal_spi.c **** }
 4764              		.loc 1 2549 1
 4765 0008 00BF     		nop
ARM GAS  C:\Users\16323\AppData\Local\Temp\ccbQ7VoP.s 			page 129


 4766 000a 0C37     		adds	r7, r7, #12
 4767              	.LCFI122:
 4768              		.cfi_def_cfa_offset 4
 4769 000c BD46     		mov	sp, r7
 4770              	.LCFI123:
 4771              		.cfi_def_cfa_register 13
 4772              		@ sp needed
 4773 000e 5DF8047B 		ldr	r7, [sp], #4
 4774              	.LCFI124:
 4775              		.cfi_restore 7
 4776              		.cfi_def_cfa_offset 0
 4777 0012 7047     		bx	lr
 4778              		.cfi_endproc
 4779              	.LFE261:
 4781              		.section	.text.HAL_SPI_RxHalfCpltCallback,"ax",%progbits
 4782              		.align	1
 4783              		.weak	HAL_SPI_RxHalfCpltCallback
 4784              		.syntax unified
 4785              		.thumb
 4786              		.thumb_func
 4788              	HAL_SPI_RxHalfCpltCallback:
 4789              	.LFB262:
2550:Drivers/STM32F4xx_HAL_Driver/Src/stm32f4xx_hal_spi.c **** 
2551:Drivers/STM32F4xx_HAL_Driver/Src/stm32f4xx_hal_spi.c **** /**
2552:Drivers/STM32F4xx_HAL_Driver/Src/stm32f4xx_hal_spi.c ****   * @brief  Rx Half Transfer completed callback.
2553:Drivers/STM32F4xx_HAL_Driver/Src/stm32f4xx_hal_spi.c ****   * @param  hspi pointer to a SPI_HandleTypeDef structure that contains
2554:Drivers/STM32F4xx_HAL_Driver/Src/stm32f4xx_hal_spi.c ****   *               the configuration information for SPI module.
2555:Drivers/STM32F4xx_HAL_Driver/Src/stm32f4xx_hal_spi.c ****   * @retval None
2556:Drivers/STM32F4xx_HAL_Driver/Src/stm32f4xx_hal_spi.c ****   */
2557:Drivers/STM32F4xx_HAL_Driver/Src/stm32f4xx_hal_spi.c **** __weak void HAL_SPI_RxHalfCpltCallback(SPI_HandleTypeDef *hspi)
2558:Drivers/STM32F4xx_HAL_Driver/Src/stm32f4xx_hal_spi.c **** {
 4790              		.loc 1 2558 1
 4791              		.cfi_startproc
 4792              		@ args = 0, pretend = 0, frame = 8
 4793              		@ frame_needed = 1, uses_anonymous_args = 0
 4794              		@ link register save eliminated.
 4795 0000 80B4     		push	{r7}
 4796              	.LCFI125:
 4797              		.cfi_def_cfa_offset 4
 4798              		.cfi_offset 7, -4
 4799 0002 83B0     		sub	sp, sp, #12
 4800              	.LCFI126:
 4801              		.cfi_def_cfa_offset 16
 4802 0004 00AF     		add	r7, sp, #0
 4803              	.LCFI127:
 4804              		.cfi_def_cfa_register 7
 4805 0006 7860     		str	r0, [r7, #4]
2559:Drivers/STM32F4xx_HAL_Driver/Src/stm32f4xx_hal_spi.c ****   /* Prevent unused argument(s) compilation warning */
2560:Drivers/STM32F4xx_HAL_Driver/Src/stm32f4xx_hal_spi.c ****   UNUSED(hspi);
2561:Drivers/STM32F4xx_HAL_Driver/Src/stm32f4xx_hal_spi.c **** 
2562:Drivers/STM32F4xx_HAL_Driver/Src/stm32f4xx_hal_spi.c ****   /* NOTE : This function should not be modified, when the callback is needed,
2563:Drivers/STM32F4xx_HAL_Driver/Src/stm32f4xx_hal_spi.c ****             the HAL_SPI_RxHalfCpltCallback() should be implemented in the user file
2564:Drivers/STM32F4xx_HAL_Driver/Src/stm32f4xx_hal_spi.c ****    */
2565:Drivers/STM32F4xx_HAL_Driver/Src/stm32f4xx_hal_spi.c **** }
 4806              		.loc 1 2565 1
 4807 0008 00BF     		nop
 4808 000a 0C37     		adds	r7, r7, #12
ARM GAS  C:\Users\16323\AppData\Local\Temp\ccbQ7VoP.s 			page 130


 4809              	.LCFI128:
 4810              		.cfi_def_cfa_offset 4
 4811 000c BD46     		mov	sp, r7
 4812              	.LCFI129:
 4813              		.cfi_def_cfa_register 13
 4814              		@ sp needed
 4815 000e 5DF8047B 		ldr	r7, [sp], #4
 4816              	.LCFI130:
 4817              		.cfi_restore 7
 4818              		.cfi_def_cfa_offset 0
 4819 0012 7047     		bx	lr
 4820              		.cfi_endproc
 4821              	.LFE262:
 4823              		.section	.text.HAL_SPI_TxRxHalfCpltCallback,"ax",%progbits
 4824              		.align	1
 4825              		.weak	HAL_SPI_TxRxHalfCpltCallback
 4826              		.syntax unified
 4827              		.thumb
 4828              		.thumb_func
 4830              	HAL_SPI_TxRxHalfCpltCallback:
 4831              	.LFB263:
2566:Drivers/STM32F4xx_HAL_Driver/Src/stm32f4xx_hal_spi.c **** 
2567:Drivers/STM32F4xx_HAL_Driver/Src/stm32f4xx_hal_spi.c **** /**
2568:Drivers/STM32F4xx_HAL_Driver/Src/stm32f4xx_hal_spi.c ****   * @brief  Tx and Rx Half Transfer callback.
2569:Drivers/STM32F4xx_HAL_Driver/Src/stm32f4xx_hal_spi.c ****   * @param  hspi pointer to a SPI_HandleTypeDef structure that contains
2570:Drivers/STM32F4xx_HAL_Driver/Src/stm32f4xx_hal_spi.c ****   *               the configuration information for SPI module.
2571:Drivers/STM32F4xx_HAL_Driver/Src/stm32f4xx_hal_spi.c ****   * @retval None
2572:Drivers/STM32F4xx_HAL_Driver/Src/stm32f4xx_hal_spi.c ****   */
2573:Drivers/STM32F4xx_HAL_Driver/Src/stm32f4xx_hal_spi.c **** __weak void HAL_SPI_TxRxHalfCpltCallback(SPI_HandleTypeDef *hspi)
2574:Drivers/STM32F4xx_HAL_Driver/Src/stm32f4xx_hal_spi.c **** {
 4832              		.loc 1 2574 1
 4833              		.cfi_startproc
 4834              		@ args = 0, pretend = 0, frame = 8
 4835              		@ frame_needed = 1, uses_anonymous_args = 0
 4836              		@ link register save eliminated.
 4837 0000 80B4     		push	{r7}
 4838              	.LCFI131:
 4839              		.cfi_def_cfa_offset 4
 4840              		.cfi_offset 7, -4
 4841 0002 83B0     		sub	sp, sp, #12
 4842              	.LCFI132:
 4843              		.cfi_def_cfa_offset 16
 4844 0004 00AF     		add	r7, sp, #0
 4845              	.LCFI133:
 4846              		.cfi_def_cfa_register 7
 4847 0006 7860     		str	r0, [r7, #4]
2575:Drivers/STM32F4xx_HAL_Driver/Src/stm32f4xx_hal_spi.c ****   /* Prevent unused argument(s) compilation warning */
2576:Drivers/STM32F4xx_HAL_Driver/Src/stm32f4xx_hal_spi.c ****   UNUSED(hspi);
2577:Drivers/STM32F4xx_HAL_Driver/Src/stm32f4xx_hal_spi.c **** 
2578:Drivers/STM32F4xx_HAL_Driver/Src/stm32f4xx_hal_spi.c ****   /* NOTE : This function should not be modified, when the callback is needed,
2579:Drivers/STM32F4xx_HAL_Driver/Src/stm32f4xx_hal_spi.c ****             the HAL_SPI_TxRxHalfCpltCallback() should be implemented in the user file
2580:Drivers/STM32F4xx_HAL_Driver/Src/stm32f4xx_hal_spi.c ****    */
2581:Drivers/STM32F4xx_HAL_Driver/Src/stm32f4xx_hal_spi.c **** }
 4848              		.loc 1 2581 1
 4849 0008 00BF     		nop
 4850 000a 0C37     		adds	r7, r7, #12
 4851              	.LCFI134:
ARM GAS  C:\Users\16323\AppData\Local\Temp\ccbQ7VoP.s 			page 131


 4852              		.cfi_def_cfa_offset 4
 4853 000c BD46     		mov	sp, r7
 4854              	.LCFI135:
 4855              		.cfi_def_cfa_register 13
 4856              		@ sp needed
 4857 000e 5DF8047B 		ldr	r7, [sp], #4
 4858              	.LCFI136:
 4859              		.cfi_restore 7
 4860              		.cfi_def_cfa_offset 0
 4861 0012 7047     		bx	lr
 4862              		.cfi_endproc
 4863              	.LFE263:
 4865              		.section	.text.HAL_SPI_ErrorCallback,"ax",%progbits
 4866              		.align	1
 4867              		.weak	HAL_SPI_ErrorCallback
 4868              		.syntax unified
 4869              		.thumb
 4870              		.thumb_func
 4872              	HAL_SPI_ErrorCallback:
 4873              	.LFB264:
2582:Drivers/STM32F4xx_HAL_Driver/Src/stm32f4xx_hal_spi.c **** 
2583:Drivers/STM32F4xx_HAL_Driver/Src/stm32f4xx_hal_spi.c **** /**
2584:Drivers/STM32F4xx_HAL_Driver/Src/stm32f4xx_hal_spi.c ****   * @brief  SPI error callback.
2585:Drivers/STM32F4xx_HAL_Driver/Src/stm32f4xx_hal_spi.c ****   * @param  hspi pointer to a SPI_HandleTypeDef structure that contains
2586:Drivers/STM32F4xx_HAL_Driver/Src/stm32f4xx_hal_spi.c ****   *               the configuration information for SPI module.
2587:Drivers/STM32F4xx_HAL_Driver/Src/stm32f4xx_hal_spi.c ****   * @retval None
2588:Drivers/STM32F4xx_HAL_Driver/Src/stm32f4xx_hal_spi.c ****   */
2589:Drivers/STM32F4xx_HAL_Driver/Src/stm32f4xx_hal_spi.c **** __weak void HAL_SPI_ErrorCallback(SPI_HandleTypeDef *hspi)
2590:Drivers/STM32F4xx_HAL_Driver/Src/stm32f4xx_hal_spi.c **** {
 4874              		.loc 1 2590 1
 4875              		.cfi_startproc
 4876              		@ args = 0, pretend = 0, frame = 8
 4877              		@ frame_needed = 1, uses_anonymous_args = 0
 4878              		@ link register save eliminated.
 4879 0000 80B4     		push	{r7}
 4880              	.LCFI137:
 4881              		.cfi_def_cfa_offset 4
 4882              		.cfi_offset 7, -4
 4883 0002 83B0     		sub	sp, sp, #12
 4884              	.LCFI138:
 4885              		.cfi_def_cfa_offset 16
 4886 0004 00AF     		add	r7, sp, #0
 4887              	.LCFI139:
 4888              		.cfi_def_cfa_register 7
 4889 0006 7860     		str	r0, [r7, #4]
2591:Drivers/STM32F4xx_HAL_Driver/Src/stm32f4xx_hal_spi.c ****   /* Prevent unused argument(s) compilation warning */
2592:Drivers/STM32F4xx_HAL_Driver/Src/stm32f4xx_hal_spi.c ****   UNUSED(hspi);
2593:Drivers/STM32F4xx_HAL_Driver/Src/stm32f4xx_hal_spi.c **** 
2594:Drivers/STM32F4xx_HAL_Driver/Src/stm32f4xx_hal_spi.c ****   /* NOTE : This function should not be modified, when the callback is needed,
2595:Drivers/STM32F4xx_HAL_Driver/Src/stm32f4xx_hal_spi.c ****             the HAL_SPI_ErrorCallback should be implemented in the user file
2596:Drivers/STM32F4xx_HAL_Driver/Src/stm32f4xx_hal_spi.c ****    */
2597:Drivers/STM32F4xx_HAL_Driver/Src/stm32f4xx_hal_spi.c ****   /* NOTE : The ErrorCode parameter in the hspi handle is updated by the SPI processes
2598:Drivers/STM32F4xx_HAL_Driver/Src/stm32f4xx_hal_spi.c ****             and user can use HAL_SPI_GetError() API to check the latest error occurred
2599:Drivers/STM32F4xx_HAL_Driver/Src/stm32f4xx_hal_spi.c ****    */
2600:Drivers/STM32F4xx_HAL_Driver/Src/stm32f4xx_hal_spi.c **** }
 4890              		.loc 1 2600 1
 4891 0008 00BF     		nop
ARM GAS  C:\Users\16323\AppData\Local\Temp\ccbQ7VoP.s 			page 132


 4892 000a 0C37     		adds	r7, r7, #12
 4893              	.LCFI140:
 4894              		.cfi_def_cfa_offset 4
 4895 000c BD46     		mov	sp, r7
 4896              	.LCFI141:
 4897              		.cfi_def_cfa_register 13
 4898              		@ sp needed
 4899 000e 5DF8047B 		ldr	r7, [sp], #4
 4900              	.LCFI142:
 4901              		.cfi_restore 7
 4902              		.cfi_def_cfa_offset 0
 4903 0012 7047     		bx	lr
 4904              		.cfi_endproc
 4905              	.LFE264:
 4907              		.section	.text.HAL_SPI_AbortCpltCallback,"ax",%progbits
 4908              		.align	1
 4909              		.weak	HAL_SPI_AbortCpltCallback
 4910              		.syntax unified
 4911              		.thumb
 4912              		.thumb_func
 4914              	HAL_SPI_AbortCpltCallback:
 4915              	.LFB265:
2601:Drivers/STM32F4xx_HAL_Driver/Src/stm32f4xx_hal_spi.c **** 
2602:Drivers/STM32F4xx_HAL_Driver/Src/stm32f4xx_hal_spi.c **** /**
2603:Drivers/STM32F4xx_HAL_Driver/Src/stm32f4xx_hal_spi.c ****   * @brief  SPI Abort Complete callback.
2604:Drivers/STM32F4xx_HAL_Driver/Src/stm32f4xx_hal_spi.c ****   * @param  hspi SPI handle.
2605:Drivers/STM32F4xx_HAL_Driver/Src/stm32f4xx_hal_spi.c ****   * @retval None
2606:Drivers/STM32F4xx_HAL_Driver/Src/stm32f4xx_hal_spi.c ****   */
2607:Drivers/STM32F4xx_HAL_Driver/Src/stm32f4xx_hal_spi.c **** __weak void HAL_SPI_AbortCpltCallback(SPI_HandleTypeDef *hspi)
2608:Drivers/STM32F4xx_HAL_Driver/Src/stm32f4xx_hal_spi.c **** {
 4916              		.loc 1 2608 1
 4917              		.cfi_startproc
 4918              		@ args = 0, pretend = 0, frame = 8
 4919              		@ frame_needed = 1, uses_anonymous_args = 0
 4920              		@ link register save eliminated.
 4921 0000 80B4     		push	{r7}
 4922              	.LCFI143:
 4923              		.cfi_def_cfa_offset 4
 4924              		.cfi_offset 7, -4
 4925 0002 83B0     		sub	sp, sp, #12
 4926              	.LCFI144:
 4927              		.cfi_def_cfa_offset 16
 4928 0004 00AF     		add	r7, sp, #0
 4929              	.LCFI145:
 4930              		.cfi_def_cfa_register 7
 4931 0006 7860     		str	r0, [r7, #4]
2609:Drivers/STM32F4xx_HAL_Driver/Src/stm32f4xx_hal_spi.c ****   /* Prevent unused argument(s) compilation warning */
2610:Drivers/STM32F4xx_HAL_Driver/Src/stm32f4xx_hal_spi.c ****   UNUSED(hspi);
2611:Drivers/STM32F4xx_HAL_Driver/Src/stm32f4xx_hal_spi.c **** 
2612:Drivers/STM32F4xx_HAL_Driver/Src/stm32f4xx_hal_spi.c ****   /* NOTE : This function should not be modified, when the callback is needed,
2613:Drivers/STM32F4xx_HAL_Driver/Src/stm32f4xx_hal_spi.c ****             the HAL_SPI_AbortCpltCallback can be implemented in the user file.
2614:Drivers/STM32F4xx_HAL_Driver/Src/stm32f4xx_hal_spi.c ****    */
2615:Drivers/STM32F4xx_HAL_Driver/Src/stm32f4xx_hal_spi.c **** }
 4932              		.loc 1 2615 1
 4933 0008 00BF     		nop
 4934 000a 0C37     		adds	r7, r7, #12
 4935              	.LCFI146:
ARM GAS  C:\Users\16323\AppData\Local\Temp\ccbQ7VoP.s 			page 133


 4936              		.cfi_def_cfa_offset 4
 4937 000c BD46     		mov	sp, r7
 4938              	.LCFI147:
 4939              		.cfi_def_cfa_register 13
 4940              		@ sp needed
 4941 000e 5DF8047B 		ldr	r7, [sp], #4
 4942              	.LCFI148:
 4943              		.cfi_restore 7
 4944              		.cfi_def_cfa_offset 0
 4945 0012 7047     		bx	lr
 4946              		.cfi_endproc
 4947              	.LFE265:
 4949              		.section	.text.HAL_SPI_GetState,"ax",%progbits
 4950              		.align	1
 4951              		.global	HAL_SPI_GetState
 4952              		.syntax unified
 4953              		.thumb
 4954              		.thumb_func
 4956              	HAL_SPI_GetState:
 4957              	.LFB266:
2616:Drivers/STM32F4xx_HAL_Driver/Src/stm32f4xx_hal_spi.c **** 
2617:Drivers/STM32F4xx_HAL_Driver/Src/stm32f4xx_hal_spi.c **** /**
2618:Drivers/STM32F4xx_HAL_Driver/Src/stm32f4xx_hal_spi.c ****   * @}
2619:Drivers/STM32F4xx_HAL_Driver/Src/stm32f4xx_hal_spi.c ****   */
2620:Drivers/STM32F4xx_HAL_Driver/Src/stm32f4xx_hal_spi.c **** 
2621:Drivers/STM32F4xx_HAL_Driver/Src/stm32f4xx_hal_spi.c **** /** @defgroup SPI_Exported_Functions_Group3 Peripheral State and Errors functions
2622:Drivers/STM32F4xx_HAL_Driver/Src/stm32f4xx_hal_spi.c ****   * @brief   SPI control functions
2623:Drivers/STM32F4xx_HAL_Driver/Src/stm32f4xx_hal_spi.c ****   *
2624:Drivers/STM32F4xx_HAL_Driver/Src/stm32f4xx_hal_spi.c **** @verbatim
2625:Drivers/STM32F4xx_HAL_Driver/Src/stm32f4xx_hal_spi.c ****  ===============================================================================
2626:Drivers/STM32F4xx_HAL_Driver/Src/stm32f4xx_hal_spi.c ****                       ##### Peripheral State and Errors functions #####
2627:Drivers/STM32F4xx_HAL_Driver/Src/stm32f4xx_hal_spi.c ****  ===============================================================================
2628:Drivers/STM32F4xx_HAL_Driver/Src/stm32f4xx_hal_spi.c ****     [..]
2629:Drivers/STM32F4xx_HAL_Driver/Src/stm32f4xx_hal_spi.c ****     This subsection provides a set of functions allowing to control the SPI.
2630:Drivers/STM32F4xx_HAL_Driver/Src/stm32f4xx_hal_spi.c ****      (+) HAL_SPI_GetState() API can be helpful to check in run-time the state of the SPI peripheral
2631:Drivers/STM32F4xx_HAL_Driver/Src/stm32f4xx_hal_spi.c ****      (+) HAL_SPI_GetError() check in run-time Errors occurring during communication
2632:Drivers/STM32F4xx_HAL_Driver/Src/stm32f4xx_hal_spi.c **** @endverbatim
2633:Drivers/STM32F4xx_HAL_Driver/Src/stm32f4xx_hal_spi.c ****   * @{
2634:Drivers/STM32F4xx_HAL_Driver/Src/stm32f4xx_hal_spi.c ****   */
2635:Drivers/STM32F4xx_HAL_Driver/Src/stm32f4xx_hal_spi.c **** 
2636:Drivers/STM32F4xx_HAL_Driver/Src/stm32f4xx_hal_spi.c **** /**
2637:Drivers/STM32F4xx_HAL_Driver/Src/stm32f4xx_hal_spi.c ****   * @brief  Return the SPI handle state.
2638:Drivers/STM32F4xx_HAL_Driver/Src/stm32f4xx_hal_spi.c ****   * @param  hspi pointer to a SPI_HandleTypeDef structure that contains
2639:Drivers/STM32F4xx_HAL_Driver/Src/stm32f4xx_hal_spi.c ****   *               the configuration information for SPI module.
2640:Drivers/STM32F4xx_HAL_Driver/Src/stm32f4xx_hal_spi.c ****   * @retval SPI state
2641:Drivers/STM32F4xx_HAL_Driver/Src/stm32f4xx_hal_spi.c ****   */
2642:Drivers/STM32F4xx_HAL_Driver/Src/stm32f4xx_hal_spi.c **** HAL_SPI_StateTypeDef HAL_SPI_GetState(const SPI_HandleTypeDef *hspi)
2643:Drivers/STM32F4xx_HAL_Driver/Src/stm32f4xx_hal_spi.c **** {
 4958              		.loc 1 2643 1
 4959              		.cfi_startproc
 4960              		@ args = 0, pretend = 0, frame = 8
 4961              		@ frame_needed = 1, uses_anonymous_args = 0
 4962              		@ link register save eliminated.
 4963 0000 80B4     		push	{r7}
 4964              	.LCFI149:
 4965              		.cfi_def_cfa_offset 4
 4966              		.cfi_offset 7, -4
ARM GAS  C:\Users\16323\AppData\Local\Temp\ccbQ7VoP.s 			page 134


 4967 0002 83B0     		sub	sp, sp, #12
 4968              	.LCFI150:
 4969              		.cfi_def_cfa_offset 16
 4970 0004 00AF     		add	r7, sp, #0
 4971              	.LCFI151:
 4972              		.cfi_def_cfa_register 7
 4973 0006 7860     		str	r0, [r7, #4]
2644:Drivers/STM32F4xx_HAL_Driver/Src/stm32f4xx_hal_spi.c ****   /* Return SPI handle state */
2645:Drivers/STM32F4xx_HAL_Driver/Src/stm32f4xx_hal_spi.c ****   return hspi->State;
 4974              		.loc 1 2645 14
 4975 0008 7B68     		ldr	r3, [r7, #4]
 4976 000a 93F85130 		ldrb	r3, [r3, #81]
 4977 000e DBB2     		uxtb	r3, r3
2646:Drivers/STM32F4xx_HAL_Driver/Src/stm32f4xx_hal_spi.c **** }
 4978              		.loc 1 2646 1
 4979 0010 1846     		mov	r0, r3
 4980 0012 0C37     		adds	r7, r7, #12
 4981              	.LCFI152:
 4982              		.cfi_def_cfa_offset 4
 4983 0014 BD46     		mov	sp, r7
 4984              	.LCFI153:
 4985              		.cfi_def_cfa_register 13
 4986              		@ sp needed
 4987 0016 5DF8047B 		ldr	r7, [sp], #4
 4988              	.LCFI154:
 4989              		.cfi_restore 7
 4990              		.cfi_def_cfa_offset 0
 4991 001a 7047     		bx	lr
 4992              		.cfi_endproc
 4993              	.LFE266:
 4995              		.section	.text.HAL_SPI_GetError,"ax",%progbits
 4996              		.align	1
 4997              		.global	HAL_SPI_GetError
 4998              		.syntax unified
 4999              		.thumb
 5000              		.thumb_func
 5002              	HAL_SPI_GetError:
 5003              	.LFB267:
2647:Drivers/STM32F4xx_HAL_Driver/Src/stm32f4xx_hal_spi.c **** 
2648:Drivers/STM32F4xx_HAL_Driver/Src/stm32f4xx_hal_spi.c **** /**
2649:Drivers/STM32F4xx_HAL_Driver/Src/stm32f4xx_hal_spi.c ****   * @brief  Return the SPI error code.
2650:Drivers/STM32F4xx_HAL_Driver/Src/stm32f4xx_hal_spi.c ****   * @param  hspi pointer to a SPI_HandleTypeDef structure that contains
2651:Drivers/STM32F4xx_HAL_Driver/Src/stm32f4xx_hal_spi.c ****   *               the configuration information for SPI module.
2652:Drivers/STM32F4xx_HAL_Driver/Src/stm32f4xx_hal_spi.c ****   * @retval SPI error code in bitmap format
2653:Drivers/STM32F4xx_HAL_Driver/Src/stm32f4xx_hal_spi.c ****   */
2654:Drivers/STM32F4xx_HAL_Driver/Src/stm32f4xx_hal_spi.c **** uint32_t HAL_SPI_GetError(const SPI_HandleTypeDef *hspi)
2655:Drivers/STM32F4xx_HAL_Driver/Src/stm32f4xx_hal_spi.c **** {
 5004              		.loc 1 2655 1
 5005              		.cfi_startproc
 5006              		@ args = 0, pretend = 0, frame = 8
 5007              		@ frame_needed = 1, uses_anonymous_args = 0
 5008              		@ link register save eliminated.
 5009 0000 80B4     		push	{r7}
 5010              	.LCFI155:
 5011              		.cfi_def_cfa_offset 4
 5012              		.cfi_offset 7, -4
 5013 0002 83B0     		sub	sp, sp, #12
ARM GAS  C:\Users\16323\AppData\Local\Temp\ccbQ7VoP.s 			page 135


 5014              	.LCFI156:
 5015              		.cfi_def_cfa_offset 16
 5016 0004 00AF     		add	r7, sp, #0
 5017              	.LCFI157:
 5018              		.cfi_def_cfa_register 7
 5019 0006 7860     		str	r0, [r7, #4]
2656:Drivers/STM32F4xx_HAL_Driver/Src/stm32f4xx_hal_spi.c ****   /* Return SPI ErrorCode */
2657:Drivers/STM32F4xx_HAL_Driver/Src/stm32f4xx_hal_spi.c ****   return hspi->ErrorCode;
 5020              		.loc 1 2657 14
 5021 0008 7B68     		ldr	r3, [r7, #4]
 5022 000a 5B6D     		ldr	r3, [r3, #84]
2658:Drivers/STM32F4xx_HAL_Driver/Src/stm32f4xx_hal_spi.c **** }
 5023              		.loc 1 2658 1
 5024 000c 1846     		mov	r0, r3
 5025 000e 0C37     		adds	r7, r7, #12
 5026              	.LCFI158:
 5027              		.cfi_def_cfa_offset 4
 5028 0010 BD46     		mov	sp, r7
 5029              	.LCFI159:
 5030              		.cfi_def_cfa_register 13
 5031              		@ sp needed
 5032 0012 5DF8047B 		ldr	r7, [sp], #4
 5033              	.LCFI160:
 5034              		.cfi_restore 7
 5035              		.cfi_def_cfa_offset 0
 5036 0016 7047     		bx	lr
 5037              		.cfi_endproc
 5038              	.LFE267:
 5040              		.section	.text.SPI_DMATransmitCplt,"ax",%progbits
 5041              		.align	1
 5042              		.syntax unified
 5043              		.thumb
 5044              		.thumb_func
 5046              	SPI_DMATransmitCplt:
 5047              	.LFB268:
2659:Drivers/STM32F4xx_HAL_Driver/Src/stm32f4xx_hal_spi.c **** 
2660:Drivers/STM32F4xx_HAL_Driver/Src/stm32f4xx_hal_spi.c **** /**
2661:Drivers/STM32F4xx_HAL_Driver/Src/stm32f4xx_hal_spi.c ****   * @}
2662:Drivers/STM32F4xx_HAL_Driver/Src/stm32f4xx_hal_spi.c ****   */
2663:Drivers/STM32F4xx_HAL_Driver/Src/stm32f4xx_hal_spi.c **** 
2664:Drivers/STM32F4xx_HAL_Driver/Src/stm32f4xx_hal_spi.c **** /**
2665:Drivers/STM32F4xx_HAL_Driver/Src/stm32f4xx_hal_spi.c ****   * @}
2666:Drivers/STM32F4xx_HAL_Driver/Src/stm32f4xx_hal_spi.c ****   */
2667:Drivers/STM32F4xx_HAL_Driver/Src/stm32f4xx_hal_spi.c **** 
2668:Drivers/STM32F4xx_HAL_Driver/Src/stm32f4xx_hal_spi.c **** /** @addtogroup SPI_Private_Functions
2669:Drivers/STM32F4xx_HAL_Driver/Src/stm32f4xx_hal_spi.c ****   * @brief   Private functions
2670:Drivers/STM32F4xx_HAL_Driver/Src/stm32f4xx_hal_spi.c ****   * @{
2671:Drivers/STM32F4xx_HAL_Driver/Src/stm32f4xx_hal_spi.c ****   */
2672:Drivers/STM32F4xx_HAL_Driver/Src/stm32f4xx_hal_spi.c **** 
2673:Drivers/STM32F4xx_HAL_Driver/Src/stm32f4xx_hal_spi.c **** /**
2674:Drivers/STM32F4xx_HAL_Driver/Src/stm32f4xx_hal_spi.c ****   * @brief  DMA SPI transmit process complete callback.
2675:Drivers/STM32F4xx_HAL_Driver/Src/stm32f4xx_hal_spi.c ****   * @param  hdma pointer to a DMA_HandleTypeDef structure that contains
2676:Drivers/STM32F4xx_HAL_Driver/Src/stm32f4xx_hal_spi.c ****   *               the configuration information for the specified DMA module.
2677:Drivers/STM32F4xx_HAL_Driver/Src/stm32f4xx_hal_spi.c ****   * @retval None
2678:Drivers/STM32F4xx_HAL_Driver/Src/stm32f4xx_hal_spi.c ****   */
2679:Drivers/STM32F4xx_HAL_Driver/Src/stm32f4xx_hal_spi.c **** static void SPI_DMATransmitCplt(DMA_HandleTypeDef *hdma)
2680:Drivers/STM32F4xx_HAL_Driver/Src/stm32f4xx_hal_spi.c **** {
ARM GAS  C:\Users\16323\AppData\Local\Temp\ccbQ7VoP.s 			page 136


 5048              		.loc 1 2680 1
 5049              		.cfi_startproc
 5050              		@ args = 0, pretend = 0, frame = 24
 5051              		@ frame_needed = 1, uses_anonymous_args = 0
 5052 0000 80B5     		push	{r7, lr}
 5053              	.LCFI161:
 5054              		.cfi_def_cfa_offset 8
 5055              		.cfi_offset 7, -8
 5056              		.cfi_offset 14, -4
 5057 0002 86B0     		sub	sp, sp, #24
 5058              	.LCFI162:
 5059              		.cfi_def_cfa_offset 32
 5060 0004 00AF     		add	r7, sp, #0
 5061              	.LCFI163:
 5062              		.cfi_def_cfa_register 7
 5063 0006 7860     		str	r0, [r7, #4]
2681:Drivers/STM32F4xx_HAL_Driver/Src/stm32f4xx_hal_spi.c ****   SPI_HandleTypeDef *hspi = (SPI_HandleTypeDef *)(((DMA_HandleTypeDef *)hdma)->Parent); /* Derogati
 5064              		.loc 1 2681 22
 5065 0008 7B68     		ldr	r3, [r7, #4]
 5066 000a 9B6B     		ldr	r3, [r3, #56]
 5067 000c 7B61     		str	r3, [r7, #20]
2682:Drivers/STM32F4xx_HAL_Driver/Src/stm32f4xx_hal_spi.c ****   uint32_t tickstart;
2683:Drivers/STM32F4xx_HAL_Driver/Src/stm32f4xx_hal_spi.c **** 
2684:Drivers/STM32F4xx_HAL_Driver/Src/stm32f4xx_hal_spi.c ****   /* Init tickstart for timeout management*/
2685:Drivers/STM32F4xx_HAL_Driver/Src/stm32f4xx_hal_spi.c ****   tickstart = HAL_GetTick();
 5068              		.loc 1 2685 15
 5069 000e FFF7FEFF 		bl	HAL_GetTick
 5070 0012 3861     		str	r0, [r7, #16]
2686:Drivers/STM32F4xx_HAL_Driver/Src/stm32f4xx_hal_spi.c **** 
2687:Drivers/STM32F4xx_HAL_Driver/Src/stm32f4xx_hal_spi.c ****   /* DMA Normal Mode */
2688:Drivers/STM32F4xx_HAL_Driver/Src/stm32f4xx_hal_spi.c ****   if ((hdma->Instance->CR & DMA_SxCR_CIRC) != DMA_SxCR_CIRC)
 5071              		.loc 1 2688 12
 5072 0014 7B68     		ldr	r3, [r7, #4]
 5073 0016 1B68     		ldr	r3, [r3]
 5074              		.loc 1 2688 22
 5075 0018 1B68     		ldr	r3, [r3]
 5076              		.loc 1 2688 27
 5077 001a 03F48073 		and	r3, r3, #256
 5078              		.loc 1 2688 6
 5079 001e B3F5807F 		cmp	r3, #256
 5080 0022 3BD0     		beq	.L250
2689:Drivers/STM32F4xx_HAL_Driver/Src/stm32f4xx_hal_spi.c ****   {
2690:Drivers/STM32F4xx_HAL_Driver/Src/stm32f4xx_hal_spi.c ****     /* Disable ERR interrupt */
2691:Drivers/STM32F4xx_HAL_Driver/Src/stm32f4xx_hal_spi.c ****     __HAL_SPI_DISABLE_IT(hspi, SPI_IT_ERR);
 5081              		.loc 1 2691 5
 5082 0024 7B69     		ldr	r3, [r7, #20]
 5083 0026 1B68     		ldr	r3, [r3]
 5084 0028 5A68     		ldr	r2, [r3, #4]
 5085 002a 7B69     		ldr	r3, [r7, #20]
 5086 002c 1B68     		ldr	r3, [r3]
 5087 002e 22F02002 		bic	r2, r2, #32
 5088 0032 5A60     		str	r2, [r3, #4]
2692:Drivers/STM32F4xx_HAL_Driver/Src/stm32f4xx_hal_spi.c **** 
2693:Drivers/STM32F4xx_HAL_Driver/Src/stm32f4xx_hal_spi.c ****     /* Disable Tx DMA Request */
2694:Drivers/STM32F4xx_HAL_Driver/Src/stm32f4xx_hal_spi.c ****     CLEAR_BIT(hspi->Instance->CR2, SPI_CR2_TXDMAEN);
 5089              		.loc 1 2694 5
 5090 0034 7B69     		ldr	r3, [r7, #20]
ARM GAS  C:\Users\16323\AppData\Local\Temp\ccbQ7VoP.s 			page 137


 5091 0036 1B68     		ldr	r3, [r3]
 5092 0038 5A68     		ldr	r2, [r3, #4]
 5093 003a 7B69     		ldr	r3, [r7, #20]
 5094 003c 1B68     		ldr	r3, [r3]
 5095 003e 22F00202 		bic	r2, r2, #2
 5096 0042 5A60     		str	r2, [r3, #4]
2695:Drivers/STM32F4xx_HAL_Driver/Src/stm32f4xx_hal_spi.c **** 
2696:Drivers/STM32F4xx_HAL_Driver/Src/stm32f4xx_hal_spi.c ****     /* Check the end of the transaction */
2697:Drivers/STM32F4xx_HAL_Driver/Src/stm32f4xx_hal_spi.c ****     if (SPI_EndRxTxTransaction(hspi, SPI_DEFAULT_TIMEOUT, tickstart) != HAL_OK)
 5097              		.loc 1 2697 9
 5098 0044 3A69     		ldr	r2, [r7, #16]
 5099 0046 6421     		movs	r1, #100
 5100 0048 7869     		ldr	r0, [r7, #20]
 5101 004a FFF7FEFF 		bl	SPI_EndRxTxTransaction
 5102 004e 0346     		mov	r3, r0
 5103              		.loc 1 2697 8
 5104 0050 002B     		cmp	r3, #0
 5105 0052 05D0     		beq	.L251
2698:Drivers/STM32F4xx_HAL_Driver/Src/stm32f4xx_hal_spi.c ****     {
2699:Drivers/STM32F4xx_HAL_Driver/Src/stm32f4xx_hal_spi.c ****       SET_BIT(hspi->ErrorCode, HAL_SPI_ERROR_FLAG);
 5106              		.loc 1 2699 7
 5107 0054 7B69     		ldr	r3, [r7, #20]
 5108 0056 5B6D     		ldr	r3, [r3, #84]
 5109 0058 43F02002 		orr	r2, r3, #32
 5110 005c 7B69     		ldr	r3, [r7, #20]
 5111 005e 5A65     		str	r2, [r3, #84]
 5112              	.L251:
2700:Drivers/STM32F4xx_HAL_Driver/Src/stm32f4xx_hal_spi.c ****     }
2701:Drivers/STM32F4xx_HAL_Driver/Src/stm32f4xx_hal_spi.c **** 
2702:Drivers/STM32F4xx_HAL_Driver/Src/stm32f4xx_hal_spi.c ****     /* Clear overrun flag in 2 Lines communication mode because received data is not read */
2703:Drivers/STM32F4xx_HAL_Driver/Src/stm32f4xx_hal_spi.c ****     if (hspi->Init.Direction == SPI_DIRECTION_2LINES)
 5113              		.loc 1 2703 19
 5114 0060 7B69     		ldr	r3, [r7, #20]
 5115 0062 9B68     		ldr	r3, [r3, #8]
 5116              		.loc 1 2703 8
 5117 0064 002B     		cmp	r3, #0
 5118 0066 0AD1     		bne	.L252
 5119              	.LBB12:
2704:Drivers/STM32F4xx_HAL_Driver/Src/stm32f4xx_hal_spi.c ****     {
2705:Drivers/STM32F4xx_HAL_Driver/Src/stm32f4xx_hal_spi.c ****       __HAL_SPI_CLEAR_OVRFLAG(hspi);
 5120              		.loc 1 2705 7
 5121 0068 0023     		movs	r3, #0
 5122 006a FB60     		str	r3, [r7, #12]
 5123 006c 7B69     		ldr	r3, [r7, #20]
 5124 006e 1B68     		ldr	r3, [r3]
 5125 0070 DB68     		ldr	r3, [r3, #12]
 5126 0072 FB60     		str	r3, [r7, #12]
 5127 0074 7B69     		ldr	r3, [r7, #20]
 5128 0076 1B68     		ldr	r3, [r3]
 5129 0078 9B68     		ldr	r3, [r3, #8]
 5130 007a FB60     		str	r3, [r7, #12]
 5131 007c FB68     		ldr	r3, [r7, #12]
 5132              	.L252:
 5133              	.LBE12:
2706:Drivers/STM32F4xx_HAL_Driver/Src/stm32f4xx_hal_spi.c ****     }
2707:Drivers/STM32F4xx_HAL_Driver/Src/stm32f4xx_hal_spi.c **** 
2708:Drivers/STM32F4xx_HAL_Driver/Src/stm32f4xx_hal_spi.c ****     hspi->TxXferCount = 0U;
ARM GAS  C:\Users\16323\AppData\Local\Temp\ccbQ7VoP.s 			page 138


 5134              		.loc 1 2708 23
 5135 007e 7B69     		ldr	r3, [r7, #20]
 5136 0080 0022     		movs	r2, #0
 5137 0082 DA86     		strh	r2, [r3, #54]	@ movhi
2709:Drivers/STM32F4xx_HAL_Driver/Src/stm32f4xx_hal_spi.c ****     hspi->State = HAL_SPI_STATE_READY;
 5138              		.loc 1 2709 17
 5139 0084 7B69     		ldr	r3, [r7, #20]
 5140 0086 0122     		movs	r2, #1
 5141 0088 83F85120 		strb	r2, [r3, #81]
2710:Drivers/STM32F4xx_HAL_Driver/Src/stm32f4xx_hal_spi.c **** 
2711:Drivers/STM32F4xx_HAL_Driver/Src/stm32f4xx_hal_spi.c ****     if (hspi->ErrorCode != HAL_SPI_ERROR_NONE)
 5142              		.loc 1 2711 13
 5143 008c 7B69     		ldr	r3, [r7, #20]
 5144 008e 5B6D     		ldr	r3, [r3, #84]
 5145              		.loc 1 2711 8
 5146 0090 002B     		cmp	r3, #0
 5147 0092 03D0     		beq	.L250
2712:Drivers/STM32F4xx_HAL_Driver/Src/stm32f4xx_hal_spi.c ****     {
2713:Drivers/STM32F4xx_HAL_Driver/Src/stm32f4xx_hal_spi.c ****       /* Call user error callback */
2714:Drivers/STM32F4xx_HAL_Driver/Src/stm32f4xx_hal_spi.c **** #if (USE_HAL_SPI_REGISTER_CALLBACKS == 1U)
2715:Drivers/STM32F4xx_HAL_Driver/Src/stm32f4xx_hal_spi.c ****       hspi->ErrorCallback(hspi);
2716:Drivers/STM32F4xx_HAL_Driver/Src/stm32f4xx_hal_spi.c **** #else
2717:Drivers/STM32F4xx_HAL_Driver/Src/stm32f4xx_hal_spi.c ****       HAL_SPI_ErrorCallback(hspi);
 5148              		.loc 1 2717 7
 5149 0094 7869     		ldr	r0, [r7, #20]
 5150 0096 FFF7FEFF 		bl	HAL_SPI_ErrorCallback
2718:Drivers/STM32F4xx_HAL_Driver/Src/stm32f4xx_hal_spi.c **** #endif /* USE_HAL_SPI_REGISTER_CALLBACKS */
2719:Drivers/STM32F4xx_HAL_Driver/Src/stm32f4xx_hal_spi.c ****       return;
 5151              		.loc 1 2719 7
 5152 009a 02E0     		b	.L249
 5153              	.L250:
2720:Drivers/STM32F4xx_HAL_Driver/Src/stm32f4xx_hal_spi.c ****     }
2721:Drivers/STM32F4xx_HAL_Driver/Src/stm32f4xx_hal_spi.c ****   }
2722:Drivers/STM32F4xx_HAL_Driver/Src/stm32f4xx_hal_spi.c ****   /* Call user Tx complete callback */
2723:Drivers/STM32F4xx_HAL_Driver/Src/stm32f4xx_hal_spi.c **** #if (USE_HAL_SPI_REGISTER_CALLBACKS == 1U)
2724:Drivers/STM32F4xx_HAL_Driver/Src/stm32f4xx_hal_spi.c ****   hspi->TxCpltCallback(hspi);
2725:Drivers/STM32F4xx_HAL_Driver/Src/stm32f4xx_hal_spi.c **** #else
2726:Drivers/STM32F4xx_HAL_Driver/Src/stm32f4xx_hal_spi.c ****   HAL_SPI_TxCpltCallback(hspi);
 5154              		.loc 1 2726 3
 5155 009c 7869     		ldr	r0, [r7, #20]
 5156 009e FFF7FEFF 		bl	HAL_SPI_TxCpltCallback
 5157              	.L249:
2727:Drivers/STM32F4xx_HAL_Driver/Src/stm32f4xx_hal_spi.c **** #endif /* USE_HAL_SPI_REGISTER_CALLBACKS */
2728:Drivers/STM32F4xx_HAL_Driver/Src/stm32f4xx_hal_spi.c **** }
 5158              		.loc 1 2728 1
 5159 00a2 1837     		adds	r7, r7, #24
 5160              	.LCFI164:
 5161              		.cfi_def_cfa_offset 8
 5162 00a4 BD46     		mov	sp, r7
 5163              	.LCFI165:
 5164              		.cfi_def_cfa_register 13
 5165              		@ sp needed
 5166 00a6 80BD     		pop	{r7, pc}
 5167              		.cfi_endproc
 5168              	.LFE268:
 5170              		.section	.text.SPI_DMAReceiveCplt,"ax",%progbits
 5171              		.align	1
ARM GAS  C:\Users\16323\AppData\Local\Temp\ccbQ7VoP.s 			page 139


 5172              		.syntax unified
 5173              		.thumb
 5174              		.thumb_func
 5176              	SPI_DMAReceiveCplt:
 5177              	.LFB269:
2729:Drivers/STM32F4xx_HAL_Driver/Src/stm32f4xx_hal_spi.c **** 
2730:Drivers/STM32F4xx_HAL_Driver/Src/stm32f4xx_hal_spi.c **** /**
2731:Drivers/STM32F4xx_HAL_Driver/Src/stm32f4xx_hal_spi.c ****   * @brief  DMA SPI receive process complete callback.
2732:Drivers/STM32F4xx_HAL_Driver/Src/stm32f4xx_hal_spi.c ****   * @param  hdma pointer to a DMA_HandleTypeDef structure that contains
2733:Drivers/STM32F4xx_HAL_Driver/Src/stm32f4xx_hal_spi.c ****   *               the configuration information for the specified DMA module.
2734:Drivers/STM32F4xx_HAL_Driver/Src/stm32f4xx_hal_spi.c ****   * @retval None
2735:Drivers/STM32F4xx_HAL_Driver/Src/stm32f4xx_hal_spi.c ****   */
2736:Drivers/STM32F4xx_HAL_Driver/Src/stm32f4xx_hal_spi.c **** static void SPI_DMAReceiveCplt(DMA_HandleTypeDef *hdma)
2737:Drivers/STM32F4xx_HAL_Driver/Src/stm32f4xx_hal_spi.c **** {
 5178              		.loc 1 2737 1
 5179              		.cfi_startproc
 5180              		@ args = 0, pretend = 0, frame = 16
 5181              		@ frame_needed = 1, uses_anonymous_args = 0
 5182 0000 80B5     		push	{r7, lr}
 5183              	.LCFI166:
 5184              		.cfi_def_cfa_offset 8
 5185              		.cfi_offset 7, -8
 5186              		.cfi_offset 14, -4
 5187 0002 84B0     		sub	sp, sp, #16
 5188              	.LCFI167:
 5189              		.cfi_def_cfa_offset 24
 5190 0004 00AF     		add	r7, sp, #0
 5191              	.LCFI168:
 5192              		.cfi_def_cfa_register 7
 5193 0006 7860     		str	r0, [r7, #4]
2738:Drivers/STM32F4xx_HAL_Driver/Src/stm32f4xx_hal_spi.c ****   SPI_HandleTypeDef *hspi = (SPI_HandleTypeDef *)(((DMA_HandleTypeDef *)hdma)->Parent); /* Derogati
 5194              		.loc 1 2738 22
 5195 0008 7B68     		ldr	r3, [r7, #4]
 5196 000a 9B6B     		ldr	r3, [r3, #56]
 5197 000c FB60     		str	r3, [r7, #12]
2739:Drivers/STM32F4xx_HAL_Driver/Src/stm32f4xx_hal_spi.c ****   uint32_t tickstart;
2740:Drivers/STM32F4xx_HAL_Driver/Src/stm32f4xx_hal_spi.c **** #if (USE_SPI_CRC != 0U)
2741:Drivers/STM32F4xx_HAL_Driver/Src/stm32f4xx_hal_spi.c ****   __IO uint32_t tmpreg = 0U;
2742:Drivers/STM32F4xx_HAL_Driver/Src/stm32f4xx_hal_spi.c **** #endif /* USE_SPI_CRC */
2743:Drivers/STM32F4xx_HAL_Driver/Src/stm32f4xx_hal_spi.c **** 
2744:Drivers/STM32F4xx_HAL_Driver/Src/stm32f4xx_hal_spi.c ****   /* Init tickstart for timeout management*/
2745:Drivers/STM32F4xx_HAL_Driver/Src/stm32f4xx_hal_spi.c ****   tickstart = HAL_GetTick();
 5198              		.loc 1 2745 15
 5199 000e FFF7FEFF 		bl	HAL_GetTick
 5200 0012 B860     		str	r0, [r7, #8]
2746:Drivers/STM32F4xx_HAL_Driver/Src/stm32f4xx_hal_spi.c **** 
2747:Drivers/STM32F4xx_HAL_Driver/Src/stm32f4xx_hal_spi.c ****   /* DMA Normal Mode */
2748:Drivers/STM32F4xx_HAL_Driver/Src/stm32f4xx_hal_spi.c ****   if ((hdma->Instance->CR & DMA_SxCR_CIRC) != DMA_SxCR_CIRC)
 5201              		.loc 1 2748 12
 5202 0014 7B68     		ldr	r3, [r7, #4]
 5203 0016 1B68     		ldr	r3, [r3]
 5204              		.loc 1 2748 22
 5205 0018 1B68     		ldr	r3, [r3]
 5206              		.loc 1 2748 27
 5207 001a 03F48073 		and	r3, r3, #256
 5208              		.loc 1 2748 6
 5209 001e B3F5807F 		cmp	r3, #256
ARM GAS  C:\Users\16323\AppData\Local\Temp\ccbQ7VoP.s 			page 140


 5210 0022 3BD0     		beq	.L255
2749:Drivers/STM32F4xx_HAL_Driver/Src/stm32f4xx_hal_spi.c ****   {
2750:Drivers/STM32F4xx_HAL_Driver/Src/stm32f4xx_hal_spi.c ****     /* Disable ERR interrupt */
2751:Drivers/STM32F4xx_HAL_Driver/Src/stm32f4xx_hal_spi.c ****     __HAL_SPI_DISABLE_IT(hspi, SPI_IT_ERR);
 5211              		.loc 1 2751 5
 5212 0024 FB68     		ldr	r3, [r7, #12]
 5213 0026 1B68     		ldr	r3, [r3]
 5214 0028 5A68     		ldr	r2, [r3, #4]
 5215 002a FB68     		ldr	r3, [r7, #12]
 5216 002c 1B68     		ldr	r3, [r3]
 5217 002e 22F02002 		bic	r2, r2, #32
 5218 0032 5A60     		str	r2, [r3, #4]
2752:Drivers/STM32F4xx_HAL_Driver/Src/stm32f4xx_hal_spi.c **** 
2753:Drivers/STM32F4xx_HAL_Driver/Src/stm32f4xx_hal_spi.c **** #if (USE_SPI_CRC != 0U)
2754:Drivers/STM32F4xx_HAL_Driver/Src/stm32f4xx_hal_spi.c ****     /* CRC handling */
2755:Drivers/STM32F4xx_HAL_Driver/Src/stm32f4xx_hal_spi.c ****     if (hspi->Init.CRCCalculation == SPI_CRCCALCULATION_ENABLE)
2756:Drivers/STM32F4xx_HAL_Driver/Src/stm32f4xx_hal_spi.c ****     {
2757:Drivers/STM32F4xx_HAL_Driver/Src/stm32f4xx_hal_spi.c ****       /* Wait until RXNE flag */
2758:Drivers/STM32F4xx_HAL_Driver/Src/stm32f4xx_hal_spi.c ****       if (SPI_WaitFlagStateUntilTimeout(hspi, SPI_FLAG_RXNE, SET, SPI_DEFAULT_TIMEOUT, tickstart) !
2759:Drivers/STM32F4xx_HAL_Driver/Src/stm32f4xx_hal_spi.c ****       {
2760:Drivers/STM32F4xx_HAL_Driver/Src/stm32f4xx_hal_spi.c ****         /* Error on the CRC reception */
2761:Drivers/STM32F4xx_HAL_Driver/Src/stm32f4xx_hal_spi.c ****         SET_BIT(hspi->ErrorCode, HAL_SPI_ERROR_CRC);
2762:Drivers/STM32F4xx_HAL_Driver/Src/stm32f4xx_hal_spi.c ****       }
2763:Drivers/STM32F4xx_HAL_Driver/Src/stm32f4xx_hal_spi.c ****       /* Read CRC */
2764:Drivers/STM32F4xx_HAL_Driver/Src/stm32f4xx_hal_spi.c ****       tmpreg = READ_REG(hspi->Instance->DR);
2765:Drivers/STM32F4xx_HAL_Driver/Src/stm32f4xx_hal_spi.c ****       /* To avoid GCC warning */
2766:Drivers/STM32F4xx_HAL_Driver/Src/stm32f4xx_hal_spi.c ****       UNUSED(tmpreg);
2767:Drivers/STM32F4xx_HAL_Driver/Src/stm32f4xx_hal_spi.c ****     }
2768:Drivers/STM32F4xx_HAL_Driver/Src/stm32f4xx_hal_spi.c **** #endif /* USE_SPI_CRC */
2769:Drivers/STM32F4xx_HAL_Driver/Src/stm32f4xx_hal_spi.c **** 
2770:Drivers/STM32F4xx_HAL_Driver/Src/stm32f4xx_hal_spi.c ****     /* Check if we are in Master RX 2 line mode */
2771:Drivers/STM32F4xx_HAL_Driver/Src/stm32f4xx_hal_spi.c ****     if ((hspi->Init.Direction == SPI_DIRECTION_2LINES) && (hspi->Init.Mode == SPI_MODE_MASTER))
 5219              		.loc 1 2771 20
 5220 0034 FB68     		ldr	r3, [r7, #12]
 5221 0036 9B68     		ldr	r3, [r3, #8]
 5222              		.loc 1 2771 8
 5223 0038 002B     		cmp	r3, #0
 5224 003a 0DD1     		bne	.L256
 5225              		.loc 1 2771 70 discriminator 1
 5226 003c FB68     		ldr	r3, [r7, #12]
 5227 003e 5B68     		ldr	r3, [r3, #4]
 5228              		.loc 1 2771 56 discriminator 1
 5229 0040 B3F5827F 		cmp	r3, #260
 5230 0044 08D1     		bne	.L256
2772:Drivers/STM32F4xx_HAL_Driver/Src/stm32f4xx_hal_spi.c ****     {
2773:Drivers/STM32F4xx_HAL_Driver/Src/stm32f4xx_hal_spi.c ****       /* Disable Rx/Tx DMA Request (done by default to handle the case master rx direction 2 lines)
2774:Drivers/STM32F4xx_HAL_Driver/Src/stm32f4xx_hal_spi.c ****       CLEAR_BIT(hspi->Instance->CR2, SPI_CR2_TXDMAEN | SPI_CR2_RXDMAEN);
 5231              		.loc 1 2774 7
 5232 0046 FB68     		ldr	r3, [r7, #12]
 5233 0048 1B68     		ldr	r3, [r3]
 5234 004a 5A68     		ldr	r2, [r3, #4]
 5235 004c FB68     		ldr	r3, [r7, #12]
 5236 004e 1B68     		ldr	r3, [r3]
 5237 0050 22F00302 		bic	r2, r2, #3
 5238 0054 5A60     		str	r2, [r3, #4]
 5239 0056 07E0     		b	.L257
 5240              	.L256:
ARM GAS  C:\Users\16323\AppData\Local\Temp\ccbQ7VoP.s 			page 141


2775:Drivers/STM32F4xx_HAL_Driver/Src/stm32f4xx_hal_spi.c ****     }
2776:Drivers/STM32F4xx_HAL_Driver/Src/stm32f4xx_hal_spi.c ****     else
2777:Drivers/STM32F4xx_HAL_Driver/Src/stm32f4xx_hal_spi.c ****     {
2778:Drivers/STM32F4xx_HAL_Driver/Src/stm32f4xx_hal_spi.c ****       /* Normal case */
2779:Drivers/STM32F4xx_HAL_Driver/Src/stm32f4xx_hal_spi.c ****       CLEAR_BIT(hspi->Instance->CR2, SPI_CR2_RXDMAEN);
 5241              		.loc 1 2779 7
 5242 0058 FB68     		ldr	r3, [r7, #12]
 5243 005a 1B68     		ldr	r3, [r3]
 5244 005c 5A68     		ldr	r2, [r3, #4]
 5245 005e FB68     		ldr	r3, [r7, #12]
 5246 0060 1B68     		ldr	r3, [r3]
 5247 0062 22F00102 		bic	r2, r2, #1
 5248 0066 5A60     		str	r2, [r3, #4]
 5249              	.L257:
2780:Drivers/STM32F4xx_HAL_Driver/Src/stm32f4xx_hal_spi.c ****     }
2781:Drivers/STM32F4xx_HAL_Driver/Src/stm32f4xx_hal_spi.c **** 
2782:Drivers/STM32F4xx_HAL_Driver/Src/stm32f4xx_hal_spi.c ****     /* Check the end of the transaction */
2783:Drivers/STM32F4xx_HAL_Driver/Src/stm32f4xx_hal_spi.c ****     if (SPI_EndRxTransaction(hspi, SPI_DEFAULT_TIMEOUT, tickstart) != HAL_OK)
 5250              		.loc 1 2783 9
 5251 0068 BA68     		ldr	r2, [r7, #8]
 5252 006a 6421     		movs	r1, #100
 5253 006c F868     		ldr	r0, [r7, #12]
 5254 006e FFF7FEFF 		bl	SPI_EndRxTransaction
 5255 0072 0346     		mov	r3, r0
 5256              		.loc 1 2783 8
 5257 0074 002B     		cmp	r3, #0
 5258 0076 02D0     		beq	.L258
2784:Drivers/STM32F4xx_HAL_Driver/Src/stm32f4xx_hal_spi.c ****     {
2785:Drivers/STM32F4xx_HAL_Driver/Src/stm32f4xx_hal_spi.c ****       hspi->ErrorCode = HAL_SPI_ERROR_FLAG;
 5259              		.loc 1 2785 23
 5260 0078 FB68     		ldr	r3, [r7, #12]
 5261 007a 2022     		movs	r2, #32
 5262 007c 5A65     		str	r2, [r3, #84]
 5263              	.L258:
2786:Drivers/STM32F4xx_HAL_Driver/Src/stm32f4xx_hal_spi.c ****     }
2787:Drivers/STM32F4xx_HAL_Driver/Src/stm32f4xx_hal_spi.c **** 
2788:Drivers/STM32F4xx_HAL_Driver/Src/stm32f4xx_hal_spi.c ****     hspi->RxXferCount = 0U;
 5264              		.loc 1 2788 23
 5265 007e FB68     		ldr	r3, [r7, #12]
 5266 0080 0022     		movs	r2, #0
 5267 0082 DA87     		strh	r2, [r3, #62]	@ movhi
2789:Drivers/STM32F4xx_HAL_Driver/Src/stm32f4xx_hal_spi.c ****     hspi->State = HAL_SPI_STATE_READY;
 5268              		.loc 1 2789 17
 5269 0084 FB68     		ldr	r3, [r7, #12]
 5270 0086 0122     		movs	r2, #1
 5271 0088 83F85120 		strb	r2, [r3, #81]
2790:Drivers/STM32F4xx_HAL_Driver/Src/stm32f4xx_hal_spi.c **** 
2791:Drivers/STM32F4xx_HAL_Driver/Src/stm32f4xx_hal_spi.c **** #if (USE_SPI_CRC != 0U)
2792:Drivers/STM32F4xx_HAL_Driver/Src/stm32f4xx_hal_spi.c ****     /* Check if CRC error occurred */
2793:Drivers/STM32F4xx_HAL_Driver/Src/stm32f4xx_hal_spi.c ****     if (__HAL_SPI_GET_FLAG(hspi, SPI_FLAG_CRCERR))
2794:Drivers/STM32F4xx_HAL_Driver/Src/stm32f4xx_hal_spi.c ****     {
2795:Drivers/STM32F4xx_HAL_Driver/Src/stm32f4xx_hal_spi.c ****       SET_BIT(hspi->ErrorCode, HAL_SPI_ERROR_CRC);
2796:Drivers/STM32F4xx_HAL_Driver/Src/stm32f4xx_hal_spi.c ****       __HAL_SPI_CLEAR_CRCERRFLAG(hspi);
2797:Drivers/STM32F4xx_HAL_Driver/Src/stm32f4xx_hal_spi.c ****     }
2798:Drivers/STM32F4xx_HAL_Driver/Src/stm32f4xx_hal_spi.c **** #endif /* USE_SPI_CRC */
2799:Drivers/STM32F4xx_HAL_Driver/Src/stm32f4xx_hal_spi.c **** 
2800:Drivers/STM32F4xx_HAL_Driver/Src/stm32f4xx_hal_spi.c ****     if (hspi->ErrorCode != HAL_SPI_ERROR_NONE)
ARM GAS  C:\Users\16323\AppData\Local\Temp\ccbQ7VoP.s 			page 142


 5272              		.loc 1 2800 13
 5273 008c FB68     		ldr	r3, [r7, #12]
 5274 008e 5B6D     		ldr	r3, [r3, #84]
 5275              		.loc 1 2800 8
 5276 0090 002B     		cmp	r3, #0
 5277 0092 03D0     		beq	.L255
2801:Drivers/STM32F4xx_HAL_Driver/Src/stm32f4xx_hal_spi.c ****     {
2802:Drivers/STM32F4xx_HAL_Driver/Src/stm32f4xx_hal_spi.c ****       /* Call user error callback */
2803:Drivers/STM32F4xx_HAL_Driver/Src/stm32f4xx_hal_spi.c **** #if (USE_HAL_SPI_REGISTER_CALLBACKS == 1U)
2804:Drivers/STM32F4xx_HAL_Driver/Src/stm32f4xx_hal_spi.c ****       hspi->ErrorCallback(hspi);
2805:Drivers/STM32F4xx_HAL_Driver/Src/stm32f4xx_hal_spi.c **** #else
2806:Drivers/STM32F4xx_HAL_Driver/Src/stm32f4xx_hal_spi.c ****       HAL_SPI_ErrorCallback(hspi);
 5278              		.loc 1 2806 7
 5279 0094 F868     		ldr	r0, [r7, #12]
 5280 0096 FFF7FEFF 		bl	HAL_SPI_ErrorCallback
2807:Drivers/STM32F4xx_HAL_Driver/Src/stm32f4xx_hal_spi.c **** #endif /* USE_HAL_SPI_REGISTER_CALLBACKS */
2808:Drivers/STM32F4xx_HAL_Driver/Src/stm32f4xx_hal_spi.c ****       return;
 5281              		.loc 1 2808 7
 5282 009a 02E0     		b	.L254
 5283              	.L255:
2809:Drivers/STM32F4xx_HAL_Driver/Src/stm32f4xx_hal_spi.c ****     }
2810:Drivers/STM32F4xx_HAL_Driver/Src/stm32f4xx_hal_spi.c ****   }
2811:Drivers/STM32F4xx_HAL_Driver/Src/stm32f4xx_hal_spi.c ****   /* Call user Rx complete callback */
2812:Drivers/STM32F4xx_HAL_Driver/Src/stm32f4xx_hal_spi.c **** #if (USE_HAL_SPI_REGISTER_CALLBACKS == 1U)
2813:Drivers/STM32F4xx_HAL_Driver/Src/stm32f4xx_hal_spi.c ****   hspi->RxCpltCallback(hspi);
2814:Drivers/STM32F4xx_HAL_Driver/Src/stm32f4xx_hal_spi.c **** #else
2815:Drivers/STM32F4xx_HAL_Driver/Src/stm32f4xx_hal_spi.c ****   HAL_SPI_RxCpltCallback(hspi);
 5284              		.loc 1 2815 3
 5285 009c F868     		ldr	r0, [r7, #12]
 5286 009e FFF7FEFF 		bl	HAL_SPI_RxCpltCallback
 5287              	.L254:
2816:Drivers/STM32F4xx_HAL_Driver/Src/stm32f4xx_hal_spi.c **** #endif /* USE_HAL_SPI_REGISTER_CALLBACKS */
2817:Drivers/STM32F4xx_HAL_Driver/Src/stm32f4xx_hal_spi.c **** }
 5288              		.loc 1 2817 1
 5289 00a2 1037     		adds	r7, r7, #16
 5290              	.LCFI169:
 5291              		.cfi_def_cfa_offset 8
 5292 00a4 BD46     		mov	sp, r7
 5293              	.LCFI170:
 5294              		.cfi_def_cfa_register 13
 5295              		@ sp needed
 5296 00a6 80BD     		pop	{r7, pc}
 5297              		.cfi_endproc
 5298              	.LFE269:
 5300              		.section	.text.SPI_DMATransmitReceiveCplt,"ax",%progbits
 5301              		.align	1
 5302              		.syntax unified
 5303              		.thumb
 5304              		.thumb_func
 5306              	SPI_DMATransmitReceiveCplt:
 5307              	.LFB270:
2818:Drivers/STM32F4xx_HAL_Driver/Src/stm32f4xx_hal_spi.c **** 
2819:Drivers/STM32F4xx_HAL_Driver/Src/stm32f4xx_hal_spi.c **** /**
2820:Drivers/STM32F4xx_HAL_Driver/Src/stm32f4xx_hal_spi.c ****   * @brief  DMA SPI transmit receive process complete callback.
2821:Drivers/STM32F4xx_HAL_Driver/Src/stm32f4xx_hal_spi.c ****   * @param  hdma pointer to a DMA_HandleTypeDef structure that contains
2822:Drivers/STM32F4xx_HAL_Driver/Src/stm32f4xx_hal_spi.c ****   *               the configuration information for the specified DMA module.
2823:Drivers/STM32F4xx_HAL_Driver/Src/stm32f4xx_hal_spi.c ****   * @retval None
ARM GAS  C:\Users\16323\AppData\Local\Temp\ccbQ7VoP.s 			page 143


2824:Drivers/STM32F4xx_HAL_Driver/Src/stm32f4xx_hal_spi.c ****   */
2825:Drivers/STM32F4xx_HAL_Driver/Src/stm32f4xx_hal_spi.c **** static void SPI_DMATransmitReceiveCplt(DMA_HandleTypeDef *hdma)
2826:Drivers/STM32F4xx_HAL_Driver/Src/stm32f4xx_hal_spi.c **** {
 5308              		.loc 1 2826 1
 5309              		.cfi_startproc
 5310              		@ args = 0, pretend = 0, frame = 16
 5311              		@ frame_needed = 1, uses_anonymous_args = 0
 5312 0000 80B5     		push	{r7, lr}
 5313              	.LCFI171:
 5314              		.cfi_def_cfa_offset 8
 5315              		.cfi_offset 7, -8
 5316              		.cfi_offset 14, -4
 5317 0002 84B0     		sub	sp, sp, #16
 5318              	.LCFI172:
 5319              		.cfi_def_cfa_offset 24
 5320 0004 00AF     		add	r7, sp, #0
 5321              	.LCFI173:
 5322              		.cfi_def_cfa_register 7
 5323 0006 7860     		str	r0, [r7, #4]
2827:Drivers/STM32F4xx_HAL_Driver/Src/stm32f4xx_hal_spi.c ****   SPI_HandleTypeDef *hspi = (SPI_HandleTypeDef *)(((DMA_HandleTypeDef *)hdma)->Parent); /* Derogati
 5324              		.loc 1 2827 22
 5325 0008 7B68     		ldr	r3, [r7, #4]
 5326 000a 9B6B     		ldr	r3, [r3, #56]
 5327 000c FB60     		str	r3, [r7, #12]
2828:Drivers/STM32F4xx_HAL_Driver/Src/stm32f4xx_hal_spi.c ****   uint32_t tickstart;
2829:Drivers/STM32F4xx_HAL_Driver/Src/stm32f4xx_hal_spi.c **** #if (USE_SPI_CRC != 0U)
2830:Drivers/STM32F4xx_HAL_Driver/Src/stm32f4xx_hal_spi.c ****   __IO uint32_t tmpreg = 0U;
2831:Drivers/STM32F4xx_HAL_Driver/Src/stm32f4xx_hal_spi.c **** #endif /* USE_SPI_CRC */
2832:Drivers/STM32F4xx_HAL_Driver/Src/stm32f4xx_hal_spi.c **** 
2833:Drivers/STM32F4xx_HAL_Driver/Src/stm32f4xx_hal_spi.c ****   /* Init tickstart for timeout management*/
2834:Drivers/STM32F4xx_HAL_Driver/Src/stm32f4xx_hal_spi.c ****   tickstart = HAL_GetTick();
 5328              		.loc 1 2834 15
 5329 000e FFF7FEFF 		bl	HAL_GetTick
 5330 0012 B860     		str	r0, [r7, #8]
2835:Drivers/STM32F4xx_HAL_Driver/Src/stm32f4xx_hal_spi.c **** 
2836:Drivers/STM32F4xx_HAL_Driver/Src/stm32f4xx_hal_spi.c ****   /* DMA Normal Mode */
2837:Drivers/STM32F4xx_HAL_Driver/Src/stm32f4xx_hal_spi.c ****   if ((hdma->Instance->CR & DMA_SxCR_CIRC) != DMA_SxCR_CIRC)
 5331              		.loc 1 2837 12
 5332 0014 7B68     		ldr	r3, [r7, #4]
 5333 0016 1B68     		ldr	r3, [r3]
 5334              		.loc 1 2837 22
 5335 0018 1B68     		ldr	r3, [r3]
 5336              		.loc 1 2837 27
 5337 001a 03F48073 		and	r3, r3, #256
 5338              		.loc 1 2837 6
 5339 001e B3F5807F 		cmp	r3, #256
 5340 0022 2FD0     		beq	.L261
2838:Drivers/STM32F4xx_HAL_Driver/Src/stm32f4xx_hal_spi.c ****   {
2839:Drivers/STM32F4xx_HAL_Driver/Src/stm32f4xx_hal_spi.c ****     /* Disable ERR interrupt */
2840:Drivers/STM32F4xx_HAL_Driver/Src/stm32f4xx_hal_spi.c ****     __HAL_SPI_DISABLE_IT(hspi, SPI_IT_ERR);
 5341              		.loc 1 2840 5
 5342 0024 FB68     		ldr	r3, [r7, #12]
 5343 0026 1B68     		ldr	r3, [r3]
 5344 0028 5A68     		ldr	r2, [r3, #4]
 5345 002a FB68     		ldr	r3, [r7, #12]
 5346 002c 1B68     		ldr	r3, [r3]
 5347 002e 22F02002 		bic	r2, r2, #32
ARM GAS  C:\Users\16323\AppData\Local\Temp\ccbQ7VoP.s 			page 144


 5348 0032 5A60     		str	r2, [r3, #4]
2841:Drivers/STM32F4xx_HAL_Driver/Src/stm32f4xx_hal_spi.c **** 
2842:Drivers/STM32F4xx_HAL_Driver/Src/stm32f4xx_hal_spi.c **** #if (USE_SPI_CRC != 0U)
2843:Drivers/STM32F4xx_HAL_Driver/Src/stm32f4xx_hal_spi.c ****     /* CRC handling */
2844:Drivers/STM32F4xx_HAL_Driver/Src/stm32f4xx_hal_spi.c ****     if (hspi->Init.CRCCalculation == SPI_CRCCALCULATION_ENABLE)
2845:Drivers/STM32F4xx_HAL_Driver/Src/stm32f4xx_hal_spi.c ****     {
2846:Drivers/STM32F4xx_HAL_Driver/Src/stm32f4xx_hal_spi.c ****       /* Wait the CRC data */
2847:Drivers/STM32F4xx_HAL_Driver/Src/stm32f4xx_hal_spi.c ****       if (SPI_WaitFlagStateUntilTimeout(hspi, SPI_FLAG_RXNE, SET, SPI_DEFAULT_TIMEOUT, tickstart) !
2848:Drivers/STM32F4xx_HAL_Driver/Src/stm32f4xx_hal_spi.c ****       {
2849:Drivers/STM32F4xx_HAL_Driver/Src/stm32f4xx_hal_spi.c ****         SET_BIT(hspi->ErrorCode, HAL_SPI_ERROR_CRC);
2850:Drivers/STM32F4xx_HAL_Driver/Src/stm32f4xx_hal_spi.c ****       }
2851:Drivers/STM32F4xx_HAL_Driver/Src/stm32f4xx_hal_spi.c ****       /* Read CRC to Flush DR and RXNE flag */
2852:Drivers/STM32F4xx_HAL_Driver/Src/stm32f4xx_hal_spi.c ****       tmpreg = READ_REG(hspi->Instance->DR);
2853:Drivers/STM32F4xx_HAL_Driver/Src/stm32f4xx_hal_spi.c ****       /* To avoid GCC warning */
2854:Drivers/STM32F4xx_HAL_Driver/Src/stm32f4xx_hal_spi.c ****       UNUSED(tmpreg);
2855:Drivers/STM32F4xx_HAL_Driver/Src/stm32f4xx_hal_spi.c ****     }
2856:Drivers/STM32F4xx_HAL_Driver/Src/stm32f4xx_hal_spi.c **** #endif /* USE_SPI_CRC */
2857:Drivers/STM32F4xx_HAL_Driver/Src/stm32f4xx_hal_spi.c **** 
2858:Drivers/STM32F4xx_HAL_Driver/Src/stm32f4xx_hal_spi.c ****     /* Check the end of the transaction */
2859:Drivers/STM32F4xx_HAL_Driver/Src/stm32f4xx_hal_spi.c ****     if (SPI_EndRxTxTransaction(hspi, SPI_DEFAULT_TIMEOUT, tickstart) != HAL_OK)
 5349              		.loc 1 2859 9
 5350 0034 BA68     		ldr	r2, [r7, #8]
 5351 0036 6421     		movs	r1, #100
 5352 0038 F868     		ldr	r0, [r7, #12]
 5353 003a FFF7FEFF 		bl	SPI_EndRxTxTransaction
 5354 003e 0346     		mov	r3, r0
 5355              		.loc 1 2859 8
 5356 0040 002B     		cmp	r3, #0
 5357 0042 05D0     		beq	.L262
2860:Drivers/STM32F4xx_HAL_Driver/Src/stm32f4xx_hal_spi.c ****     {
2861:Drivers/STM32F4xx_HAL_Driver/Src/stm32f4xx_hal_spi.c ****       SET_BIT(hspi->ErrorCode, HAL_SPI_ERROR_FLAG);
 5358              		.loc 1 2861 7
 5359 0044 FB68     		ldr	r3, [r7, #12]
 5360 0046 5B6D     		ldr	r3, [r3, #84]
 5361 0048 43F02002 		orr	r2, r3, #32
 5362 004c FB68     		ldr	r3, [r7, #12]
 5363 004e 5A65     		str	r2, [r3, #84]
 5364              	.L262:
2862:Drivers/STM32F4xx_HAL_Driver/Src/stm32f4xx_hal_spi.c ****     }
2863:Drivers/STM32F4xx_HAL_Driver/Src/stm32f4xx_hal_spi.c **** 
2864:Drivers/STM32F4xx_HAL_Driver/Src/stm32f4xx_hal_spi.c ****     /* Disable Rx/Tx DMA Request */
2865:Drivers/STM32F4xx_HAL_Driver/Src/stm32f4xx_hal_spi.c ****     CLEAR_BIT(hspi->Instance->CR2, SPI_CR2_TXDMAEN | SPI_CR2_RXDMAEN);
 5365              		.loc 1 2865 5
 5366 0050 FB68     		ldr	r3, [r7, #12]
 5367 0052 1B68     		ldr	r3, [r3]
 5368 0054 5A68     		ldr	r2, [r3, #4]
 5369 0056 FB68     		ldr	r3, [r7, #12]
 5370 0058 1B68     		ldr	r3, [r3]
 5371 005a 22F00302 		bic	r2, r2, #3
 5372 005e 5A60     		str	r2, [r3, #4]
2866:Drivers/STM32F4xx_HAL_Driver/Src/stm32f4xx_hal_spi.c **** 
2867:Drivers/STM32F4xx_HAL_Driver/Src/stm32f4xx_hal_spi.c ****     hspi->TxXferCount = 0U;
 5373              		.loc 1 2867 23
 5374 0060 FB68     		ldr	r3, [r7, #12]
 5375 0062 0022     		movs	r2, #0
 5376 0064 DA86     		strh	r2, [r3, #54]	@ movhi
2868:Drivers/STM32F4xx_HAL_Driver/Src/stm32f4xx_hal_spi.c ****     hspi->RxXferCount = 0U;
ARM GAS  C:\Users\16323\AppData\Local\Temp\ccbQ7VoP.s 			page 145


 5377              		.loc 1 2868 23
 5378 0066 FB68     		ldr	r3, [r7, #12]
 5379 0068 0022     		movs	r2, #0
 5380 006a DA87     		strh	r2, [r3, #62]	@ movhi
2869:Drivers/STM32F4xx_HAL_Driver/Src/stm32f4xx_hal_spi.c ****     hspi->State = HAL_SPI_STATE_READY;
 5381              		.loc 1 2869 17
 5382 006c FB68     		ldr	r3, [r7, #12]
 5383 006e 0122     		movs	r2, #1
 5384 0070 83F85120 		strb	r2, [r3, #81]
2870:Drivers/STM32F4xx_HAL_Driver/Src/stm32f4xx_hal_spi.c **** 
2871:Drivers/STM32F4xx_HAL_Driver/Src/stm32f4xx_hal_spi.c **** #if (USE_SPI_CRC != 0U)
2872:Drivers/STM32F4xx_HAL_Driver/Src/stm32f4xx_hal_spi.c ****     /* Check if CRC error occurred */
2873:Drivers/STM32F4xx_HAL_Driver/Src/stm32f4xx_hal_spi.c ****     if (__HAL_SPI_GET_FLAG(hspi, SPI_FLAG_CRCERR))
2874:Drivers/STM32F4xx_HAL_Driver/Src/stm32f4xx_hal_spi.c ****     {
2875:Drivers/STM32F4xx_HAL_Driver/Src/stm32f4xx_hal_spi.c ****       SET_BIT(hspi->ErrorCode, HAL_SPI_ERROR_CRC);
2876:Drivers/STM32F4xx_HAL_Driver/Src/stm32f4xx_hal_spi.c ****       __HAL_SPI_CLEAR_CRCERRFLAG(hspi);
2877:Drivers/STM32F4xx_HAL_Driver/Src/stm32f4xx_hal_spi.c ****     }
2878:Drivers/STM32F4xx_HAL_Driver/Src/stm32f4xx_hal_spi.c **** #endif /* USE_SPI_CRC */
2879:Drivers/STM32F4xx_HAL_Driver/Src/stm32f4xx_hal_spi.c **** 
2880:Drivers/STM32F4xx_HAL_Driver/Src/stm32f4xx_hal_spi.c ****     if (hspi->ErrorCode != HAL_SPI_ERROR_NONE)
 5385              		.loc 1 2880 13
 5386 0074 FB68     		ldr	r3, [r7, #12]
 5387 0076 5B6D     		ldr	r3, [r3, #84]
 5388              		.loc 1 2880 8
 5389 0078 002B     		cmp	r3, #0
 5390 007a 03D0     		beq	.L261
2881:Drivers/STM32F4xx_HAL_Driver/Src/stm32f4xx_hal_spi.c ****     {
2882:Drivers/STM32F4xx_HAL_Driver/Src/stm32f4xx_hal_spi.c ****       /* Call user error callback */
2883:Drivers/STM32F4xx_HAL_Driver/Src/stm32f4xx_hal_spi.c **** #if (USE_HAL_SPI_REGISTER_CALLBACKS == 1U)
2884:Drivers/STM32F4xx_HAL_Driver/Src/stm32f4xx_hal_spi.c ****       hspi->ErrorCallback(hspi);
2885:Drivers/STM32F4xx_HAL_Driver/Src/stm32f4xx_hal_spi.c **** #else
2886:Drivers/STM32F4xx_HAL_Driver/Src/stm32f4xx_hal_spi.c ****       HAL_SPI_ErrorCallback(hspi);
 5391              		.loc 1 2886 7
 5392 007c F868     		ldr	r0, [r7, #12]
 5393 007e FFF7FEFF 		bl	HAL_SPI_ErrorCallback
2887:Drivers/STM32F4xx_HAL_Driver/Src/stm32f4xx_hal_spi.c **** #endif /* USE_HAL_SPI_REGISTER_CALLBACKS */
2888:Drivers/STM32F4xx_HAL_Driver/Src/stm32f4xx_hal_spi.c ****       return;
 5394              		.loc 1 2888 7
 5395 0082 02E0     		b	.L260
 5396              	.L261:
2889:Drivers/STM32F4xx_HAL_Driver/Src/stm32f4xx_hal_spi.c ****     }
2890:Drivers/STM32F4xx_HAL_Driver/Src/stm32f4xx_hal_spi.c ****   }
2891:Drivers/STM32F4xx_HAL_Driver/Src/stm32f4xx_hal_spi.c ****   /* Call user TxRx complete callback */
2892:Drivers/STM32F4xx_HAL_Driver/Src/stm32f4xx_hal_spi.c **** #if (USE_HAL_SPI_REGISTER_CALLBACKS == 1U)
2893:Drivers/STM32F4xx_HAL_Driver/Src/stm32f4xx_hal_spi.c ****   hspi->TxRxCpltCallback(hspi);
2894:Drivers/STM32F4xx_HAL_Driver/Src/stm32f4xx_hal_spi.c **** #else
2895:Drivers/STM32F4xx_HAL_Driver/Src/stm32f4xx_hal_spi.c ****   HAL_SPI_TxRxCpltCallback(hspi);
 5397              		.loc 1 2895 3
 5398 0084 F868     		ldr	r0, [r7, #12]
 5399 0086 FFF7FEFF 		bl	HAL_SPI_TxRxCpltCallback
 5400              	.L260:
2896:Drivers/STM32F4xx_HAL_Driver/Src/stm32f4xx_hal_spi.c **** #endif /* USE_HAL_SPI_REGISTER_CALLBACKS */
2897:Drivers/STM32F4xx_HAL_Driver/Src/stm32f4xx_hal_spi.c **** }
 5401              		.loc 1 2897 1
 5402 008a 1037     		adds	r7, r7, #16
 5403              	.LCFI174:
 5404              		.cfi_def_cfa_offset 8
ARM GAS  C:\Users\16323\AppData\Local\Temp\ccbQ7VoP.s 			page 146


 5405 008c BD46     		mov	sp, r7
 5406              	.LCFI175:
 5407              		.cfi_def_cfa_register 13
 5408              		@ sp needed
 5409 008e 80BD     		pop	{r7, pc}
 5410              		.cfi_endproc
 5411              	.LFE270:
 5413              		.section	.text.SPI_DMAHalfTransmitCplt,"ax",%progbits
 5414              		.align	1
 5415              		.syntax unified
 5416              		.thumb
 5417              		.thumb_func
 5419              	SPI_DMAHalfTransmitCplt:
 5420              	.LFB271:
2898:Drivers/STM32F4xx_HAL_Driver/Src/stm32f4xx_hal_spi.c **** 
2899:Drivers/STM32F4xx_HAL_Driver/Src/stm32f4xx_hal_spi.c **** /**
2900:Drivers/STM32F4xx_HAL_Driver/Src/stm32f4xx_hal_spi.c ****   * @brief  DMA SPI half transmit process complete callback.
2901:Drivers/STM32F4xx_HAL_Driver/Src/stm32f4xx_hal_spi.c ****   * @param  hdma pointer to a DMA_HandleTypeDef structure that contains
2902:Drivers/STM32F4xx_HAL_Driver/Src/stm32f4xx_hal_spi.c ****   *               the configuration information for the specified DMA module.
2903:Drivers/STM32F4xx_HAL_Driver/Src/stm32f4xx_hal_spi.c ****   * @retval None
2904:Drivers/STM32F4xx_HAL_Driver/Src/stm32f4xx_hal_spi.c ****   */
2905:Drivers/STM32F4xx_HAL_Driver/Src/stm32f4xx_hal_spi.c **** static void SPI_DMAHalfTransmitCplt(DMA_HandleTypeDef *hdma)
2906:Drivers/STM32F4xx_HAL_Driver/Src/stm32f4xx_hal_spi.c **** {
 5421              		.loc 1 2906 1
 5422              		.cfi_startproc
 5423              		@ args = 0, pretend = 0, frame = 16
 5424              		@ frame_needed = 1, uses_anonymous_args = 0
 5425 0000 80B5     		push	{r7, lr}
 5426              	.LCFI176:
 5427              		.cfi_def_cfa_offset 8
 5428              		.cfi_offset 7, -8
 5429              		.cfi_offset 14, -4
 5430 0002 84B0     		sub	sp, sp, #16
 5431              	.LCFI177:
 5432              		.cfi_def_cfa_offset 24
 5433 0004 00AF     		add	r7, sp, #0
 5434              	.LCFI178:
 5435              		.cfi_def_cfa_register 7
 5436 0006 7860     		str	r0, [r7, #4]
2907:Drivers/STM32F4xx_HAL_Driver/Src/stm32f4xx_hal_spi.c ****   SPI_HandleTypeDef *hspi = (SPI_HandleTypeDef *)(((DMA_HandleTypeDef *)hdma)->Parent); /* Derogati
 5437              		.loc 1 2907 22
 5438 0008 7B68     		ldr	r3, [r7, #4]
 5439 000a 9B6B     		ldr	r3, [r3, #56]
 5440 000c FB60     		str	r3, [r7, #12]
2908:Drivers/STM32F4xx_HAL_Driver/Src/stm32f4xx_hal_spi.c **** 
2909:Drivers/STM32F4xx_HAL_Driver/Src/stm32f4xx_hal_spi.c ****   /* Call user Tx half complete callback */
2910:Drivers/STM32F4xx_HAL_Driver/Src/stm32f4xx_hal_spi.c **** #if (USE_HAL_SPI_REGISTER_CALLBACKS == 1U)
2911:Drivers/STM32F4xx_HAL_Driver/Src/stm32f4xx_hal_spi.c ****   hspi->TxHalfCpltCallback(hspi);
2912:Drivers/STM32F4xx_HAL_Driver/Src/stm32f4xx_hal_spi.c **** #else
2913:Drivers/STM32F4xx_HAL_Driver/Src/stm32f4xx_hal_spi.c ****   HAL_SPI_TxHalfCpltCallback(hspi);
 5441              		.loc 1 2913 3
 5442 000e F868     		ldr	r0, [r7, #12]
 5443 0010 FFF7FEFF 		bl	HAL_SPI_TxHalfCpltCallback
2914:Drivers/STM32F4xx_HAL_Driver/Src/stm32f4xx_hal_spi.c **** #endif /* USE_HAL_SPI_REGISTER_CALLBACKS */
2915:Drivers/STM32F4xx_HAL_Driver/Src/stm32f4xx_hal_spi.c **** }
 5444              		.loc 1 2915 1
 5445 0014 00BF     		nop
ARM GAS  C:\Users\16323\AppData\Local\Temp\ccbQ7VoP.s 			page 147


 5446 0016 1037     		adds	r7, r7, #16
 5447              	.LCFI179:
 5448              		.cfi_def_cfa_offset 8
 5449 0018 BD46     		mov	sp, r7
 5450              	.LCFI180:
 5451              		.cfi_def_cfa_register 13
 5452              		@ sp needed
 5453 001a 80BD     		pop	{r7, pc}
 5454              		.cfi_endproc
 5455              	.LFE271:
 5457              		.section	.text.SPI_DMAHalfReceiveCplt,"ax",%progbits
 5458              		.align	1
 5459              		.syntax unified
 5460              		.thumb
 5461              		.thumb_func
 5463              	SPI_DMAHalfReceiveCplt:
 5464              	.LFB272:
2916:Drivers/STM32F4xx_HAL_Driver/Src/stm32f4xx_hal_spi.c **** 
2917:Drivers/STM32F4xx_HAL_Driver/Src/stm32f4xx_hal_spi.c **** /**
2918:Drivers/STM32F4xx_HAL_Driver/Src/stm32f4xx_hal_spi.c ****   * @brief  DMA SPI half receive process complete callback
2919:Drivers/STM32F4xx_HAL_Driver/Src/stm32f4xx_hal_spi.c ****   * @param  hdma pointer to a DMA_HandleTypeDef structure that contains
2920:Drivers/STM32F4xx_HAL_Driver/Src/stm32f4xx_hal_spi.c ****   *               the configuration information for the specified DMA module.
2921:Drivers/STM32F4xx_HAL_Driver/Src/stm32f4xx_hal_spi.c ****   * @retval None
2922:Drivers/STM32F4xx_HAL_Driver/Src/stm32f4xx_hal_spi.c ****   */
2923:Drivers/STM32F4xx_HAL_Driver/Src/stm32f4xx_hal_spi.c **** static void SPI_DMAHalfReceiveCplt(DMA_HandleTypeDef *hdma)
2924:Drivers/STM32F4xx_HAL_Driver/Src/stm32f4xx_hal_spi.c **** {
 5465              		.loc 1 2924 1
 5466              		.cfi_startproc
 5467              		@ args = 0, pretend = 0, frame = 16
 5468              		@ frame_needed = 1, uses_anonymous_args = 0
 5469 0000 80B5     		push	{r7, lr}
 5470              	.LCFI181:
 5471              		.cfi_def_cfa_offset 8
 5472              		.cfi_offset 7, -8
 5473              		.cfi_offset 14, -4
 5474 0002 84B0     		sub	sp, sp, #16
 5475              	.LCFI182:
 5476              		.cfi_def_cfa_offset 24
 5477 0004 00AF     		add	r7, sp, #0
 5478              	.LCFI183:
 5479              		.cfi_def_cfa_register 7
 5480 0006 7860     		str	r0, [r7, #4]
2925:Drivers/STM32F4xx_HAL_Driver/Src/stm32f4xx_hal_spi.c ****   SPI_HandleTypeDef *hspi = (SPI_HandleTypeDef *)(((DMA_HandleTypeDef *)hdma)->Parent); /* Derogati
 5481              		.loc 1 2925 22
 5482 0008 7B68     		ldr	r3, [r7, #4]
 5483 000a 9B6B     		ldr	r3, [r3, #56]
 5484 000c FB60     		str	r3, [r7, #12]
2926:Drivers/STM32F4xx_HAL_Driver/Src/stm32f4xx_hal_spi.c **** 
2927:Drivers/STM32F4xx_HAL_Driver/Src/stm32f4xx_hal_spi.c ****   /* Call user Rx half complete callback */
2928:Drivers/STM32F4xx_HAL_Driver/Src/stm32f4xx_hal_spi.c **** #if (USE_HAL_SPI_REGISTER_CALLBACKS == 1U)
2929:Drivers/STM32F4xx_HAL_Driver/Src/stm32f4xx_hal_spi.c ****   hspi->RxHalfCpltCallback(hspi);
2930:Drivers/STM32F4xx_HAL_Driver/Src/stm32f4xx_hal_spi.c **** #else
2931:Drivers/STM32F4xx_HAL_Driver/Src/stm32f4xx_hal_spi.c ****   HAL_SPI_RxHalfCpltCallback(hspi);
 5485              		.loc 1 2931 3
 5486 000e F868     		ldr	r0, [r7, #12]
 5487 0010 FFF7FEFF 		bl	HAL_SPI_RxHalfCpltCallback
2932:Drivers/STM32F4xx_HAL_Driver/Src/stm32f4xx_hal_spi.c **** #endif /* USE_HAL_SPI_REGISTER_CALLBACKS */
ARM GAS  C:\Users\16323\AppData\Local\Temp\ccbQ7VoP.s 			page 148


2933:Drivers/STM32F4xx_HAL_Driver/Src/stm32f4xx_hal_spi.c **** }
 5488              		.loc 1 2933 1
 5489 0014 00BF     		nop
 5490 0016 1037     		adds	r7, r7, #16
 5491              	.LCFI184:
 5492              		.cfi_def_cfa_offset 8
 5493 0018 BD46     		mov	sp, r7
 5494              	.LCFI185:
 5495              		.cfi_def_cfa_register 13
 5496              		@ sp needed
 5497 001a 80BD     		pop	{r7, pc}
 5498              		.cfi_endproc
 5499              	.LFE272:
 5501              		.section	.text.SPI_DMAHalfTransmitReceiveCplt,"ax",%progbits
 5502              		.align	1
 5503              		.syntax unified
 5504              		.thumb
 5505              		.thumb_func
 5507              	SPI_DMAHalfTransmitReceiveCplt:
 5508              	.LFB273:
2934:Drivers/STM32F4xx_HAL_Driver/Src/stm32f4xx_hal_spi.c **** 
2935:Drivers/STM32F4xx_HAL_Driver/Src/stm32f4xx_hal_spi.c **** /**
2936:Drivers/STM32F4xx_HAL_Driver/Src/stm32f4xx_hal_spi.c ****   * @brief  DMA SPI half transmit receive process complete callback.
2937:Drivers/STM32F4xx_HAL_Driver/Src/stm32f4xx_hal_spi.c ****   * @param  hdma pointer to a DMA_HandleTypeDef structure that contains
2938:Drivers/STM32F4xx_HAL_Driver/Src/stm32f4xx_hal_spi.c ****   *               the configuration information for the specified DMA module.
2939:Drivers/STM32F4xx_HAL_Driver/Src/stm32f4xx_hal_spi.c ****   * @retval None
2940:Drivers/STM32F4xx_HAL_Driver/Src/stm32f4xx_hal_spi.c ****   */
2941:Drivers/STM32F4xx_HAL_Driver/Src/stm32f4xx_hal_spi.c **** static void SPI_DMAHalfTransmitReceiveCplt(DMA_HandleTypeDef *hdma)
2942:Drivers/STM32F4xx_HAL_Driver/Src/stm32f4xx_hal_spi.c **** {
 5509              		.loc 1 2942 1
 5510              		.cfi_startproc
 5511              		@ args = 0, pretend = 0, frame = 16
 5512              		@ frame_needed = 1, uses_anonymous_args = 0
 5513 0000 80B5     		push	{r7, lr}
 5514              	.LCFI186:
 5515              		.cfi_def_cfa_offset 8
 5516              		.cfi_offset 7, -8
 5517              		.cfi_offset 14, -4
 5518 0002 84B0     		sub	sp, sp, #16
 5519              	.LCFI187:
 5520              		.cfi_def_cfa_offset 24
 5521 0004 00AF     		add	r7, sp, #0
 5522              	.LCFI188:
 5523              		.cfi_def_cfa_register 7
 5524 0006 7860     		str	r0, [r7, #4]
2943:Drivers/STM32F4xx_HAL_Driver/Src/stm32f4xx_hal_spi.c ****   SPI_HandleTypeDef *hspi = (SPI_HandleTypeDef *)(((DMA_HandleTypeDef *)hdma)->Parent); /* Derogati
 5525              		.loc 1 2943 22
 5526 0008 7B68     		ldr	r3, [r7, #4]
 5527 000a 9B6B     		ldr	r3, [r3, #56]
 5528 000c FB60     		str	r3, [r7, #12]
2944:Drivers/STM32F4xx_HAL_Driver/Src/stm32f4xx_hal_spi.c **** 
2945:Drivers/STM32F4xx_HAL_Driver/Src/stm32f4xx_hal_spi.c ****   /* Call user TxRx half complete callback */
2946:Drivers/STM32F4xx_HAL_Driver/Src/stm32f4xx_hal_spi.c **** #if (USE_HAL_SPI_REGISTER_CALLBACKS == 1U)
2947:Drivers/STM32F4xx_HAL_Driver/Src/stm32f4xx_hal_spi.c ****   hspi->TxRxHalfCpltCallback(hspi);
2948:Drivers/STM32F4xx_HAL_Driver/Src/stm32f4xx_hal_spi.c **** #else
2949:Drivers/STM32F4xx_HAL_Driver/Src/stm32f4xx_hal_spi.c ****   HAL_SPI_TxRxHalfCpltCallback(hspi);
 5529              		.loc 1 2949 3
ARM GAS  C:\Users\16323\AppData\Local\Temp\ccbQ7VoP.s 			page 149


 5530 000e F868     		ldr	r0, [r7, #12]
 5531 0010 FFF7FEFF 		bl	HAL_SPI_TxRxHalfCpltCallback
2950:Drivers/STM32F4xx_HAL_Driver/Src/stm32f4xx_hal_spi.c **** #endif /* USE_HAL_SPI_REGISTER_CALLBACKS */
2951:Drivers/STM32F4xx_HAL_Driver/Src/stm32f4xx_hal_spi.c **** }
 5532              		.loc 1 2951 1
 5533 0014 00BF     		nop
 5534 0016 1037     		adds	r7, r7, #16
 5535              	.LCFI189:
 5536              		.cfi_def_cfa_offset 8
 5537 0018 BD46     		mov	sp, r7
 5538              	.LCFI190:
 5539              		.cfi_def_cfa_register 13
 5540              		@ sp needed
 5541 001a 80BD     		pop	{r7, pc}
 5542              		.cfi_endproc
 5543              	.LFE273:
 5545              		.section	.text.SPI_DMAError,"ax",%progbits
 5546              		.align	1
 5547              		.syntax unified
 5548              		.thumb
 5549              		.thumb_func
 5551              	SPI_DMAError:
 5552              	.LFB274:
2952:Drivers/STM32F4xx_HAL_Driver/Src/stm32f4xx_hal_spi.c **** 
2953:Drivers/STM32F4xx_HAL_Driver/Src/stm32f4xx_hal_spi.c **** /**
2954:Drivers/STM32F4xx_HAL_Driver/Src/stm32f4xx_hal_spi.c ****   * @brief  DMA SPI communication error callback.
2955:Drivers/STM32F4xx_HAL_Driver/Src/stm32f4xx_hal_spi.c ****   * @param  hdma pointer to a DMA_HandleTypeDef structure that contains
2956:Drivers/STM32F4xx_HAL_Driver/Src/stm32f4xx_hal_spi.c ****   *               the configuration information for the specified DMA module.
2957:Drivers/STM32F4xx_HAL_Driver/Src/stm32f4xx_hal_spi.c ****   * @retval None
2958:Drivers/STM32F4xx_HAL_Driver/Src/stm32f4xx_hal_spi.c ****   */
2959:Drivers/STM32F4xx_HAL_Driver/Src/stm32f4xx_hal_spi.c **** static void SPI_DMAError(DMA_HandleTypeDef *hdma)
2960:Drivers/STM32F4xx_HAL_Driver/Src/stm32f4xx_hal_spi.c **** {
 5553              		.loc 1 2960 1
 5554              		.cfi_startproc
 5555              		@ args = 0, pretend = 0, frame = 16
 5556              		@ frame_needed = 1, uses_anonymous_args = 0
 5557 0000 80B5     		push	{r7, lr}
 5558              	.LCFI191:
 5559              		.cfi_def_cfa_offset 8
 5560              		.cfi_offset 7, -8
 5561              		.cfi_offset 14, -4
 5562 0002 84B0     		sub	sp, sp, #16
 5563              	.LCFI192:
 5564              		.cfi_def_cfa_offset 24
 5565 0004 00AF     		add	r7, sp, #0
 5566              	.LCFI193:
 5567              		.cfi_def_cfa_register 7
 5568 0006 7860     		str	r0, [r7, #4]
2961:Drivers/STM32F4xx_HAL_Driver/Src/stm32f4xx_hal_spi.c ****   SPI_HandleTypeDef *hspi = (SPI_HandleTypeDef *)(((DMA_HandleTypeDef *)hdma)->Parent); /* Derogati
 5569              		.loc 1 2961 22
 5570 0008 7B68     		ldr	r3, [r7, #4]
 5571 000a 9B6B     		ldr	r3, [r3, #56]
 5572 000c FB60     		str	r3, [r7, #12]
2962:Drivers/STM32F4xx_HAL_Driver/Src/stm32f4xx_hal_spi.c **** 
2963:Drivers/STM32F4xx_HAL_Driver/Src/stm32f4xx_hal_spi.c ****   /* Stop the disable DMA transfer on SPI side */
2964:Drivers/STM32F4xx_HAL_Driver/Src/stm32f4xx_hal_spi.c ****   CLEAR_BIT(hspi->Instance->CR2, SPI_CR2_TXDMAEN | SPI_CR2_RXDMAEN);
 5573              		.loc 1 2964 3
ARM GAS  C:\Users\16323\AppData\Local\Temp\ccbQ7VoP.s 			page 150


 5574 000e FB68     		ldr	r3, [r7, #12]
 5575 0010 1B68     		ldr	r3, [r3]
 5576 0012 5A68     		ldr	r2, [r3, #4]
 5577 0014 FB68     		ldr	r3, [r7, #12]
 5578 0016 1B68     		ldr	r3, [r3]
 5579 0018 22F00302 		bic	r2, r2, #3
 5580 001c 5A60     		str	r2, [r3, #4]
2965:Drivers/STM32F4xx_HAL_Driver/Src/stm32f4xx_hal_spi.c **** 
2966:Drivers/STM32F4xx_HAL_Driver/Src/stm32f4xx_hal_spi.c ****   SET_BIT(hspi->ErrorCode, HAL_SPI_ERROR_DMA);
 5581              		.loc 1 2966 3
 5582 001e FB68     		ldr	r3, [r7, #12]
 5583 0020 5B6D     		ldr	r3, [r3, #84]
 5584 0022 43F01002 		orr	r2, r3, #16
 5585 0026 FB68     		ldr	r3, [r7, #12]
 5586 0028 5A65     		str	r2, [r3, #84]
2967:Drivers/STM32F4xx_HAL_Driver/Src/stm32f4xx_hal_spi.c ****   hspi->State = HAL_SPI_STATE_READY;
 5587              		.loc 1 2967 15
 5588 002a FB68     		ldr	r3, [r7, #12]
 5589 002c 0122     		movs	r2, #1
 5590 002e 83F85120 		strb	r2, [r3, #81]
2968:Drivers/STM32F4xx_HAL_Driver/Src/stm32f4xx_hal_spi.c ****   /* Call user error callback */
2969:Drivers/STM32F4xx_HAL_Driver/Src/stm32f4xx_hal_spi.c **** #if (USE_HAL_SPI_REGISTER_CALLBACKS == 1U)
2970:Drivers/STM32F4xx_HAL_Driver/Src/stm32f4xx_hal_spi.c ****   hspi->ErrorCallback(hspi);
2971:Drivers/STM32F4xx_HAL_Driver/Src/stm32f4xx_hal_spi.c **** #else
2972:Drivers/STM32F4xx_HAL_Driver/Src/stm32f4xx_hal_spi.c ****   HAL_SPI_ErrorCallback(hspi);
 5591              		.loc 1 2972 3
 5592 0032 F868     		ldr	r0, [r7, #12]
 5593 0034 FFF7FEFF 		bl	HAL_SPI_ErrorCallback
2973:Drivers/STM32F4xx_HAL_Driver/Src/stm32f4xx_hal_spi.c **** #endif /* USE_HAL_SPI_REGISTER_CALLBACKS */
2974:Drivers/STM32F4xx_HAL_Driver/Src/stm32f4xx_hal_spi.c **** }
 5594              		.loc 1 2974 1
 5595 0038 00BF     		nop
 5596 003a 1037     		adds	r7, r7, #16
 5597              	.LCFI194:
 5598              		.cfi_def_cfa_offset 8
 5599 003c BD46     		mov	sp, r7
 5600              	.LCFI195:
 5601              		.cfi_def_cfa_register 13
 5602              		@ sp needed
 5603 003e 80BD     		pop	{r7, pc}
 5604              		.cfi_endproc
 5605              	.LFE274:
 5607              		.section	.text.SPI_DMAAbortOnError,"ax",%progbits
 5608              		.align	1
 5609              		.syntax unified
 5610              		.thumb
 5611              		.thumb_func
 5613              	SPI_DMAAbortOnError:
 5614              	.LFB275:
2975:Drivers/STM32F4xx_HAL_Driver/Src/stm32f4xx_hal_spi.c **** 
2976:Drivers/STM32F4xx_HAL_Driver/Src/stm32f4xx_hal_spi.c **** /**
2977:Drivers/STM32F4xx_HAL_Driver/Src/stm32f4xx_hal_spi.c ****   * @brief  DMA SPI communication abort callback, when initiated by HAL services on Error
2978:Drivers/STM32F4xx_HAL_Driver/Src/stm32f4xx_hal_spi.c ****   *         (To be called at end of DMA Abort procedure following error occurrence).
2979:Drivers/STM32F4xx_HAL_Driver/Src/stm32f4xx_hal_spi.c ****   * @param  hdma DMA handle.
2980:Drivers/STM32F4xx_HAL_Driver/Src/stm32f4xx_hal_spi.c ****   * @retval None
2981:Drivers/STM32F4xx_HAL_Driver/Src/stm32f4xx_hal_spi.c ****   */
2982:Drivers/STM32F4xx_HAL_Driver/Src/stm32f4xx_hal_spi.c **** static void SPI_DMAAbortOnError(DMA_HandleTypeDef *hdma)
ARM GAS  C:\Users\16323\AppData\Local\Temp\ccbQ7VoP.s 			page 151


2983:Drivers/STM32F4xx_HAL_Driver/Src/stm32f4xx_hal_spi.c **** {
 5615              		.loc 1 2983 1
 5616              		.cfi_startproc
 5617              		@ args = 0, pretend = 0, frame = 16
 5618              		@ frame_needed = 1, uses_anonymous_args = 0
 5619 0000 80B5     		push	{r7, lr}
 5620              	.LCFI196:
 5621              		.cfi_def_cfa_offset 8
 5622              		.cfi_offset 7, -8
 5623              		.cfi_offset 14, -4
 5624 0002 84B0     		sub	sp, sp, #16
 5625              	.LCFI197:
 5626              		.cfi_def_cfa_offset 24
 5627 0004 00AF     		add	r7, sp, #0
 5628              	.LCFI198:
 5629              		.cfi_def_cfa_register 7
 5630 0006 7860     		str	r0, [r7, #4]
2984:Drivers/STM32F4xx_HAL_Driver/Src/stm32f4xx_hal_spi.c ****   SPI_HandleTypeDef *hspi = (SPI_HandleTypeDef *)(((DMA_HandleTypeDef *)hdma)->Parent); /* Derogati
 5631              		.loc 1 2984 22
 5632 0008 7B68     		ldr	r3, [r7, #4]
 5633 000a 9B6B     		ldr	r3, [r3, #56]
 5634 000c FB60     		str	r3, [r7, #12]
2985:Drivers/STM32F4xx_HAL_Driver/Src/stm32f4xx_hal_spi.c ****   hspi->RxXferCount = 0U;
 5635              		.loc 1 2985 21
 5636 000e FB68     		ldr	r3, [r7, #12]
 5637 0010 0022     		movs	r2, #0
 5638 0012 DA87     		strh	r2, [r3, #62]	@ movhi
2986:Drivers/STM32F4xx_HAL_Driver/Src/stm32f4xx_hal_spi.c ****   hspi->TxXferCount = 0U;
 5639              		.loc 1 2986 21
 5640 0014 FB68     		ldr	r3, [r7, #12]
 5641 0016 0022     		movs	r2, #0
 5642 0018 DA86     		strh	r2, [r3, #54]	@ movhi
2987:Drivers/STM32F4xx_HAL_Driver/Src/stm32f4xx_hal_spi.c **** 
2988:Drivers/STM32F4xx_HAL_Driver/Src/stm32f4xx_hal_spi.c ****   /* Call user error callback */
2989:Drivers/STM32F4xx_HAL_Driver/Src/stm32f4xx_hal_spi.c **** #if (USE_HAL_SPI_REGISTER_CALLBACKS == 1U)
2990:Drivers/STM32F4xx_HAL_Driver/Src/stm32f4xx_hal_spi.c ****   hspi->ErrorCallback(hspi);
2991:Drivers/STM32F4xx_HAL_Driver/Src/stm32f4xx_hal_spi.c **** #else
2992:Drivers/STM32F4xx_HAL_Driver/Src/stm32f4xx_hal_spi.c ****   HAL_SPI_ErrorCallback(hspi);
 5643              		.loc 1 2992 3
 5644 001a F868     		ldr	r0, [r7, #12]
 5645 001c FFF7FEFF 		bl	HAL_SPI_ErrorCallback
2993:Drivers/STM32F4xx_HAL_Driver/Src/stm32f4xx_hal_spi.c **** #endif /* USE_HAL_SPI_REGISTER_CALLBACKS */
2994:Drivers/STM32F4xx_HAL_Driver/Src/stm32f4xx_hal_spi.c **** }
 5646              		.loc 1 2994 1
 5647 0020 00BF     		nop
 5648 0022 1037     		adds	r7, r7, #16
 5649              	.LCFI199:
 5650              		.cfi_def_cfa_offset 8
 5651 0024 BD46     		mov	sp, r7
 5652              	.LCFI200:
 5653              		.cfi_def_cfa_register 13
 5654              		@ sp needed
 5655 0026 80BD     		pop	{r7, pc}
 5656              		.cfi_endproc
 5657              	.LFE275:
 5659              		.section	.text.SPI_DMATxAbortCallback,"ax",%progbits
 5660              		.align	1
ARM GAS  C:\Users\16323\AppData\Local\Temp\ccbQ7VoP.s 			page 152


 5661              		.syntax unified
 5662              		.thumb
 5663              		.thumb_func
 5665              	SPI_DMATxAbortCallback:
 5666              	.LFB276:
2995:Drivers/STM32F4xx_HAL_Driver/Src/stm32f4xx_hal_spi.c **** 
2996:Drivers/STM32F4xx_HAL_Driver/Src/stm32f4xx_hal_spi.c **** /**
2997:Drivers/STM32F4xx_HAL_Driver/Src/stm32f4xx_hal_spi.c ****   * @brief  DMA SPI Tx communication abort callback, when initiated by user
2998:Drivers/STM32F4xx_HAL_Driver/Src/stm32f4xx_hal_spi.c ****   *         (To be called at end of DMA Tx Abort procedure following user abort request).
2999:Drivers/STM32F4xx_HAL_Driver/Src/stm32f4xx_hal_spi.c ****   * @note   When this callback is executed, User Abort complete call back is called only if no
3000:Drivers/STM32F4xx_HAL_Driver/Src/stm32f4xx_hal_spi.c ****   *         Abort still ongoing for Rx DMA Handle.
3001:Drivers/STM32F4xx_HAL_Driver/Src/stm32f4xx_hal_spi.c ****   * @param  hdma DMA handle.
3002:Drivers/STM32F4xx_HAL_Driver/Src/stm32f4xx_hal_spi.c ****   * @retval None
3003:Drivers/STM32F4xx_HAL_Driver/Src/stm32f4xx_hal_spi.c ****   */
3004:Drivers/STM32F4xx_HAL_Driver/Src/stm32f4xx_hal_spi.c **** static void SPI_DMATxAbortCallback(DMA_HandleTypeDef *hdma)
3005:Drivers/STM32F4xx_HAL_Driver/Src/stm32f4xx_hal_spi.c **** {
 5667              		.loc 1 3005 1
 5668              		.cfi_startproc
 5669              		@ args = 0, pretend = 0, frame = 24
 5670              		@ frame_needed = 1, uses_anonymous_args = 0
 5671 0000 80B5     		push	{r7, lr}
 5672              	.LCFI201:
 5673              		.cfi_def_cfa_offset 8
 5674              		.cfi_offset 7, -8
 5675              		.cfi_offset 14, -4
 5676 0002 86B0     		sub	sp, sp, #24
 5677              	.LCFI202:
 5678              		.cfi_def_cfa_offset 32
 5679 0004 00AF     		add	r7, sp, #0
 5680              	.LCFI203:
 5681              		.cfi_def_cfa_register 7
 5682 0006 7860     		str	r0, [r7, #4]
3006:Drivers/STM32F4xx_HAL_Driver/Src/stm32f4xx_hal_spi.c ****   SPI_HandleTypeDef *hspi = (SPI_HandleTypeDef *)(((DMA_HandleTypeDef *)hdma)->Parent); /* Derogati
 5683              		.loc 1 3006 22
 5684 0008 7B68     		ldr	r3, [r7, #4]
 5685 000a 9B6B     		ldr	r3, [r3, #56]
 5686 000c 7B61     		str	r3, [r7, #20]
3007:Drivers/STM32F4xx_HAL_Driver/Src/stm32f4xx_hal_spi.c ****   __IO uint32_t count;
3008:Drivers/STM32F4xx_HAL_Driver/Src/stm32f4xx_hal_spi.c **** 
3009:Drivers/STM32F4xx_HAL_Driver/Src/stm32f4xx_hal_spi.c ****   hspi->hdmatx->XferAbortCallback = NULL;
 5687              		.loc 1 3009 7
 5688 000e 7B69     		ldr	r3, [r7, #20]
 5689 0010 9B6C     		ldr	r3, [r3, #72]
 5690              		.loc 1 3009 35
 5691 0012 0022     		movs	r2, #0
 5692 0014 1A65     		str	r2, [r3, #80]
3010:Drivers/STM32F4xx_HAL_Driver/Src/stm32f4xx_hal_spi.c ****   count = SPI_DEFAULT_TIMEOUT * (SystemCoreClock / 24U / 1000U);
 5693              		.loc 1 3010 56
 5694 0016 2D4B     		ldr	r3, .L277
 5695 0018 1B68     		ldr	r3, [r3]
 5696 001a 2D4A     		ldr	r2, .L277+4
 5697 001c A2FB0323 		umull	r2, r3, r2, r3
 5698 0020 5B0A     		lsrs	r3, r3, #9
 5699              		.loc 1 3010 31
 5700 0022 6422     		movs	r2, #100
 5701 0024 02FB03F3 		mul	r3, r2, r3
 5702              		.loc 1 3010 9
ARM GAS  C:\Users\16323\AppData\Local\Temp\ccbQ7VoP.s 			page 153


 5703 0028 3B61     		str	r3, [r7, #16]
3011:Drivers/STM32F4xx_HAL_Driver/Src/stm32f4xx_hal_spi.c **** 
3012:Drivers/STM32F4xx_HAL_Driver/Src/stm32f4xx_hal_spi.c ****   /* Disable Tx DMA Request */
3013:Drivers/STM32F4xx_HAL_Driver/Src/stm32f4xx_hal_spi.c ****   CLEAR_BIT(hspi->Instance->CR2, SPI_CR2_TXDMAEN);
 5704              		.loc 1 3013 3
 5705 002a 7B69     		ldr	r3, [r7, #20]
 5706 002c 1B68     		ldr	r3, [r3]
 5707 002e 5A68     		ldr	r2, [r3, #4]
 5708 0030 7B69     		ldr	r3, [r7, #20]
 5709 0032 1B68     		ldr	r3, [r3]
 5710 0034 22F00202 		bic	r2, r2, #2
 5711 0038 5A60     		str	r2, [r3, #4]
 5712              	.L272:
3014:Drivers/STM32F4xx_HAL_Driver/Src/stm32f4xx_hal_spi.c **** 
3015:Drivers/STM32F4xx_HAL_Driver/Src/stm32f4xx_hal_spi.c ****   /* Wait until TXE flag is set */
3016:Drivers/STM32F4xx_HAL_Driver/Src/stm32f4xx_hal_spi.c ****   do
3017:Drivers/STM32F4xx_HAL_Driver/Src/stm32f4xx_hal_spi.c ****   {
3018:Drivers/STM32F4xx_HAL_Driver/Src/stm32f4xx_hal_spi.c ****     if (count == 0U)
 5713              		.loc 1 3018 15
 5714 003a 3B69     		ldr	r3, [r7, #16]
 5715              		.loc 1 3018 8
 5716 003c 002B     		cmp	r3, #0
 5717 003e 06D1     		bne	.L270
3019:Drivers/STM32F4xx_HAL_Driver/Src/stm32f4xx_hal_spi.c ****     {
3020:Drivers/STM32F4xx_HAL_Driver/Src/stm32f4xx_hal_spi.c ****       SET_BIT(hspi->ErrorCode, HAL_SPI_ERROR_ABORT);
 5718              		.loc 1 3020 7
 5719 0040 7B69     		ldr	r3, [r7, #20]
 5720 0042 5B6D     		ldr	r3, [r3, #84]
 5721 0044 43F04002 		orr	r2, r3, #64
 5722 0048 7B69     		ldr	r3, [r7, #20]
 5723 004a 5A65     		str	r2, [r3, #84]
3021:Drivers/STM32F4xx_HAL_Driver/Src/stm32f4xx_hal_spi.c ****       break;
 5724              		.loc 1 3021 7
 5725 004c 09E0     		b	.L271
 5726              	.L270:
3022:Drivers/STM32F4xx_HAL_Driver/Src/stm32f4xx_hal_spi.c ****     }
3023:Drivers/STM32F4xx_HAL_Driver/Src/stm32f4xx_hal_spi.c ****     count--;
 5727              		.loc 1 3023 10
 5728 004e 3B69     		ldr	r3, [r7, #16]
 5729 0050 013B     		subs	r3, r3, #1
 5730 0052 3B61     		str	r3, [r7, #16]
3024:Drivers/STM32F4xx_HAL_Driver/Src/stm32f4xx_hal_spi.c ****   } while ((hspi->Instance->SR & SPI_FLAG_TXE) == RESET);
 5731              		.loc 1 3024 17
 5732 0054 7B69     		ldr	r3, [r7, #20]
 5733 0056 1B68     		ldr	r3, [r3]
 5734              		.loc 1 3024 27
 5735 0058 9B68     		ldr	r3, [r3, #8]
 5736              		.loc 1 3024 32
 5737 005a 03F00203 		and	r3, r3, #2
 5738              		.loc 1 3024 3
 5739 005e 002B     		cmp	r3, #0
 5740 0060 EBD0     		beq	.L272
 5741              	.L271:
3025:Drivers/STM32F4xx_HAL_Driver/Src/stm32f4xx_hal_spi.c **** 
3026:Drivers/STM32F4xx_HAL_Driver/Src/stm32f4xx_hal_spi.c ****   /* Check if an Abort process is still ongoing */
3027:Drivers/STM32F4xx_HAL_Driver/Src/stm32f4xx_hal_spi.c ****   if (hspi->hdmarx != NULL)
 5742              		.loc 1 3027 11
ARM GAS  C:\Users\16323\AppData\Local\Temp\ccbQ7VoP.s 			page 154


 5743 0062 7B69     		ldr	r3, [r7, #20]
 5744 0064 DB6C     		ldr	r3, [r3, #76]
 5745              		.loc 1 3027 6
 5746 0066 002B     		cmp	r3, #0
 5747 0068 04D0     		beq	.L273
3028:Drivers/STM32F4xx_HAL_Driver/Src/stm32f4xx_hal_spi.c ****   {
3029:Drivers/STM32F4xx_HAL_Driver/Src/stm32f4xx_hal_spi.c ****     if (hspi->hdmarx->XferAbortCallback != NULL)
 5748              		.loc 1 3029 13
 5749 006a 7B69     		ldr	r3, [r7, #20]
 5750 006c DB6C     		ldr	r3, [r3, #76]
 5751              		.loc 1 3029 21
 5752 006e 1B6D     		ldr	r3, [r3, #80]
 5753              		.loc 1 3029 8
 5754 0070 002B     		cmp	r3, #0
 5755 0072 26D1     		bne	.L276
 5756              	.L273:
3030:Drivers/STM32F4xx_HAL_Driver/Src/stm32f4xx_hal_spi.c ****     {
3031:Drivers/STM32F4xx_HAL_Driver/Src/stm32f4xx_hal_spi.c ****       return;
3032:Drivers/STM32F4xx_HAL_Driver/Src/stm32f4xx_hal_spi.c ****     }
3033:Drivers/STM32F4xx_HAL_Driver/Src/stm32f4xx_hal_spi.c ****   }
3034:Drivers/STM32F4xx_HAL_Driver/Src/stm32f4xx_hal_spi.c **** 
3035:Drivers/STM32F4xx_HAL_Driver/Src/stm32f4xx_hal_spi.c ****   /* No Abort process still ongoing : All DMA Stream/Channel are aborted, call user Abort Complete 
3036:Drivers/STM32F4xx_HAL_Driver/Src/stm32f4xx_hal_spi.c ****   hspi->RxXferCount = 0U;
 5757              		.loc 1 3036 21
 5758 0074 7B69     		ldr	r3, [r7, #20]
 5759 0076 0022     		movs	r2, #0
 5760 0078 DA87     		strh	r2, [r3, #62]	@ movhi
3037:Drivers/STM32F4xx_HAL_Driver/Src/stm32f4xx_hal_spi.c ****   hspi->TxXferCount = 0U;
 5761              		.loc 1 3037 21
 5762 007a 7B69     		ldr	r3, [r7, #20]
 5763 007c 0022     		movs	r2, #0
 5764 007e DA86     		strh	r2, [r3, #54]	@ movhi
3038:Drivers/STM32F4xx_HAL_Driver/Src/stm32f4xx_hal_spi.c **** 
3039:Drivers/STM32F4xx_HAL_Driver/Src/stm32f4xx_hal_spi.c ****   /* Check no error during Abort procedure */
3040:Drivers/STM32F4xx_HAL_Driver/Src/stm32f4xx_hal_spi.c ****   if (hspi->ErrorCode != HAL_SPI_ERROR_ABORT)
 5765              		.loc 1 3040 11
 5766 0080 7B69     		ldr	r3, [r7, #20]
 5767 0082 5B6D     		ldr	r3, [r3, #84]
 5768              		.loc 1 3040 6
 5769 0084 402B     		cmp	r3, #64
 5770 0086 02D0     		beq	.L275
3041:Drivers/STM32F4xx_HAL_Driver/Src/stm32f4xx_hal_spi.c ****   {
3042:Drivers/STM32F4xx_HAL_Driver/Src/stm32f4xx_hal_spi.c ****     /* Reset errorCode */
3043:Drivers/STM32F4xx_HAL_Driver/Src/stm32f4xx_hal_spi.c ****     hspi->ErrorCode = HAL_SPI_ERROR_NONE;
 5771              		.loc 1 3043 21
 5772 0088 7B69     		ldr	r3, [r7, #20]
 5773 008a 0022     		movs	r2, #0
 5774 008c 5A65     		str	r2, [r3, #84]
 5775              	.L275:
 5776              	.LBB13:
3044:Drivers/STM32F4xx_HAL_Driver/Src/stm32f4xx_hal_spi.c ****   }
3045:Drivers/STM32F4xx_HAL_Driver/Src/stm32f4xx_hal_spi.c **** 
3046:Drivers/STM32F4xx_HAL_Driver/Src/stm32f4xx_hal_spi.c ****   /* Clear the Error flags in the SR register */
3047:Drivers/STM32F4xx_HAL_Driver/Src/stm32f4xx_hal_spi.c ****   __HAL_SPI_CLEAR_OVRFLAG(hspi);
 5777              		.loc 1 3047 3
 5778 008e 0023     		movs	r3, #0
 5779 0090 FB60     		str	r3, [r7, #12]
ARM GAS  C:\Users\16323\AppData\Local\Temp\ccbQ7VoP.s 			page 155


 5780 0092 7B69     		ldr	r3, [r7, #20]
 5781 0094 1B68     		ldr	r3, [r3]
 5782 0096 DB68     		ldr	r3, [r3, #12]
 5783 0098 FB60     		str	r3, [r7, #12]
 5784 009a 7B69     		ldr	r3, [r7, #20]
 5785 009c 1B68     		ldr	r3, [r3]
 5786 009e 9B68     		ldr	r3, [r3, #8]
 5787 00a0 FB60     		str	r3, [r7, #12]
 5788 00a2 FB68     		ldr	r3, [r7, #12]
 5789              	.LBE13:
 5790              	.LBB14:
3048:Drivers/STM32F4xx_HAL_Driver/Src/stm32f4xx_hal_spi.c ****   __HAL_SPI_CLEAR_FREFLAG(hspi);
 5791              		.loc 1 3048 3
 5792 00a4 0023     		movs	r3, #0
 5793 00a6 BB60     		str	r3, [r7, #8]
 5794 00a8 7B69     		ldr	r3, [r7, #20]
 5795 00aa 1B68     		ldr	r3, [r3]
 5796 00ac 9B68     		ldr	r3, [r3, #8]
 5797 00ae BB60     		str	r3, [r7, #8]
 5798 00b0 BB68     		ldr	r3, [r7, #8]
 5799              	.LBE14:
3049:Drivers/STM32F4xx_HAL_Driver/Src/stm32f4xx_hal_spi.c **** 
3050:Drivers/STM32F4xx_HAL_Driver/Src/stm32f4xx_hal_spi.c ****   /* Restore hspi->State to Ready */
3051:Drivers/STM32F4xx_HAL_Driver/Src/stm32f4xx_hal_spi.c ****   hspi->State  = HAL_SPI_STATE_READY;
 5800              		.loc 1 3051 16
 5801 00b2 7B69     		ldr	r3, [r7, #20]
 5802 00b4 0122     		movs	r2, #1
 5803 00b6 83F85120 		strb	r2, [r3, #81]
3052:Drivers/STM32F4xx_HAL_Driver/Src/stm32f4xx_hal_spi.c **** 
3053:Drivers/STM32F4xx_HAL_Driver/Src/stm32f4xx_hal_spi.c ****   /* Call user Abort complete callback */
3054:Drivers/STM32F4xx_HAL_Driver/Src/stm32f4xx_hal_spi.c **** #if (USE_HAL_SPI_REGISTER_CALLBACKS == 1U)
3055:Drivers/STM32F4xx_HAL_Driver/Src/stm32f4xx_hal_spi.c ****   hspi->AbortCpltCallback(hspi);
3056:Drivers/STM32F4xx_HAL_Driver/Src/stm32f4xx_hal_spi.c **** #else
3057:Drivers/STM32F4xx_HAL_Driver/Src/stm32f4xx_hal_spi.c ****   HAL_SPI_AbortCpltCallback(hspi);
 5804              		.loc 1 3057 3
 5805 00ba 7869     		ldr	r0, [r7, #20]
 5806 00bc FFF7FEFF 		bl	HAL_SPI_AbortCpltCallback
 5807 00c0 00E0     		b	.L269
 5808              	.L276:
3031:Drivers/STM32F4xx_HAL_Driver/Src/stm32f4xx_hal_spi.c ****     }
 5809              		.loc 1 3031 7
 5810 00c2 00BF     		nop
 5811              	.L269:
3058:Drivers/STM32F4xx_HAL_Driver/Src/stm32f4xx_hal_spi.c **** #endif /* USE_HAL_SPI_REGISTER_CALLBACKS */
3059:Drivers/STM32F4xx_HAL_Driver/Src/stm32f4xx_hal_spi.c **** }
 5812              		.loc 1 3059 1
 5813 00c4 1837     		adds	r7, r7, #24
 5814              	.LCFI204:
 5815              		.cfi_def_cfa_offset 8
 5816 00c6 BD46     		mov	sp, r7
 5817              	.LCFI205:
 5818              		.cfi_def_cfa_register 13
 5819              		@ sp needed
 5820 00c8 80BD     		pop	{r7, pc}
 5821              	.L278:
 5822 00ca 00BF     		.align	2
 5823              	.L277:
ARM GAS  C:\Users\16323\AppData\Local\Temp\ccbQ7VoP.s 			page 156


 5824 00cc 00000000 		.word	SystemCoreClock
 5825 00d0 F1197605 		.word	91625969
 5826              		.cfi_endproc
 5827              	.LFE276:
 5829              		.section	.text.SPI_DMARxAbortCallback,"ax",%progbits
 5830              		.align	1
 5831              		.syntax unified
 5832              		.thumb
 5833              		.thumb_func
 5835              	SPI_DMARxAbortCallback:
 5836              	.LFB277:
3060:Drivers/STM32F4xx_HAL_Driver/Src/stm32f4xx_hal_spi.c **** 
3061:Drivers/STM32F4xx_HAL_Driver/Src/stm32f4xx_hal_spi.c **** /**
3062:Drivers/STM32F4xx_HAL_Driver/Src/stm32f4xx_hal_spi.c ****   * @brief  DMA SPI Rx communication abort callback, when initiated by user
3063:Drivers/STM32F4xx_HAL_Driver/Src/stm32f4xx_hal_spi.c ****   *         (To be called at end of DMA Rx Abort procedure following user abort request).
3064:Drivers/STM32F4xx_HAL_Driver/Src/stm32f4xx_hal_spi.c ****   * @note   When this callback is executed, User Abort complete call back is called only if no
3065:Drivers/STM32F4xx_HAL_Driver/Src/stm32f4xx_hal_spi.c ****   *         Abort still ongoing for Tx DMA Handle.
3066:Drivers/STM32F4xx_HAL_Driver/Src/stm32f4xx_hal_spi.c ****   * @param  hdma DMA handle.
3067:Drivers/STM32F4xx_HAL_Driver/Src/stm32f4xx_hal_spi.c ****   * @retval None
3068:Drivers/STM32F4xx_HAL_Driver/Src/stm32f4xx_hal_spi.c ****   */
3069:Drivers/STM32F4xx_HAL_Driver/Src/stm32f4xx_hal_spi.c **** static void SPI_DMARxAbortCallback(DMA_HandleTypeDef *hdma)
3070:Drivers/STM32F4xx_HAL_Driver/Src/stm32f4xx_hal_spi.c **** {
 5837              		.loc 1 3070 1
 5838              		.cfi_startproc
 5839              		@ args = 0, pretend = 0, frame = 24
 5840              		@ frame_needed = 1, uses_anonymous_args = 0
 5841 0000 80B5     		push	{r7, lr}
 5842              	.LCFI206:
 5843              		.cfi_def_cfa_offset 8
 5844              		.cfi_offset 7, -8
 5845              		.cfi_offset 14, -4
 5846 0002 86B0     		sub	sp, sp, #24
 5847              	.LCFI207:
 5848              		.cfi_def_cfa_offset 32
 5849 0004 00AF     		add	r7, sp, #0
 5850              	.LCFI208:
 5851              		.cfi_def_cfa_register 7
 5852 0006 7860     		str	r0, [r7, #4]
3071:Drivers/STM32F4xx_HAL_Driver/Src/stm32f4xx_hal_spi.c ****   SPI_HandleTypeDef *hspi = (SPI_HandleTypeDef *)(((DMA_HandleTypeDef *)hdma)->Parent); /* Derogati
 5853              		.loc 1 3071 22
 5854 0008 7B68     		ldr	r3, [r7, #4]
 5855 000a 9B6B     		ldr	r3, [r3, #56]
 5856 000c 7B61     		str	r3, [r7, #20]
3072:Drivers/STM32F4xx_HAL_Driver/Src/stm32f4xx_hal_spi.c **** 
3073:Drivers/STM32F4xx_HAL_Driver/Src/stm32f4xx_hal_spi.c ****   /* Disable SPI Peripheral */
3074:Drivers/STM32F4xx_HAL_Driver/Src/stm32f4xx_hal_spi.c ****   __HAL_SPI_DISABLE(hspi);
 5857              		.loc 1 3074 3
 5858 000e 7B69     		ldr	r3, [r7, #20]
 5859 0010 1B68     		ldr	r3, [r3]
 5860 0012 1A68     		ldr	r2, [r3]
 5861 0014 7B69     		ldr	r3, [r7, #20]
 5862 0016 1B68     		ldr	r3, [r3]
 5863 0018 22F04002 		bic	r2, r2, #64
 5864 001c 1A60     		str	r2, [r3]
3075:Drivers/STM32F4xx_HAL_Driver/Src/stm32f4xx_hal_spi.c **** 
3076:Drivers/STM32F4xx_HAL_Driver/Src/stm32f4xx_hal_spi.c ****   hspi->hdmarx->XferAbortCallback = NULL;
 5865              		.loc 1 3076 7
ARM GAS  C:\Users\16323\AppData\Local\Temp\ccbQ7VoP.s 			page 157


 5866 001e 7B69     		ldr	r3, [r7, #20]
 5867 0020 DB6C     		ldr	r3, [r3, #76]
 5868              		.loc 1 3076 35
 5869 0022 0022     		movs	r2, #0
 5870 0024 1A65     		str	r2, [r3, #80]
3077:Drivers/STM32F4xx_HAL_Driver/Src/stm32f4xx_hal_spi.c **** 
3078:Drivers/STM32F4xx_HAL_Driver/Src/stm32f4xx_hal_spi.c ****   /* Disable Rx DMA Request */
3079:Drivers/STM32F4xx_HAL_Driver/Src/stm32f4xx_hal_spi.c ****   CLEAR_BIT(hspi->Instance->CR2, SPI_CR2_RXDMAEN);
 5871              		.loc 1 3079 3
 5872 0026 7B69     		ldr	r3, [r7, #20]
 5873 0028 1B68     		ldr	r3, [r3]
 5874 002a 5A68     		ldr	r2, [r3, #4]
 5875 002c 7B69     		ldr	r3, [r7, #20]
 5876 002e 1B68     		ldr	r3, [r3]
 5877 0030 22F00102 		bic	r2, r2, #1
 5878 0034 5A60     		str	r2, [r3, #4]
3080:Drivers/STM32F4xx_HAL_Driver/Src/stm32f4xx_hal_spi.c **** 
3081:Drivers/STM32F4xx_HAL_Driver/Src/stm32f4xx_hal_spi.c ****   /* Check Busy flag */
3082:Drivers/STM32F4xx_HAL_Driver/Src/stm32f4xx_hal_spi.c ****   if (SPI_EndRxTxTransaction(hspi, SPI_DEFAULT_TIMEOUT, HAL_GetTick()) != HAL_OK)
 5879              		.loc 1 3082 7
 5880 0036 FFF7FEFF 		bl	HAL_GetTick
 5881 003a 0346     		mov	r3, r0
 5882 003c 1A46     		mov	r2, r3
 5883 003e 6421     		movs	r1, #100
 5884 0040 7869     		ldr	r0, [r7, #20]
 5885 0042 FFF7FEFF 		bl	SPI_EndRxTxTransaction
 5886 0046 0346     		mov	r3, r0
 5887              		.loc 1 3082 6
 5888 0048 002B     		cmp	r3, #0
 5889 004a 05D0     		beq	.L280
3083:Drivers/STM32F4xx_HAL_Driver/Src/stm32f4xx_hal_spi.c ****   {
3084:Drivers/STM32F4xx_HAL_Driver/Src/stm32f4xx_hal_spi.c ****     SET_BIT(hspi->ErrorCode, HAL_SPI_ERROR_ABORT);
 5890              		.loc 1 3084 5
 5891 004c 7B69     		ldr	r3, [r7, #20]
 5892 004e 5B6D     		ldr	r3, [r3, #84]
 5893 0050 43F04002 		orr	r2, r3, #64
 5894 0054 7B69     		ldr	r3, [r7, #20]
 5895 0056 5A65     		str	r2, [r3, #84]
 5896              	.L280:
3085:Drivers/STM32F4xx_HAL_Driver/Src/stm32f4xx_hal_spi.c ****   }
3086:Drivers/STM32F4xx_HAL_Driver/Src/stm32f4xx_hal_spi.c **** 
3087:Drivers/STM32F4xx_HAL_Driver/Src/stm32f4xx_hal_spi.c ****   /* Check if an Abort process is still ongoing */
3088:Drivers/STM32F4xx_HAL_Driver/Src/stm32f4xx_hal_spi.c ****   if (hspi->hdmatx != NULL)
 5897              		.loc 1 3088 11
 5898 0058 7B69     		ldr	r3, [r7, #20]
 5899 005a 9B6C     		ldr	r3, [r3, #72]
 5900              		.loc 1 3088 6
 5901 005c 002B     		cmp	r3, #0
 5902 005e 04D0     		beq	.L281
3089:Drivers/STM32F4xx_HAL_Driver/Src/stm32f4xx_hal_spi.c ****   {
3090:Drivers/STM32F4xx_HAL_Driver/Src/stm32f4xx_hal_spi.c ****     if (hspi->hdmatx->XferAbortCallback != NULL)
 5903              		.loc 1 3090 13
 5904 0060 7B69     		ldr	r3, [r7, #20]
 5905 0062 9B6C     		ldr	r3, [r3, #72]
 5906              		.loc 1 3090 21
 5907 0064 1B6D     		ldr	r3, [r3, #80]
 5908              		.loc 1 3090 8
ARM GAS  C:\Users\16323\AppData\Local\Temp\ccbQ7VoP.s 			page 158


 5909 0066 002B     		cmp	r3, #0
 5910 0068 26D1     		bne	.L284
 5911              	.L281:
3091:Drivers/STM32F4xx_HAL_Driver/Src/stm32f4xx_hal_spi.c ****     {
3092:Drivers/STM32F4xx_HAL_Driver/Src/stm32f4xx_hal_spi.c ****       return;
3093:Drivers/STM32F4xx_HAL_Driver/Src/stm32f4xx_hal_spi.c ****     }
3094:Drivers/STM32F4xx_HAL_Driver/Src/stm32f4xx_hal_spi.c ****   }
3095:Drivers/STM32F4xx_HAL_Driver/Src/stm32f4xx_hal_spi.c **** 
3096:Drivers/STM32F4xx_HAL_Driver/Src/stm32f4xx_hal_spi.c ****   /* No Abort process still ongoing : All DMA Stream/Channel are aborted, call user Abort Complete 
3097:Drivers/STM32F4xx_HAL_Driver/Src/stm32f4xx_hal_spi.c ****   hspi->RxXferCount = 0U;
 5912              		.loc 1 3097 21
 5913 006a 7B69     		ldr	r3, [r7, #20]
 5914 006c 0022     		movs	r2, #0
 5915 006e DA87     		strh	r2, [r3, #62]	@ movhi
3098:Drivers/STM32F4xx_HAL_Driver/Src/stm32f4xx_hal_spi.c ****   hspi->TxXferCount = 0U;
 5916              		.loc 1 3098 21
 5917 0070 7B69     		ldr	r3, [r7, #20]
 5918 0072 0022     		movs	r2, #0
 5919 0074 DA86     		strh	r2, [r3, #54]	@ movhi
3099:Drivers/STM32F4xx_HAL_Driver/Src/stm32f4xx_hal_spi.c **** 
3100:Drivers/STM32F4xx_HAL_Driver/Src/stm32f4xx_hal_spi.c ****   /* Check no error during Abort procedure */
3101:Drivers/STM32F4xx_HAL_Driver/Src/stm32f4xx_hal_spi.c ****   if (hspi->ErrorCode != HAL_SPI_ERROR_ABORT)
 5920              		.loc 1 3101 11
 5921 0076 7B69     		ldr	r3, [r7, #20]
 5922 0078 5B6D     		ldr	r3, [r3, #84]
 5923              		.loc 1 3101 6
 5924 007a 402B     		cmp	r3, #64
 5925 007c 02D0     		beq	.L283
3102:Drivers/STM32F4xx_HAL_Driver/Src/stm32f4xx_hal_spi.c ****   {
3103:Drivers/STM32F4xx_HAL_Driver/Src/stm32f4xx_hal_spi.c ****     /* Reset errorCode */
3104:Drivers/STM32F4xx_HAL_Driver/Src/stm32f4xx_hal_spi.c ****     hspi->ErrorCode = HAL_SPI_ERROR_NONE;
 5926              		.loc 1 3104 21
 5927 007e 7B69     		ldr	r3, [r7, #20]
 5928 0080 0022     		movs	r2, #0
 5929 0082 5A65     		str	r2, [r3, #84]
 5930              	.L283:
 5931              	.LBB15:
3105:Drivers/STM32F4xx_HAL_Driver/Src/stm32f4xx_hal_spi.c ****   }
3106:Drivers/STM32F4xx_HAL_Driver/Src/stm32f4xx_hal_spi.c **** 
3107:Drivers/STM32F4xx_HAL_Driver/Src/stm32f4xx_hal_spi.c ****   /* Clear the Error flags in the SR register */
3108:Drivers/STM32F4xx_HAL_Driver/Src/stm32f4xx_hal_spi.c ****   __HAL_SPI_CLEAR_OVRFLAG(hspi);
 5932              		.loc 1 3108 3
 5933 0084 0023     		movs	r3, #0
 5934 0086 3B61     		str	r3, [r7, #16]
 5935 0088 7B69     		ldr	r3, [r7, #20]
 5936 008a 1B68     		ldr	r3, [r3]
 5937 008c DB68     		ldr	r3, [r3, #12]
 5938 008e 3B61     		str	r3, [r7, #16]
 5939 0090 7B69     		ldr	r3, [r7, #20]
 5940 0092 1B68     		ldr	r3, [r3]
 5941 0094 9B68     		ldr	r3, [r3, #8]
 5942 0096 3B61     		str	r3, [r7, #16]
 5943 0098 3B69     		ldr	r3, [r7, #16]
 5944              	.LBE15:
 5945              	.LBB16:
3109:Drivers/STM32F4xx_HAL_Driver/Src/stm32f4xx_hal_spi.c ****   __HAL_SPI_CLEAR_FREFLAG(hspi);
 5946              		.loc 1 3109 3
ARM GAS  C:\Users\16323\AppData\Local\Temp\ccbQ7VoP.s 			page 159


 5947 009a 0023     		movs	r3, #0
 5948 009c FB60     		str	r3, [r7, #12]
 5949 009e 7B69     		ldr	r3, [r7, #20]
 5950 00a0 1B68     		ldr	r3, [r3]
 5951 00a2 9B68     		ldr	r3, [r3, #8]
 5952 00a4 FB60     		str	r3, [r7, #12]
 5953 00a6 FB68     		ldr	r3, [r7, #12]
 5954              	.LBE16:
3110:Drivers/STM32F4xx_HAL_Driver/Src/stm32f4xx_hal_spi.c **** 
3111:Drivers/STM32F4xx_HAL_Driver/Src/stm32f4xx_hal_spi.c ****   /* Restore hspi->State to Ready */
3112:Drivers/STM32F4xx_HAL_Driver/Src/stm32f4xx_hal_spi.c ****   hspi->State  = HAL_SPI_STATE_READY;
 5955              		.loc 1 3112 16
 5956 00a8 7B69     		ldr	r3, [r7, #20]
 5957 00aa 0122     		movs	r2, #1
 5958 00ac 83F85120 		strb	r2, [r3, #81]
3113:Drivers/STM32F4xx_HAL_Driver/Src/stm32f4xx_hal_spi.c **** 
3114:Drivers/STM32F4xx_HAL_Driver/Src/stm32f4xx_hal_spi.c ****   /* Call user Abort complete callback */
3115:Drivers/STM32F4xx_HAL_Driver/Src/stm32f4xx_hal_spi.c **** #if (USE_HAL_SPI_REGISTER_CALLBACKS == 1U)
3116:Drivers/STM32F4xx_HAL_Driver/Src/stm32f4xx_hal_spi.c ****   hspi->AbortCpltCallback(hspi);
3117:Drivers/STM32F4xx_HAL_Driver/Src/stm32f4xx_hal_spi.c **** #else
3118:Drivers/STM32F4xx_HAL_Driver/Src/stm32f4xx_hal_spi.c ****   HAL_SPI_AbortCpltCallback(hspi);
 5959              		.loc 1 3118 3
 5960 00b0 7869     		ldr	r0, [r7, #20]
 5961 00b2 FFF7FEFF 		bl	HAL_SPI_AbortCpltCallback
 5962 00b6 00E0     		b	.L279
 5963              	.L284:
3092:Drivers/STM32F4xx_HAL_Driver/Src/stm32f4xx_hal_spi.c ****     }
 5964              		.loc 1 3092 7
 5965 00b8 00BF     		nop
 5966              	.L279:
3119:Drivers/STM32F4xx_HAL_Driver/Src/stm32f4xx_hal_spi.c **** #endif /* USE_HAL_SPI_REGISTER_CALLBACKS */
3120:Drivers/STM32F4xx_HAL_Driver/Src/stm32f4xx_hal_spi.c **** }
 5967              		.loc 1 3120 1
 5968 00ba 1837     		adds	r7, r7, #24
 5969              	.LCFI209:
 5970              		.cfi_def_cfa_offset 8
 5971 00bc BD46     		mov	sp, r7
 5972              	.LCFI210:
 5973              		.cfi_def_cfa_register 13
 5974              		@ sp needed
 5975 00be 80BD     		pop	{r7, pc}
 5976              		.cfi_endproc
 5977              	.LFE277:
 5979              		.section	.text.SPI_2linesRxISR_8BIT,"ax",%progbits
 5980              		.align	1
 5981              		.syntax unified
 5982              		.thumb
 5983              		.thumb_func
 5985              	SPI_2linesRxISR_8BIT:
 5986              	.LFB278:
3121:Drivers/STM32F4xx_HAL_Driver/Src/stm32f4xx_hal_spi.c **** 
3122:Drivers/STM32F4xx_HAL_Driver/Src/stm32f4xx_hal_spi.c **** /**
3123:Drivers/STM32F4xx_HAL_Driver/Src/stm32f4xx_hal_spi.c ****   * @brief  Rx 8-bit handler for Transmit and Receive in Interrupt mode.
3124:Drivers/STM32F4xx_HAL_Driver/Src/stm32f4xx_hal_spi.c ****   * @param  hspi pointer to a SPI_HandleTypeDef structure that contains
3125:Drivers/STM32F4xx_HAL_Driver/Src/stm32f4xx_hal_spi.c ****   *               the configuration information for SPI module.
3126:Drivers/STM32F4xx_HAL_Driver/Src/stm32f4xx_hal_spi.c ****   * @retval None
3127:Drivers/STM32F4xx_HAL_Driver/Src/stm32f4xx_hal_spi.c ****   */
ARM GAS  C:\Users\16323\AppData\Local\Temp\ccbQ7VoP.s 			page 160


3128:Drivers/STM32F4xx_HAL_Driver/Src/stm32f4xx_hal_spi.c **** static void SPI_2linesRxISR_8BIT(struct __SPI_HandleTypeDef *hspi)
3129:Drivers/STM32F4xx_HAL_Driver/Src/stm32f4xx_hal_spi.c **** {
 5987              		.loc 1 3129 1
 5988              		.cfi_startproc
 5989              		@ args = 0, pretend = 0, frame = 8
 5990              		@ frame_needed = 1, uses_anonymous_args = 0
 5991 0000 80B5     		push	{r7, lr}
 5992              	.LCFI211:
 5993              		.cfi_def_cfa_offset 8
 5994              		.cfi_offset 7, -8
 5995              		.cfi_offset 14, -4
 5996 0002 82B0     		sub	sp, sp, #8
 5997              	.LCFI212:
 5998              		.cfi_def_cfa_offset 16
 5999 0004 00AF     		add	r7, sp, #0
 6000              	.LCFI213:
 6001              		.cfi_def_cfa_register 7
 6002 0006 7860     		str	r0, [r7, #4]
3130:Drivers/STM32F4xx_HAL_Driver/Src/stm32f4xx_hal_spi.c ****   /* Receive data in 8bit mode */
3131:Drivers/STM32F4xx_HAL_Driver/Src/stm32f4xx_hal_spi.c ****   *hspi->pRxBuffPtr = *((__IO uint8_t *)&hspi->Instance->DR);
 6003              		.loc 1 3131 46
 6004 0008 7B68     		ldr	r3, [r7, #4]
 6005 000a 1B68     		ldr	r3, [r3]
 6006              		.loc 1 3131 41
 6007 000c 03F10C02 		add	r2, r3, #12
 6008              		.loc 1 3131 8
 6009 0010 7B68     		ldr	r3, [r7, #4]
 6010 0012 9B6B     		ldr	r3, [r3, #56]
 6011              		.loc 1 3131 23
 6012 0014 1278     		ldrb	r2, [r2]
 6013 0016 D2B2     		uxtb	r2, r2
 6014              		.loc 1 3131 21
 6015 0018 1A70     		strb	r2, [r3]
3132:Drivers/STM32F4xx_HAL_Driver/Src/stm32f4xx_hal_spi.c ****   hspi->pRxBuffPtr++;
 6016              		.loc 1 3132 7
 6017 001a 7B68     		ldr	r3, [r7, #4]
 6018 001c 9B6B     		ldr	r3, [r3, #56]
 6019              		.loc 1 3132 19
 6020 001e 5A1C     		adds	r2, r3, #1
 6021 0020 7B68     		ldr	r3, [r7, #4]
 6022 0022 9A63     		str	r2, [r3, #56]
3133:Drivers/STM32F4xx_HAL_Driver/Src/stm32f4xx_hal_spi.c ****   hspi->RxXferCount--;
 6023              		.loc 1 3133 7
 6024 0024 7B68     		ldr	r3, [r7, #4]
 6025 0026 DB8F     		ldrh	r3, [r3, #62]	@ movhi
 6026 0028 9BB2     		uxth	r3, r3
 6027              		.loc 1 3133 20
 6028 002a 013B     		subs	r3, r3, #1
 6029 002c 9AB2     		uxth	r2, r3
 6030 002e 7B68     		ldr	r3, [r7, #4]
 6031 0030 DA87     		strh	r2, [r3, #62]	@ movhi
3134:Drivers/STM32F4xx_HAL_Driver/Src/stm32f4xx_hal_spi.c **** 
3135:Drivers/STM32F4xx_HAL_Driver/Src/stm32f4xx_hal_spi.c ****   /* Check end of the reception */
3136:Drivers/STM32F4xx_HAL_Driver/Src/stm32f4xx_hal_spi.c ****   if (hspi->RxXferCount == 0U)
 6032              		.loc 1 3136 11
 6033 0032 7B68     		ldr	r3, [r7, #4]
 6034 0034 DB8F     		ldrh	r3, [r3, #62]	@ movhi
ARM GAS  C:\Users\16323\AppData\Local\Temp\ccbQ7VoP.s 			page 161


 6035 0036 9BB2     		uxth	r3, r3
 6036              		.loc 1 3136 6
 6037 0038 002B     		cmp	r3, #0
 6038 003a 0FD1     		bne	.L287
3137:Drivers/STM32F4xx_HAL_Driver/Src/stm32f4xx_hal_spi.c ****   {
3138:Drivers/STM32F4xx_HAL_Driver/Src/stm32f4xx_hal_spi.c **** #if (USE_SPI_CRC != 0U)
3139:Drivers/STM32F4xx_HAL_Driver/Src/stm32f4xx_hal_spi.c ****     if (hspi->Init.CRCCalculation == SPI_CRCCALCULATION_ENABLE)
3140:Drivers/STM32F4xx_HAL_Driver/Src/stm32f4xx_hal_spi.c ****     {
3141:Drivers/STM32F4xx_HAL_Driver/Src/stm32f4xx_hal_spi.c ****       hspi->RxISR =  SPI_2linesRxISR_8BITCRC;
3142:Drivers/STM32F4xx_HAL_Driver/Src/stm32f4xx_hal_spi.c ****       return;
3143:Drivers/STM32F4xx_HAL_Driver/Src/stm32f4xx_hal_spi.c ****     }
3144:Drivers/STM32F4xx_HAL_Driver/Src/stm32f4xx_hal_spi.c **** #endif /* USE_SPI_CRC */
3145:Drivers/STM32F4xx_HAL_Driver/Src/stm32f4xx_hal_spi.c **** 
3146:Drivers/STM32F4xx_HAL_Driver/Src/stm32f4xx_hal_spi.c ****     /* Disable RXNE  and ERR interrupt */
3147:Drivers/STM32F4xx_HAL_Driver/Src/stm32f4xx_hal_spi.c ****     __HAL_SPI_DISABLE_IT(hspi, (SPI_IT_RXNE | SPI_IT_ERR));
 6039              		.loc 1 3147 5
 6040 003c 7B68     		ldr	r3, [r7, #4]
 6041 003e 1B68     		ldr	r3, [r3]
 6042 0040 5A68     		ldr	r2, [r3, #4]
 6043 0042 7B68     		ldr	r3, [r7, #4]
 6044 0044 1B68     		ldr	r3, [r3]
 6045 0046 22F06002 		bic	r2, r2, #96
 6046 004a 5A60     		str	r2, [r3, #4]
3148:Drivers/STM32F4xx_HAL_Driver/Src/stm32f4xx_hal_spi.c **** 
3149:Drivers/STM32F4xx_HAL_Driver/Src/stm32f4xx_hal_spi.c ****     if (hspi->TxXferCount == 0U)
 6047              		.loc 1 3149 13
 6048 004c 7B68     		ldr	r3, [r7, #4]
 6049 004e DB8E     		ldrh	r3, [r3, #54]	@ movhi
 6050 0050 9BB2     		uxth	r3, r3
 6051              		.loc 1 3149 8
 6052 0052 002B     		cmp	r3, #0
 6053 0054 02D1     		bne	.L287
3150:Drivers/STM32F4xx_HAL_Driver/Src/stm32f4xx_hal_spi.c ****     {
3151:Drivers/STM32F4xx_HAL_Driver/Src/stm32f4xx_hal_spi.c ****       SPI_CloseRxTx_ISR(hspi);
 6054              		.loc 1 3151 7
 6055 0056 7868     		ldr	r0, [r7, #4]
 6056 0058 FFF7FEFF 		bl	SPI_CloseRxTx_ISR
 6057              	.L287:
3152:Drivers/STM32F4xx_HAL_Driver/Src/stm32f4xx_hal_spi.c ****     }
3153:Drivers/STM32F4xx_HAL_Driver/Src/stm32f4xx_hal_spi.c ****   }
3154:Drivers/STM32F4xx_HAL_Driver/Src/stm32f4xx_hal_spi.c **** }
 6058              		.loc 1 3154 1
 6059 005c 00BF     		nop
 6060 005e 0837     		adds	r7, r7, #8
 6061              	.LCFI214:
 6062              		.cfi_def_cfa_offset 8
 6063 0060 BD46     		mov	sp, r7
 6064              	.LCFI215:
 6065              		.cfi_def_cfa_register 13
 6066              		@ sp needed
 6067 0062 80BD     		pop	{r7, pc}
 6068              		.cfi_endproc
 6069              	.LFE278:
 6071              		.section	.text.SPI_2linesTxISR_8BIT,"ax",%progbits
 6072              		.align	1
 6073              		.syntax unified
 6074              		.thumb
ARM GAS  C:\Users\16323\AppData\Local\Temp\ccbQ7VoP.s 			page 162


 6075              		.thumb_func
 6077              	SPI_2linesTxISR_8BIT:
 6078              	.LFB279:
3155:Drivers/STM32F4xx_HAL_Driver/Src/stm32f4xx_hal_spi.c **** 
3156:Drivers/STM32F4xx_HAL_Driver/Src/stm32f4xx_hal_spi.c **** #if (USE_SPI_CRC != 0U)
3157:Drivers/STM32F4xx_HAL_Driver/Src/stm32f4xx_hal_spi.c **** /**
3158:Drivers/STM32F4xx_HAL_Driver/Src/stm32f4xx_hal_spi.c ****   * @brief  Rx 8-bit handler for Transmit and Receive in Interrupt mode.
3159:Drivers/STM32F4xx_HAL_Driver/Src/stm32f4xx_hal_spi.c ****   * @param  hspi pointer to a SPI_HandleTypeDef structure that contains
3160:Drivers/STM32F4xx_HAL_Driver/Src/stm32f4xx_hal_spi.c ****   *               the configuration information for SPI module.
3161:Drivers/STM32F4xx_HAL_Driver/Src/stm32f4xx_hal_spi.c ****   * @retval None
3162:Drivers/STM32F4xx_HAL_Driver/Src/stm32f4xx_hal_spi.c ****   */
3163:Drivers/STM32F4xx_HAL_Driver/Src/stm32f4xx_hal_spi.c **** static void SPI_2linesRxISR_8BITCRC(struct __SPI_HandleTypeDef *hspi)
3164:Drivers/STM32F4xx_HAL_Driver/Src/stm32f4xx_hal_spi.c **** {
3165:Drivers/STM32F4xx_HAL_Driver/Src/stm32f4xx_hal_spi.c ****   __IO uint8_t  *ptmpreg8;
3166:Drivers/STM32F4xx_HAL_Driver/Src/stm32f4xx_hal_spi.c ****   __IO uint8_t  tmpreg8 = 0;
3167:Drivers/STM32F4xx_HAL_Driver/Src/stm32f4xx_hal_spi.c **** 
3168:Drivers/STM32F4xx_HAL_Driver/Src/stm32f4xx_hal_spi.c ****   /* Initialize the 8bit temporary pointer */
3169:Drivers/STM32F4xx_HAL_Driver/Src/stm32f4xx_hal_spi.c ****   ptmpreg8 = (__IO uint8_t *)&hspi->Instance->DR;
3170:Drivers/STM32F4xx_HAL_Driver/Src/stm32f4xx_hal_spi.c ****   /* Read 8bit CRC to flush Data Register */
3171:Drivers/STM32F4xx_HAL_Driver/Src/stm32f4xx_hal_spi.c ****   tmpreg8 = *ptmpreg8;
3172:Drivers/STM32F4xx_HAL_Driver/Src/stm32f4xx_hal_spi.c ****   /* To avoid GCC warning */
3173:Drivers/STM32F4xx_HAL_Driver/Src/stm32f4xx_hal_spi.c ****   UNUSED(tmpreg8);
3174:Drivers/STM32F4xx_HAL_Driver/Src/stm32f4xx_hal_spi.c **** 
3175:Drivers/STM32F4xx_HAL_Driver/Src/stm32f4xx_hal_spi.c ****   /* Disable RXNE and ERR interrupt */
3176:Drivers/STM32F4xx_HAL_Driver/Src/stm32f4xx_hal_spi.c ****   __HAL_SPI_DISABLE_IT(hspi, (SPI_IT_RXNE | SPI_IT_ERR));
3177:Drivers/STM32F4xx_HAL_Driver/Src/stm32f4xx_hal_spi.c **** 
3178:Drivers/STM32F4xx_HAL_Driver/Src/stm32f4xx_hal_spi.c ****   if (hspi->TxXferCount == 0U)
3179:Drivers/STM32F4xx_HAL_Driver/Src/stm32f4xx_hal_spi.c ****   {
3180:Drivers/STM32F4xx_HAL_Driver/Src/stm32f4xx_hal_spi.c ****     SPI_CloseRxTx_ISR(hspi);
3181:Drivers/STM32F4xx_HAL_Driver/Src/stm32f4xx_hal_spi.c ****   }
3182:Drivers/STM32F4xx_HAL_Driver/Src/stm32f4xx_hal_spi.c **** }
3183:Drivers/STM32F4xx_HAL_Driver/Src/stm32f4xx_hal_spi.c **** #endif /* USE_SPI_CRC */
3184:Drivers/STM32F4xx_HAL_Driver/Src/stm32f4xx_hal_spi.c **** 
3185:Drivers/STM32F4xx_HAL_Driver/Src/stm32f4xx_hal_spi.c **** /**
3186:Drivers/STM32F4xx_HAL_Driver/Src/stm32f4xx_hal_spi.c ****   * @brief  Tx 8-bit handler for Transmit and Receive in Interrupt mode.
3187:Drivers/STM32F4xx_HAL_Driver/Src/stm32f4xx_hal_spi.c ****   * @param  hspi pointer to a SPI_HandleTypeDef structure that contains
3188:Drivers/STM32F4xx_HAL_Driver/Src/stm32f4xx_hal_spi.c ****   *               the configuration information for SPI module.
3189:Drivers/STM32F4xx_HAL_Driver/Src/stm32f4xx_hal_spi.c ****   * @retval None
3190:Drivers/STM32F4xx_HAL_Driver/Src/stm32f4xx_hal_spi.c ****   */
3191:Drivers/STM32F4xx_HAL_Driver/Src/stm32f4xx_hal_spi.c **** static void SPI_2linesTxISR_8BIT(struct __SPI_HandleTypeDef *hspi)
3192:Drivers/STM32F4xx_HAL_Driver/Src/stm32f4xx_hal_spi.c **** {
 6079              		.loc 1 3192 1
 6080              		.cfi_startproc
 6081              		@ args = 0, pretend = 0, frame = 8
 6082              		@ frame_needed = 1, uses_anonymous_args = 0
 6083 0000 80B5     		push	{r7, lr}
 6084              	.LCFI216:
 6085              		.cfi_def_cfa_offset 8
 6086              		.cfi_offset 7, -8
 6087              		.cfi_offset 14, -4
 6088 0002 82B0     		sub	sp, sp, #8
 6089              	.LCFI217:
 6090              		.cfi_def_cfa_offset 16
 6091 0004 00AF     		add	r7, sp, #0
 6092              	.LCFI218:
 6093              		.cfi_def_cfa_register 7
 6094 0006 7860     		str	r0, [r7, #4]
ARM GAS  C:\Users\16323\AppData\Local\Temp\ccbQ7VoP.s 			page 163


3193:Drivers/STM32F4xx_HAL_Driver/Src/stm32f4xx_hal_spi.c ****   *(__IO uint8_t *)&hspi->Instance->DR = *((const uint8_t *)hspi->pTxBuffPtr);
 6095              		.loc 1 3193 65
 6096 0008 7B68     		ldr	r3, [r7, #4]
 6097 000a 1A6B     		ldr	r2, [r3, #48]
 6098              		.loc 1 3193 25
 6099 000c 7B68     		ldr	r3, [r7, #4]
 6100 000e 1B68     		ldr	r3, [r3]
 6101              		.loc 1 3193 20
 6102 0010 0C33     		adds	r3, r3, #12
 6103              		.loc 1 3193 42
 6104 0012 1278     		ldrb	r2, [r2]	@ zero_extendqisi2
 6105              		.loc 1 3193 40
 6106 0014 1A70     		strb	r2, [r3]
3194:Drivers/STM32F4xx_HAL_Driver/Src/stm32f4xx_hal_spi.c ****   hspi->pTxBuffPtr++;
 6107              		.loc 1 3194 7
 6108 0016 7B68     		ldr	r3, [r7, #4]
 6109 0018 1B6B     		ldr	r3, [r3, #48]
 6110              		.loc 1 3194 19
 6111 001a 5A1C     		adds	r2, r3, #1
 6112 001c 7B68     		ldr	r3, [r7, #4]
 6113 001e 1A63     		str	r2, [r3, #48]
3195:Drivers/STM32F4xx_HAL_Driver/Src/stm32f4xx_hal_spi.c ****   hspi->TxXferCount--;
 6114              		.loc 1 3195 7
 6115 0020 7B68     		ldr	r3, [r7, #4]
 6116 0022 DB8E     		ldrh	r3, [r3, #54]	@ movhi
 6117 0024 9BB2     		uxth	r3, r3
 6118              		.loc 1 3195 20
 6119 0026 013B     		subs	r3, r3, #1
 6120 0028 9AB2     		uxth	r2, r3
 6121 002a 7B68     		ldr	r3, [r7, #4]
 6122 002c DA86     		strh	r2, [r3, #54]	@ movhi
3196:Drivers/STM32F4xx_HAL_Driver/Src/stm32f4xx_hal_spi.c **** 
3197:Drivers/STM32F4xx_HAL_Driver/Src/stm32f4xx_hal_spi.c ****   /* Check the end of the transmission */
3198:Drivers/STM32F4xx_HAL_Driver/Src/stm32f4xx_hal_spi.c ****   if (hspi->TxXferCount == 0U)
 6123              		.loc 1 3198 11
 6124 002e 7B68     		ldr	r3, [r7, #4]
 6125 0030 DB8E     		ldrh	r3, [r3, #54]	@ movhi
 6126 0032 9BB2     		uxth	r3, r3
 6127              		.loc 1 3198 6
 6128 0034 002B     		cmp	r3, #0
 6129 0036 0FD1     		bne	.L290
3199:Drivers/STM32F4xx_HAL_Driver/Src/stm32f4xx_hal_spi.c ****   {
3200:Drivers/STM32F4xx_HAL_Driver/Src/stm32f4xx_hal_spi.c **** #if (USE_SPI_CRC != 0U)
3201:Drivers/STM32F4xx_HAL_Driver/Src/stm32f4xx_hal_spi.c ****     if (hspi->Init.CRCCalculation == SPI_CRCCALCULATION_ENABLE)
3202:Drivers/STM32F4xx_HAL_Driver/Src/stm32f4xx_hal_spi.c ****     {
3203:Drivers/STM32F4xx_HAL_Driver/Src/stm32f4xx_hal_spi.c ****       /* Set CRC Next Bit to send CRC */
3204:Drivers/STM32F4xx_HAL_Driver/Src/stm32f4xx_hal_spi.c ****       SET_BIT(hspi->Instance->CR1, SPI_CR1_CRCNEXT);
3205:Drivers/STM32F4xx_HAL_Driver/Src/stm32f4xx_hal_spi.c ****       /* Disable TXE interrupt */
3206:Drivers/STM32F4xx_HAL_Driver/Src/stm32f4xx_hal_spi.c ****       __HAL_SPI_DISABLE_IT(hspi, SPI_IT_TXE);
3207:Drivers/STM32F4xx_HAL_Driver/Src/stm32f4xx_hal_spi.c ****       return;
3208:Drivers/STM32F4xx_HAL_Driver/Src/stm32f4xx_hal_spi.c ****     }
3209:Drivers/STM32F4xx_HAL_Driver/Src/stm32f4xx_hal_spi.c **** #endif /* USE_SPI_CRC */
3210:Drivers/STM32F4xx_HAL_Driver/Src/stm32f4xx_hal_spi.c **** 
3211:Drivers/STM32F4xx_HAL_Driver/Src/stm32f4xx_hal_spi.c ****     /* Disable TXE interrupt */
3212:Drivers/STM32F4xx_HAL_Driver/Src/stm32f4xx_hal_spi.c ****     __HAL_SPI_DISABLE_IT(hspi, SPI_IT_TXE);
 6130              		.loc 1 3212 5
 6131 0038 7B68     		ldr	r3, [r7, #4]
ARM GAS  C:\Users\16323\AppData\Local\Temp\ccbQ7VoP.s 			page 164


 6132 003a 1B68     		ldr	r3, [r3]
 6133 003c 5A68     		ldr	r2, [r3, #4]
 6134 003e 7B68     		ldr	r3, [r7, #4]
 6135 0040 1B68     		ldr	r3, [r3]
 6136 0042 22F08002 		bic	r2, r2, #128
 6137 0046 5A60     		str	r2, [r3, #4]
3213:Drivers/STM32F4xx_HAL_Driver/Src/stm32f4xx_hal_spi.c **** 
3214:Drivers/STM32F4xx_HAL_Driver/Src/stm32f4xx_hal_spi.c ****     if (hspi->RxXferCount == 0U)
 6138              		.loc 1 3214 13
 6139 0048 7B68     		ldr	r3, [r7, #4]
 6140 004a DB8F     		ldrh	r3, [r3, #62]	@ movhi
 6141 004c 9BB2     		uxth	r3, r3
 6142              		.loc 1 3214 8
 6143 004e 002B     		cmp	r3, #0
 6144 0050 02D1     		bne	.L290
3215:Drivers/STM32F4xx_HAL_Driver/Src/stm32f4xx_hal_spi.c ****     {
3216:Drivers/STM32F4xx_HAL_Driver/Src/stm32f4xx_hal_spi.c ****       SPI_CloseRxTx_ISR(hspi);
 6145              		.loc 1 3216 7
 6146 0052 7868     		ldr	r0, [r7, #4]
 6147 0054 FFF7FEFF 		bl	SPI_CloseRxTx_ISR
 6148              	.L290:
3217:Drivers/STM32F4xx_HAL_Driver/Src/stm32f4xx_hal_spi.c ****     }
3218:Drivers/STM32F4xx_HAL_Driver/Src/stm32f4xx_hal_spi.c ****   }
3219:Drivers/STM32F4xx_HAL_Driver/Src/stm32f4xx_hal_spi.c **** }
 6149              		.loc 1 3219 1
 6150 0058 00BF     		nop
 6151 005a 0837     		adds	r7, r7, #8
 6152              	.LCFI219:
 6153              		.cfi_def_cfa_offset 8
 6154 005c BD46     		mov	sp, r7
 6155              	.LCFI220:
 6156              		.cfi_def_cfa_register 13
 6157              		@ sp needed
 6158 005e 80BD     		pop	{r7, pc}
 6159              		.cfi_endproc
 6160              	.LFE279:
 6162              		.section	.text.SPI_2linesRxISR_16BIT,"ax",%progbits
 6163              		.align	1
 6164              		.syntax unified
 6165              		.thumb
 6166              		.thumb_func
 6168              	SPI_2linesRxISR_16BIT:
 6169              	.LFB280:
3220:Drivers/STM32F4xx_HAL_Driver/Src/stm32f4xx_hal_spi.c **** 
3221:Drivers/STM32F4xx_HAL_Driver/Src/stm32f4xx_hal_spi.c **** /**
3222:Drivers/STM32F4xx_HAL_Driver/Src/stm32f4xx_hal_spi.c ****   * @brief  Rx 16-bit handler for Transmit and Receive in Interrupt mode.
3223:Drivers/STM32F4xx_HAL_Driver/Src/stm32f4xx_hal_spi.c ****   * @param  hspi pointer to a SPI_HandleTypeDef structure that contains
3224:Drivers/STM32F4xx_HAL_Driver/Src/stm32f4xx_hal_spi.c ****   *               the configuration information for SPI module.
3225:Drivers/STM32F4xx_HAL_Driver/Src/stm32f4xx_hal_spi.c ****   * @retval None
3226:Drivers/STM32F4xx_HAL_Driver/Src/stm32f4xx_hal_spi.c ****   */
3227:Drivers/STM32F4xx_HAL_Driver/Src/stm32f4xx_hal_spi.c **** static void SPI_2linesRxISR_16BIT(struct __SPI_HandleTypeDef *hspi)
3228:Drivers/STM32F4xx_HAL_Driver/Src/stm32f4xx_hal_spi.c **** {
 6170              		.loc 1 3228 1
 6171              		.cfi_startproc
 6172              		@ args = 0, pretend = 0, frame = 8
 6173              		@ frame_needed = 1, uses_anonymous_args = 0
 6174 0000 80B5     		push	{r7, lr}
ARM GAS  C:\Users\16323\AppData\Local\Temp\ccbQ7VoP.s 			page 165


 6175              	.LCFI221:
 6176              		.cfi_def_cfa_offset 8
 6177              		.cfi_offset 7, -8
 6178              		.cfi_offset 14, -4
 6179 0002 82B0     		sub	sp, sp, #8
 6180              	.LCFI222:
 6181              		.cfi_def_cfa_offset 16
 6182 0004 00AF     		add	r7, sp, #0
 6183              	.LCFI223:
 6184              		.cfi_def_cfa_register 7
 6185 0006 7860     		str	r0, [r7, #4]
3229:Drivers/STM32F4xx_HAL_Driver/Src/stm32f4xx_hal_spi.c ****   /* Receive data in 16 Bit mode */
3230:Drivers/STM32F4xx_HAL_Driver/Src/stm32f4xx_hal_spi.c ****   *((uint16_t *)hspi->pRxBuffPtr) = (uint16_t)(hspi->Instance->DR);
 6186              		.loc 1 3230 52
 6187 0008 7B68     		ldr	r3, [r7, #4]
 6188 000a 1B68     		ldr	r3, [r3]
 6189              		.loc 1 3230 62
 6190 000c DA68     		ldr	r2, [r3, #12]
 6191              		.loc 1 3230 21
 6192 000e 7B68     		ldr	r3, [r7, #4]
 6193 0010 9B6B     		ldr	r3, [r3, #56]
 6194              		.loc 1 3230 37
 6195 0012 92B2     		uxth	r2, r2
 6196              		.loc 1 3230 35
 6197 0014 1A80     		strh	r2, [r3]	@ movhi
3231:Drivers/STM32F4xx_HAL_Driver/Src/stm32f4xx_hal_spi.c ****   hspi->pRxBuffPtr += sizeof(uint16_t);
 6198              		.loc 1 3231 20
 6199 0016 7B68     		ldr	r3, [r7, #4]
 6200 0018 9B6B     		ldr	r3, [r3, #56]
 6201 001a 9A1C     		adds	r2, r3, #2
 6202 001c 7B68     		ldr	r3, [r7, #4]
 6203 001e 9A63     		str	r2, [r3, #56]
3232:Drivers/STM32F4xx_HAL_Driver/Src/stm32f4xx_hal_spi.c ****   hspi->RxXferCount--;
 6204              		.loc 1 3232 7
 6205 0020 7B68     		ldr	r3, [r7, #4]
 6206 0022 DB8F     		ldrh	r3, [r3, #62]	@ movhi
 6207 0024 9BB2     		uxth	r3, r3
 6208              		.loc 1 3232 20
 6209 0026 013B     		subs	r3, r3, #1
 6210 0028 9AB2     		uxth	r2, r3
 6211 002a 7B68     		ldr	r3, [r7, #4]
 6212 002c DA87     		strh	r2, [r3, #62]	@ movhi
3233:Drivers/STM32F4xx_HAL_Driver/Src/stm32f4xx_hal_spi.c **** 
3234:Drivers/STM32F4xx_HAL_Driver/Src/stm32f4xx_hal_spi.c ****   if (hspi->RxXferCount == 0U)
 6213              		.loc 1 3234 11
 6214 002e 7B68     		ldr	r3, [r7, #4]
 6215 0030 DB8F     		ldrh	r3, [r3, #62]	@ movhi
 6216 0032 9BB2     		uxth	r3, r3
 6217              		.loc 1 3234 6
 6218 0034 002B     		cmp	r3, #0
 6219 0036 0FD1     		bne	.L293
3235:Drivers/STM32F4xx_HAL_Driver/Src/stm32f4xx_hal_spi.c ****   {
3236:Drivers/STM32F4xx_HAL_Driver/Src/stm32f4xx_hal_spi.c **** #if (USE_SPI_CRC != 0U)
3237:Drivers/STM32F4xx_HAL_Driver/Src/stm32f4xx_hal_spi.c ****     if (hspi->Init.CRCCalculation == SPI_CRCCALCULATION_ENABLE)
3238:Drivers/STM32F4xx_HAL_Driver/Src/stm32f4xx_hal_spi.c ****     {
3239:Drivers/STM32F4xx_HAL_Driver/Src/stm32f4xx_hal_spi.c ****       hspi->RxISR =  SPI_2linesRxISR_16BITCRC;
3240:Drivers/STM32F4xx_HAL_Driver/Src/stm32f4xx_hal_spi.c ****       return;
ARM GAS  C:\Users\16323\AppData\Local\Temp\ccbQ7VoP.s 			page 166


3241:Drivers/STM32F4xx_HAL_Driver/Src/stm32f4xx_hal_spi.c ****     }
3242:Drivers/STM32F4xx_HAL_Driver/Src/stm32f4xx_hal_spi.c **** #endif /* USE_SPI_CRC */
3243:Drivers/STM32F4xx_HAL_Driver/Src/stm32f4xx_hal_spi.c **** 
3244:Drivers/STM32F4xx_HAL_Driver/Src/stm32f4xx_hal_spi.c ****     /* Disable RXNE interrupt */
3245:Drivers/STM32F4xx_HAL_Driver/Src/stm32f4xx_hal_spi.c ****     __HAL_SPI_DISABLE_IT(hspi, SPI_IT_RXNE);
 6220              		.loc 1 3245 5
 6221 0038 7B68     		ldr	r3, [r7, #4]
 6222 003a 1B68     		ldr	r3, [r3]
 6223 003c 5A68     		ldr	r2, [r3, #4]
 6224 003e 7B68     		ldr	r3, [r7, #4]
 6225 0040 1B68     		ldr	r3, [r3]
 6226 0042 22F04002 		bic	r2, r2, #64
 6227 0046 5A60     		str	r2, [r3, #4]
3246:Drivers/STM32F4xx_HAL_Driver/Src/stm32f4xx_hal_spi.c **** 
3247:Drivers/STM32F4xx_HAL_Driver/Src/stm32f4xx_hal_spi.c ****     if (hspi->TxXferCount == 0U)
 6228              		.loc 1 3247 13
 6229 0048 7B68     		ldr	r3, [r7, #4]
 6230 004a DB8E     		ldrh	r3, [r3, #54]	@ movhi
 6231 004c 9BB2     		uxth	r3, r3
 6232              		.loc 1 3247 8
 6233 004e 002B     		cmp	r3, #0
 6234 0050 02D1     		bne	.L293
3248:Drivers/STM32F4xx_HAL_Driver/Src/stm32f4xx_hal_spi.c ****     {
3249:Drivers/STM32F4xx_HAL_Driver/Src/stm32f4xx_hal_spi.c ****       SPI_CloseRxTx_ISR(hspi);
 6235              		.loc 1 3249 7
 6236 0052 7868     		ldr	r0, [r7, #4]
 6237 0054 FFF7FEFF 		bl	SPI_CloseRxTx_ISR
 6238              	.L293:
3250:Drivers/STM32F4xx_HAL_Driver/Src/stm32f4xx_hal_spi.c ****     }
3251:Drivers/STM32F4xx_HAL_Driver/Src/stm32f4xx_hal_spi.c ****   }
3252:Drivers/STM32F4xx_HAL_Driver/Src/stm32f4xx_hal_spi.c **** }
 6239              		.loc 1 3252 1
 6240 0058 00BF     		nop
 6241 005a 0837     		adds	r7, r7, #8
 6242              	.LCFI224:
 6243              		.cfi_def_cfa_offset 8
 6244 005c BD46     		mov	sp, r7
 6245              	.LCFI225:
 6246              		.cfi_def_cfa_register 13
 6247              		@ sp needed
 6248 005e 80BD     		pop	{r7, pc}
 6249              		.cfi_endproc
 6250              	.LFE280:
 6252              		.section	.text.SPI_2linesTxISR_16BIT,"ax",%progbits
 6253              		.align	1
 6254              		.syntax unified
 6255              		.thumb
 6256              		.thumb_func
 6258              	SPI_2linesTxISR_16BIT:
 6259              	.LFB281:
3253:Drivers/STM32F4xx_HAL_Driver/Src/stm32f4xx_hal_spi.c **** 
3254:Drivers/STM32F4xx_HAL_Driver/Src/stm32f4xx_hal_spi.c **** #if (USE_SPI_CRC != 0U)
3255:Drivers/STM32F4xx_HAL_Driver/Src/stm32f4xx_hal_spi.c **** /**
3256:Drivers/STM32F4xx_HAL_Driver/Src/stm32f4xx_hal_spi.c ****   * @brief  Manage the CRC 16-bit receive for Transmit and Receive in Interrupt mode.
3257:Drivers/STM32F4xx_HAL_Driver/Src/stm32f4xx_hal_spi.c ****   * @param  hspi pointer to a SPI_HandleTypeDef structure that contains
3258:Drivers/STM32F4xx_HAL_Driver/Src/stm32f4xx_hal_spi.c ****   *               the configuration information for SPI module.
3259:Drivers/STM32F4xx_HAL_Driver/Src/stm32f4xx_hal_spi.c ****   * @retval None
ARM GAS  C:\Users\16323\AppData\Local\Temp\ccbQ7VoP.s 			page 167


3260:Drivers/STM32F4xx_HAL_Driver/Src/stm32f4xx_hal_spi.c ****   */
3261:Drivers/STM32F4xx_HAL_Driver/Src/stm32f4xx_hal_spi.c **** static void SPI_2linesRxISR_16BITCRC(struct __SPI_HandleTypeDef *hspi)
3262:Drivers/STM32F4xx_HAL_Driver/Src/stm32f4xx_hal_spi.c **** {
3263:Drivers/STM32F4xx_HAL_Driver/Src/stm32f4xx_hal_spi.c ****   __IO uint32_t tmpreg = 0U;
3264:Drivers/STM32F4xx_HAL_Driver/Src/stm32f4xx_hal_spi.c **** 
3265:Drivers/STM32F4xx_HAL_Driver/Src/stm32f4xx_hal_spi.c ****   /* Read 16bit CRC to flush Data Register */
3266:Drivers/STM32F4xx_HAL_Driver/Src/stm32f4xx_hal_spi.c ****   tmpreg = READ_REG(hspi->Instance->DR);
3267:Drivers/STM32F4xx_HAL_Driver/Src/stm32f4xx_hal_spi.c ****   /* To avoid GCC warning */
3268:Drivers/STM32F4xx_HAL_Driver/Src/stm32f4xx_hal_spi.c ****   UNUSED(tmpreg);
3269:Drivers/STM32F4xx_HAL_Driver/Src/stm32f4xx_hal_spi.c **** 
3270:Drivers/STM32F4xx_HAL_Driver/Src/stm32f4xx_hal_spi.c ****   /* Disable RXNE interrupt */
3271:Drivers/STM32F4xx_HAL_Driver/Src/stm32f4xx_hal_spi.c ****   __HAL_SPI_DISABLE_IT(hspi, SPI_IT_RXNE);
3272:Drivers/STM32F4xx_HAL_Driver/Src/stm32f4xx_hal_spi.c **** 
3273:Drivers/STM32F4xx_HAL_Driver/Src/stm32f4xx_hal_spi.c ****   SPI_CloseRxTx_ISR(hspi);
3274:Drivers/STM32F4xx_HAL_Driver/Src/stm32f4xx_hal_spi.c **** }
3275:Drivers/STM32F4xx_HAL_Driver/Src/stm32f4xx_hal_spi.c **** #endif /* USE_SPI_CRC */
3276:Drivers/STM32F4xx_HAL_Driver/Src/stm32f4xx_hal_spi.c **** 
3277:Drivers/STM32F4xx_HAL_Driver/Src/stm32f4xx_hal_spi.c **** /**
3278:Drivers/STM32F4xx_HAL_Driver/Src/stm32f4xx_hal_spi.c ****   * @brief  Tx 16-bit handler for Transmit and Receive in Interrupt mode.
3279:Drivers/STM32F4xx_HAL_Driver/Src/stm32f4xx_hal_spi.c ****   * @param  hspi pointer to a SPI_HandleTypeDef structure that contains
3280:Drivers/STM32F4xx_HAL_Driver/Src/stm32f4xx_hal_spi.c ****   *               the configuration information for SPI module.
3281:Drivers/STM32F4xx_HAL_Driver/Src/stm32f4xx_hal_spi.c ****   * @retval None
3282:Drivers/STM32F4xx_HAL_Driver/Src/stm32f4xx_hal_spi.c ****   */
3283:Drivers/STM32F4xx_HAL_Driver/Src/stm32f4xx_hal_spi.c **** static void SPI_2linesTxISR_16BIT(struct __SPI_HandleTypeDef *hspi)
3284:Drivers/STM32F4xx_HAL_Driver/Src/stm32f4xx_hal_spi.c **** {
 6260              		.loc 1 3284 1
 6261              		.cfi_startproc
 6262              		@ args = 0, pretend = 0, frame = 8
 6263              		@ frame_needed = 1, uses_anonymous_args = 0
 6264 0000 80B5     		push	{r7, lr}
 6265              	.LCFI226:
 6266              		.cfi_def_cfa_offset 8
 6267              		.cfi_offset 7, -8
 6268              		.cfi_offset 14, -4
 6269 0002 82B0     		sub	sp, sp, #8
 6270              	.LCFI227:
 6271              		.cfi_def_cfa_offset 16
 6272 0004 00AF     		add	r7, sp, #0
 6273              	.LCFI228:
 6274              		.cfi_def_cfa_register 7
 6275 0006 7860     		str	r0, [r7, #4]
3285:Drivers/STM32F4xx_HAL_Driver/Src/stm32f4xx_hal_spi.c ****   /* Transmit data in 16 Bit mode */
3286:Drivers/STM32F4xx_HAL_Driver/Src/stm32f4xx_hal_spi.c ****   hspi->Instance->DR = *((const uint16_t *)hspi->pTxBuffPtr);
 6276              		.loc 1 3286 48
 6277 0008 7B68     		ldr	r3, [r7, #4]
 6278 000a 1B6B     		ldr	r3, [r3, #48]
 6279              		.loc 1 3286 24
 6280 000c 1A88     		ldrh	r2, [r3]
 6281              		.loc 1 3286 7
 6282 000e 7B68     		ldr	r3, [r7, #4]
 6283 0010 1B68     		ldr	r3, [r3]
 6284              		.loc 1 3286 22
 6285 0012 DA60     		str	r2, [r3, #12]
3287:Drivers/STM32F4xx_HAL_Driver/Src/stm32f4xx_hal_spi.c ****   hspi->pTxBuffPtr += sizeof(uint16_t);
 6286              		.loc 1 3287 20
 6287 0014 7B68     		ldr	r3, [r7, #4]
 6288 0016 1B6B     		ldr	r3, [r3, #48]
ARM GAS  C:\Users\16323\AppData\Local\Temp\ccbQ7VoP.s 			page 168


 6289 0018 9A1C     		adds	r2, r3, #2
 6290 001a 7B68     		ldr	r3, [r7, #4]
 6291 001c 1A63     		str	r2, [r3, #48]
3288:Drivers/STM32F4xx_HAL_Driver/Src/stm32f4xx_hal_spi.c ****   hspi->TxXferCount--;
 6292              		.loc 1 3288 7
 6293 001e 7B68     		ldr	r3, [r7, #4]
 6294 0020 DB8E     		ldrh	r3, [r3, #54]	@ movhi
 6295 0022 9BB2     		uxth	r3, r3
 6296              		.loc 1 3288 20
 6297 0024 013B     		subs	r3, r3, #1
 6298 0026 9AB2     		uxth	r2, r3
 6299 0028 7B68     		ldr	r3, [r7, #4]
 6300 002a DA86     		strh	r2, [r3, #54]	@ movhi
3289:Drivers/STM32F4xx_HAL_Driver/Src/stm32f4xx_hal_spi.c **** 
3290:Drivers/STM32F4xx_HAL_Driver/Src/stm32f4xx_hal_spi.c ****   /* Enable CRC Transmission */
3291:Drivers/STM32F4xx_HAL_Driver/Src/stm32f4xx_hal_spi.c ****   if (hspi->TxXferCount == 0U)
 6301              		.loc 1 3291 11
 6302 002c 7B68     		ldr	r3, [r7, #4]
 6303 002e DB8E     		ldrh	r3, [r3, #54]	@ movhi
 6304 0030 9BB2     		uxth	r3, r3
 6305              		.loc 1 3291 6
 6306 0032 002B     		cmp	r3, #0
 6307 0034 0FD1     		bne	.L296
3292:Drivers/STM32F4xx_HAL_Driver/Src/stm32f4xx_hal_spi.c ****   {
3293:Drivers/STM32F4xx_HAL_Driver/Src/stm32f4xx_hal_spi.c **** #if (USE_SPI_CRC != 0U)
3294:Drivers/STM32F4xx_HAL_Driver/Src/stm32f4xx_hal_spi.c ****     if (hspi->Init.CRCCalculation == SPI_CRCCALCULATION_ENABLE)
3295:Drivers/STM32F4xx_HAL_Driver/Src/stm32f4xx_hal_spi.c ****     {
3296:Drivers/STM32F4xx_HAL_Driver/Src/stm32f4xx_hal_spi.c ****       /* Set CRC Next Bit to send CRC */
3297:Drivers/STM32F4xx_HAL_Driver/Src/stm32f4xx_hal_spi.c ****       SET_BIT(hspi->Instance->CR1, SPI_CR1_CRCNEXT);
3298:Drivers/STM32F4xx_HAL_Driver/Src/stm32f4xx_hal_spi.c ****       /* Disable TXE interrupt */
3299:Drivers/STM32F4xx_HAL_Driver/Src/stm32f4xx_hal_spi.c ****       __HAL_SPI_DISABLE_IT(hspi, SPI_IT_TXE);
3300:Drivers/STM32F4xx_HAL_Driver/Src/stm32f4xx_hal_spi.c ****       return;
3301:Drivers/STM32F4xx_HAL_Driver/Src/stm32f4xx_hal_spi.c ****     }
3302:Drivers/STM32F4xx_HAL_Driver/Src/stm32f4xx_hal_spi.c **** #endif /* USE_SPI_CRC */
3303:Drivers/STM32F4xx_HAL_Driver/Src/stm32f4xx_hal_spi.c **** 
3304:Drivers/STM32F4xx_HAL_Driver/Src/stm32f4xx_hal_spi.c ****     /* Disable TXE interrupt */
3305:Drivers/STM32F4xx_HAL_Driver/Src/stm32f4xx_hal_spi.c ****     __HAL_SPI_DISABLE_IT(hspi, SPI_IT_TXE);
 6308              		.loc 1 3305 5
 6309 0036 7B68     		ldr	r3, [r7, #4]
 6310 0038 1B68     		ldr	r3, [r3]
 6311 003a 5A68     		ldr	r2, [r3, #4]
 6312 003c 7B68     		ldr	r3, [r7, #4]
 6313 003e 1B68     		ldr	r3, [r3]
 6314 0040 22F08002 		bic	r2, r2, #128
 6315 0044 5A60     		str	r2, [r3, #4]
3306:Drivers/STM32F4xx_HAL_Driver/Src/stm32f4xx_hal_spi.c **** 
3307:Drivers/STM32F4xx_HAL_Driver/Src/stm32f4xx_hal_spi.c ****     if (hspi->RxXferCount == 0U)
 6316              		.loc 1 3307 13
 6317 0046 7B68     		ldr	r3, [r7, #4]
 6318 0048 DB8F     		ldrh	r3, [r3, #62]	@ movhi
 6319 004a 9BB2     		uxth	r3, r3
 6320              		.loc 1 3307 8
 6321 004c 002B     		cmp	r3, #0
 6322 004e 02D1     		bne	.L296
3308:Drivers/STM32F4xx_HAL_Driver/Src/stm32f4xx_hal_spi.c ****     {
3309:Drivers/STM32F4xx_HAL_Driver/Src/stm32f4xx_hal_spi.c ****       SPI_CloseRxTx_ISR(hspi);
 6323              		.loc 1 3309 7
ARM GAS  C:\Users\16323\AppData\Local\Temp\ccbQ7VoP.s 			page 169


 6324 0050 7868     		ldr	r0, [r7, #4]
 6325 0052 FFF7FEFF 		bl	SPI_CloseRxTx_ISR
 6326              	.L296:
3310:Drivers/STM32F4xx_HAL_Driver/Src/stm32f4xx_hal_spi.c ****     }
3311:Drivers/STM32F4xx_HAL_Driver/Src/stm32f4xx_hal_spi.c ****   }
3312:Drivers/STM32F4xx_HAL_Driver/Src/stm32f4xx_hal_spi.c **** }
 6327              		.loc 1 3312 1
 6328 0056 00BF     		nop
 6329 0058 0837     		adds	r7, r7, #8
 6330              	.LCFI229:
 6331              		.cfi_def_cfa_offset 8
 6332 005a BD46     		mov	sp, r7
 6333              	.LCFI230:
 6334              		.cfi_def_cfa_register 13
 6335              		@ sp needed
 6336 005c 80BD     		pop	{r7, pc}
 6337              		.cfi_endproc
 6338              	.LFE281:
 6340              		.section	.text.SPI_RxISR_8BIT,"ax",%progbits
 6341              		.align	1
 6342              		.syntax unified
 6343              		.thumb
 6344              		.thumb_func
 6346              	SPI_RxISR_8BIT:
 6347              	.LFB282:
3313:Drivers/STM32F4xx_HAL_Driver/Src/stm32f4xx_hal_spi.c **** 
3314:Drivers/STM32F4xx_HAL_Driver/Src/stm32f4xx_hal_spi.c **** #if (USE_SPI_CRC != 0U)
3315:Drivers/STM32F4xx_HAL_Driver/Src/stm32f4xx_hal_spi.c **** /**
3316:Drivers/STM32F4xx_HAL_Driver/Src/stm32f4xx_hal_spi.c ****   * @brief  Manage the CRC 8-bit receive in Interrupt context.
3317:Drivers/STM32F4xx_HAL_Driver/Src/stm32f4xx_hal_spi.c ****   * @param  hspi pointer to a SPI_HandleTypeDef structure that contains
3318:Drivers/STM32F4xx_HAL_Driver/Src/stm32f4xx_hal_spi.c ****   *               the configuration information for SPI module.
3319:Drivers/STM32F4xx_HAL_Driver/Src/stm32f4xx_hal_spi.c ****   * @retval None
3320:Drivers/STM32F4xx_HAL_Driver/Src/stm32f4xx_hal_spi.c ****   */
3321:Drivers/STM32F4xx_HAL_Driver/Src/stm32f4xx_hal_spi.c **** static void SPI_RxISR_8BITCRC(struct __SPI_HandleTypeDef *hspi)
3322:Drivers/STM32F4xx_HAL_Driver/Src/stm32f4xx_hal_spi.c **** {
3323:Drivers/STM32F4xx_HAL_Driver/Src/stm32f4xx_hal_spi.c ****   __IO uint8_t  *ptmpreg8;
3324:Drivers/STM32F4xx_HAL_Driver/Src/stm32f4xx_hal_spi.c ****   __IO uint8_t  tmpreg8 = 0;
3325:Drivers/STM32F4xx_HAL_Driver/Src/stm32f4xx_hal_spi.c **** 
3326:Drivers/STM32F4xx_HAL_Driver/Src/stm32f4xx_hal_spi.c ****   /* Initialize the 8bit temporary pointer */
3327:Drivers/STM32F4xx_HAL_Driver/Src/stm32f4xx_hal_spi.c ****   ptmpreg8 = (__IO uint8_t *)&hspi->Instance->DR;
3328:Drivers/STM32F4xx_HAL_Driver/Src/stm32f4xx_hal_spi.c ****   /* Read 8bit CRC to flush Data Register */
3329:Drivers/STM32F4xx_HAL_Driver/Src/stm32f4xx_hal_spi.c ****   tmpreg8 = *ptmpreg8;
3330:Drivers/STM32F4xx_HAL_Driver/Src/stm32f4xx_hal_spi.c ****   /* To avoid GCC warning */
3331:Drivers/STM32F4xx_HAL_Driver/Src/stm32f4xx_hal_spi.c ****   UNUSED(tmpreg8);
3332:Drivers/STM32F4xx_HAL_Driver/Src/stm32f4xx_hal_spi.c **** 
3333:Drivers/STM32F4xx_HAL_Driver/Src/stm32f4xx_hal_spi.c ****   SPI_CloseRx_ISR(hspi);
3334:Drivers/STM32F4xx_HAL_Driver/Src/stm32f4xx_hal_spi.c **** }
3335:Drivers/STM32F4xx_HAL_Driver/Src/stm32f4xx_hal_spi.c **** #endif /* USE_SPI_CRC */
3336:Drivers/STM32F4xx_HAL_Driver/Src/stm32f4xx_hal_spi.c **** 
3337:Drivers/STM32F4xx_HAL_Driver/Src/stm32f4xx_hal_spi.c **** /**
3338:Drivers/STM32F4xx_HAL_Driver/Src/stm32f4xx_hal_spi.c ****   * @brief  Manage the receive 8-bit in Interrupt context.
3339:Drivers/STM32F4xx_HAL_Driver/Src/stm32f4xx_hal_spi.c ****   * @param  hspi pointer to a SPI_HandleTypeDef structure that contains
3340:Drivers/STM32F4xx_HAL_Driver/Src/stm32f4xx_hal_spi.c ****   *               the configuration information for SPI module.
3341:Drivers/STM32F4xx_HAL_Driver/Src/stm32f4xx_hal_spi.c ****   * @retval None
3342:Drivers/STM32F4xx_HAL_Driver/Src/stm32f4xx_hal_spi.c ****   */
3343:Drivers/STM32F4xx_HAL_Driver/Src/stm32f4xx_hal_spi.c **** static void SPI_RxISR_8BIT(struct __SPI_HandleTypeDef *hspi)
3344:Drivers/STM32F4xx_HAL_Driver/Src/stm32f4xx_hal_spi.c **** {
ARM GAS  C:\Users\16323\AppData\Local\Temp\ccbQ7VoP.s 			page 170


 6348              		.loc 1 3344 1
 6349              		.cfi_startproc
 6350              		@ args = 0, pretend = 0, frame = 8
 6351              		@ frame_needed = 1, uses_anonymous_args = 0
 6352 0000 80B5     		push	{r7, lr}
 6353              	.LCFI231:
 6354              		.cfi_def_cfa_offset 8
 6355              		.cfi_offset 7, -8
 6356              		.cfi_offset 14, -4
 6357 0002 82B0     		sub	sp, sp, #8
 6358              	.LCFI232:
 6359              		.cfi_def_cfa_offset 16
 6360 0004 00AF     		add	r7, sp, #0
 6361              	.LCFI233:
 6362              		.cfi_def_cfa_register 7
 6363 0006 7860     		str	r0, [r7, #4]
3345:Drivers/STM32F4xx_HAL_Driver/Src/stm32f4xx_hal_spi.c ****   *hspi->pRxBuffPtr = (*(__IO uint8_t *)&hspi->Instance->DR);
 6364              		.loc 1 3345 46
 6365 0008 7B68     		ldr	r3, [r7, #4]
 6366 000a 1B68     		ldr	r3, [r3]
 6367              		.loc 1 3345 41
 6368 000c 03F10C02 		add	r2, r3, #12
 6369              		.loc 1 3345 8
 6370 0010 7B68     		ldr	r3, [r7, #4]
 6371 0012 9B6B     		ldr	r3, [r3, #56]
 6372              		.loc 1 3345 24
 6373 0014 1278     		ldrb	r2, [r2]
 6374 0016 D2B2     		uxtb	r2, r2
 6375              		.loc 1 3345 21
 6376 0018 1A70     		strb	r2, [r3]
3346:Drivers/STM32F4xx_HAL_Driver/Src/stm32f4xx_hal_spi.c ****   hspi->pRxBuffPtr++;
 6377              		.loc 1 3346 7
 6378 001a 7B68     		ldr	r3, [r7, #4]
 6379 001c 9B6B     		ldr	r3, [r3, #56]
 6380              		.loc 1 3346 19
 6381 001e 5A1C     		adds	r2, r3, #1
 6382 0020 7B68     		ldr	r3, [r7, #4]
 6383 0022 9A63     		str	r2, [r3, #56]
3347:Drivers/STM32F4xx_HAL_Driver/Src/stm32f4xx_hal_spi.c ****   hspi->RxXferCount--;
 6384              		.loc 1 3347 7
 6385 0024 7B68     		ldr	r3, [r7, #4]
 6386 0026 DB8F     		ldrh	r3, [r3, #62]	@ movhi
 6387 0028 9BB2     		uxth	r3, r3
 6388              		.loc 1 3347 20
 6389 002a 013B     		subs	r3, r3, #1
 6390 002c 9AB2     		uxth	r2, r3
 6391 002e 7B68     		ldr	r3, [r7, #4]
 6392 0030 DA87     		strh	r2, [r3, #62]	@ movhi
3348:Drivers/STM32F4xx_HAL_Driver/Src/stm32f4xx_hal_spi.c **** 
3349:Drivers/STM32F4xx_HAL_Driver/Src/stm32f4xx_hal_spi.c **** #if (USE_SPI_CRC != 0U)
3350:Drivers/STM32F4xx_HAL_Driver/Src/stm32f4xx_hal_spi.c ****   /* Enable CRC Transmission */
3351:Drivers/STM32F4xx_HAL_Driver/Src/stm32f4xx_hal_spi.c ****   if ((hspi->RxXferCount == 1U) && (hspi->Init.CRCCalculation == SPI_CRCCALCULATION_ENABLE))
3352:Drivers/STM32F4xx_HAL_Driver/Src/stm32f4xx_hal_spi.c ****   {
3353:Drivers/STM32F4xx_HAL_Driver/Src/stm32f4xx_hal_spi.c ****     SET_BIT(hspi->Instance->CR1, SPI_CR1_CRCNEXT);
3354:Drivers/STM32F4xx_HAL_Driver/Src/stm32f4xx_hal_spi.c ****   }
3355:Drivers/STM32F4xx_HAL_Driver/Src/stm32f4xx_hal_spi.c **** #endif /* USE_SPI_CRC */
3356:Drivers/STM32F4xx_HAL_Driver/Src/stm32f4xx_hal_spi.c **** 
ARM GAS  C:\Users\16323\AppData\Local\Temp\ccbQ7VoP.s 			page 171


3357:Drivers/STM32F4xx_HAL_Driver/Src/stm32f4xx_hal_spi.c ****   if (hspi->RxXferCount == 0U)
 6393              		.loc 1 3357 11
 6394 0032 7B68     		ldr	r3, [r7, #4]
 6395 0034 DB8F     		ldrh	r3, [r3, #62]	@ movhi
 6396 0036 9BB2     		uxth	r3, r3
 6397              		.loc 1 3357 6
 6398 0038 002B     		cmp	r3, #0
 6399 003a 02D1     		bne	.L299
3358:Drivers/STM32F4xx_HAL_Driver/Src/stm32f4xx_hal_spi.c ****   {
3359:Drivers/STM32F4xx_HAL_Driver/Src/stm32f4xx_hal_spi.c **** #if (USE_SPI_CRC != 0U)
3360:Drivers/STM32F4xx_HAL_Driver/Src/stm32f4xx_hal_spi.c ****     if (hspi->Init.CRCCalculation == SPI_CRCCALCULATION_ENABLE)
3361:Drivers/STM32F4xx_HAL_Driver/Src/stm32f4xx_hal_spi.c ****     {
3362:Drivers/STM32F4xx_HAL_Driver/Src/stm32f4xx_hal_spi.c ****       hspi->RxISR =  SPI_RxISR_8BITCRC;
3363:Drivers/STM32F4xx_HAL_Driver/Src/stm32f4xx_hal_spi.c ****       return;
3364:Drivers/STM32F4xx_HAL_Driver/Src/stm32f4xx_hal_spi.c ****     }
3365:Drivers/STM32F4xx_HAL_Driver/Src/stm32f4xx_hal_spi.c **** #endif /* USE_SPI_CRC */
3366:Drivers/STM32F4xx_HAL_Driver/Src/stm32f4xx_hal_spi.c ****     SPI_CloseRx_ISR(hspi);
 6400              		.loc 1 3366 5
 6401 003c 7868     		ldr	r0, [r7, #4]
 6402 003e FFF7FEFF 		bl	SPI_CloseRx_ISR
 6403              	.L299:
3367:Drivers/STM32F4xx_HAL_Driver/Src/stm32f4xx_hal_spi.c ****   }
3368:Drivers/STM32F4xx_HAL_Driver/Src/stm32f4xx_hal_spi.c **** }
 6404              		.loc 1 3368 1
 6405 0042 00BF     		nop
 6406 0044 0837     		adds	r7, r7, #8
 6407              	.LCFI234:
 6408              		.cfi_def_cfa_offset 8
 6409 0046 BD46     		mov	sp, r7
 6410              	.LCFI235:
 6411              		.cfi_def_cfa_register 13
 6412              		@ sp needed
 6413 0048 80BD     		pop	{r7, pc}
 6414              		.cfi_endproc
 6415              	.LFE282:
 6417              		.section	.text.SPI_RxISR_16BIT,"ax",%progbits
 6418              		.align	1
 6419              		.syntax unified
 6420              		.thumb
 6421              		.thumb_func
 6423              	SPI_RxISR_16BIT:
 6424              	.LFB283:
3369:Drivers/STM32F4xx_HAL_Driver/Src/stm32f4xx_hal_spi.c **** 
3370:Drivers/STM32F4xx_HAL_Driver/Src/stm32f4xx_hal_spi.c **** #if (USE_SPI_CRC != 0U)
3371:Drivers/STM32F4xx_HAL_Driver/Src/stm32f4xx_hal_spi.c **** /**
3372:Drivers/STM32F4xx_HAL_Driver/Src/stm32f4xx_hal_spi.c ****   * @brief  Manage the CRC 16-bit receive in Interrupt context.
3373:Drivers/STM32F4xx_HAL_Driver/Src/stm32f4xx_hal_spi.c ****   * @param  hspi pointer to a SPI_HandleTypeDef structure that contains
3374:Drivers/STM32F4xx_HAL_Driver/Src/stm32f4xx_hal_spi.c ****   *               the configuration information for SPI module.
3375:Drivers/STM32F4xx_HAL_Driver/Src/stm32f4xx_hal_spi.c ****   * @retval None
3376:Drivers/STM32F4xx_HAL_Driver/Src/stm32f4xx_hal_spi.c ****   */
3377:Drivers/STM32F4xx_HAL_Driver/Src/stm32f4xx_hal_spi.c **** static void SPI_RxISR_16BITCRC(struct __SPI_HandleTypeDef *hspi)
3378:Drivers/STM32F4xx_HAL_Driver/Src/stm32f4xx_hal_spi.c **** {
3379:Drivers/STM32F4xx_HAL_Driver/Src/stm32f4xx_hal_spi.c ****   __IO uint32_t tmpreg = 0U;
3380:Drivers/STM32F4xx_HAL_Driver/Src/stm32f4xx_hal_spi.c **** 
3381:Drivers/STM32F4xx_HAL_Driver/Src/stm32f4xx_hal_spi.c ****   /* Read 16bit CRC to flush Data Register */
3382:Drivers/STM32F4xx_HAL_Driver/Src/stm32f4xx_hal_spi.c ****   tmpreg = READ_REG(hspi->Instance->DR);
3383:Drivers/STM32F4xx_HAL_Driver/Src/stm32f4xx_hal_spi.c ****   /* To avoid GCC warning */
ARM GAS  C:\Users\16323\AppData\Local\Temp\ccbQ7VoP.s 			page 172


3384:Drivers/STM32F4xx_HAL_Driver/Src/stm32f4xx_hal_spi.c ****   UNUSED(tmpreg);
3385:Drivers/STM32F4xx_HAL_Driver/Src/stm32f4xx_hal_spi.c **** 
3386:Drivers/STM32F4xx_HAL_Driver/Src/stm32f4xx_hal_spi.c ****   /* Disable RXNE and ERR interrupt */
3387:Drivers/STM32F4xx_HAL_Driver/Src/stm32f4xx_hal_spi.c ****   __HAL_SPI_DISABLE_IT(hspi, (SPI_IT_RXNE | SPI_IT_ERR));
3388:Drivers/STM32F4xx_HAL_Driver/Src/stm32f4xx_hal_spi.c **** 
3389:Drivers/STM32F4xx_HAL_Driver/Src/stm32f4xx_hal_spi.c ****   SPI_CloseRx_ISR(hspi);
3390:Drivers/STM32F4xx_HAL_Driver/Src/stm32f4xx_hal_spi.c **** }
3391:Drivers/STM32F4xx_HAL_Driver/Src/stm32f4xx_hal_spi.c **** #endif /* USE_SPI_CRC */
3392:Drivers/STM32F4xx_HAL_Driver/Src/stm32f4xx_hal_spi.c **** 
3393:Drivers/STM32F4xx_HAL_Driver/Src/stm32f4xx_hal_spi.c **** /**
3394:Drivers/STM32F4xx_HAL_Driver/Src/stm32f4xx_hal_spi.c ****   * @brief  Manage the 16-bit receive in Interrupt context.
3395:Drivers/STM32F4xx_HAL_Driver/Src/stm32f4xx_hal_spi.c ****   * @param  hspi pointer to a SPI_HandleTypeDef structure that contains
3396:Drivers/STM32F4xx_HAL_Driver/Src/stm32f4xx_hal_spi.c ****   *               the configuration information for SPI module.
3397:Drivers/STM32F4xx_HAL_Driver/Src/stm32f4xx_hal_spi.c ****   * @retval None
3398:Drivers/STM32F4xx_HAL_Driver/Src/stm32f4xx_hal_spi.c ****   */
3399:Drivers/STM32F4xx_HAL_Driver/Src/stm32f4xx_hal_spi.c **** static void SPI_RxISR_16BIT(struct __SPI_HandleTypeDef *hspi)
3400:Drivers/STM32F4xx_HAL_Driver/Src/stm32f4xx_hal_spi.c **** {
 6425              		.loc 1 3400 1
 6426              		.cfi_startproc
 6427              		@ args = 0, pretend = 0, frame = 8
 6428              		@ frame_needed = 1, uses_anonymous_args = 0
 6429 0000 80B5     		push	{r7, lr}
 6430              	.LCFI236:
 6431              		.cfi_def_cfa_offset 8
 6432              		.cfi_offset 7, -8
 6433              		.cfi_offset 14, -4
 6434 0002 82B0     		sub	sp, sp, #8
 6435              	.LCFI237:
 6436              		.cfi_def_cfa_offset 16
 6437 0004 00AF     		add	r7, sp, #0
 6438              	.LCFI238:
 6439              		.cfi_def_cfa_register 7
 6440 0006 7860     		str	r0, [r7, #4]
3401:Drivers/STM32F4xx_HAL_Driver/Src/stm32f4xx_hal_spi.c ****   *((uint16_t *)hspi->pRxBuffPtr) = (uint16_t)(hspi->Instance->DR);
 6441              		.loc 1 3401 52
 6442 0008 7B68     		ldr	r3, [r7, #4]
 6443 000a 1B68     		ldr	r3, [r3]
 6444              		.loc 1 3401 62
 6445 000c DA68     		ldr	r2, [r3, #12]
 6446              		.loc 1 3401 21
 6447 000e 7B68     		ldr	r3, [r7, #4]
 6448 0010 9B6B     		ldr	r3, [r3, #56]
 6449              		.loc 1 3401 37
 6450 0012 92B2     		uxth	r2, r2
 6451              		.loc 1 3401 35
 6452 0014 1A80     		strh	r2, [r3]	@ movhi
3402:Drivers/STM32F4xx_HAL_Driver/Src/stm32f4xx_hal_spi.c ****   hspi->pRxBuffPtr += sizeof(uint16_t);
 6453              		.loc 1 3402 20
 6454 0016 7B68     		ldr	r3, [r7, #4]
 6455 0018 9B6B     		ldr	r3, [r3, #56]
 6456 001a 9A1C     		adds	r2, r3, #2
 6457 001c 7B68     		ldr	r3, [r7, #4]
 6458 001e 9A63     		str	r2, [r3, #56]
3403:Drivers/STM32F4xx_HAL_Driver/Src/stm32f4xx_hal_spi.c ****   hspi->RxXferCount--;
 6459              		.loc 1 3403 7
 6460 0020 7B68     		ldr	r3, [r7, #4]
 6461 0022 DB8F     		ldrh	r3, [r3, #62]	@ movhi
ARM GAS  C:\Users\16323\AppData\Local\Temp\ccbQ7VoP.s 			page 173


 6462 0024 9BB2     		uxth	r3, r3
 6463              		.loc 1 3403 20
 6464 0026 013B     		subs	r3, r3, #1
 6465 0028 9AB2     		uxth	r2, r3
 6466 002a 7B68     		ldr	r3, [r7, #4]
 6467 002c DA87     		strh	r2, [r3, #62]	@ movhi
3404:Drivers/STM32F4xx_HAL_Driver/Src/stm32f4xx_hal_spi.c **** 
3405:Drivers/STM32F4xx_HAL_Driver/Src/stm32f4xx_hal_spi.c **** #if (USE_SPI_CRC != 0U)
3406:Drivers/STM32F4xx_HAL_Driver/Src/stm32f4xx_hal_spi.c ****   /* Enable CRC Transmission */
3407:Drivers/STM32F4xx_HAL_Driver/Src/stm32f4xx_hal_spi.c ****   if ((hspi->RxXferCount == 1U) && (hspi->Init.CRCCalculation == SPI_CRCCALCULATION_ENABLE))
3408:Drivers/STM32F4xx_HAL_Driver/Src/stm32f4xx_hal_spi.c ****   {
3409:Drivers/STM32F4xx_HAL_Driver/Src/stm32f4xx_hal_spi.c ****     SET_BIT(hspi->Instance->CR1, SPI_CR1_CRCNEXT);
3410:Drivers/STM32F4xx_HAL_Driver/Src/stm32f4xx_hal_spi.c ****   }
3411:Drivers/STM32F4xx_HAL_Driver/Src/stm32f4xx_hal_spi.c **** #endif /* USE_SPI_CRC */
3412:Drivers/STM32F4xx_HAL_Driver/Src/stm32f4xx_hal_spi.c **** 
3413:Drivers/STM32F4xx_HAL_Driver/Src/stm32f4xx_hal_spi.c ****   if (hspi->RxXferCount == 0U)
 6468              		.loc 1 3413 11
 6469 002e 7B68     		ldr	r3, [r7, #4]
 6470 0030 DB8F     		ldrh	r3, [r3, #62]	@ movhi
 6471 0032 9BB2     		uxth	r3, r3
 6472              		.loc 1 3413 6
 6473 0034 002B     		cmp	r3, #0
 6474 0036 02D1     		bne	.L302
3414:Drivers/STM32F4xx_HAL_Driver/Src/stm32f4xx_hal_spi.c ****   {
3415:Drivers/STM32F4xx_HAL_Driver/Src/stm32f4xx_hal_spi.c **** #if (USE_SPI_CRC != 0U)
3416:Drivers/STM32F4xx_HAL_Driver/Src/stm32f4xx_hal_spi.c ****     if (hspi->Init.CRCCalculation == SPI_CRCCALCULATION_ENABLE)
3417:Drivers/STM32F4xx_HAL_Driver/Src/stm32f4xx_hal_spi.c ****     {
3418:Drivers/STM32F4xx_HAL_Driver/Src/stm32f4xx_hal_spi.c ****       hspi->RxISR = SPI_RxISR_16BITCRC;
3419:Drivers/STM32F4xx_HAL_Driver/Src/stm32f4xx_hal_spi.c ****       return;
3420:Drivers/STM32F4xx_HAL_Driver/Src/stm32f4xx_hal_spi.c ****     }
3421:Drivers/STM32F4xx_HAL_Driver/Src/stm32f4xx_hal_spi.c **** #endif /* USE_SPI_CRC */
3422:Drivers/STM32F4xx_HAL_Driver/Src/stm32f4xx_hal_spi.c ****     SPI_CloseRx_ISR(hspi);
 6475              		.loc 1 3422 5
 6476 0038 7868     		ldr	r0, [r7, #4]
 6477 003a FFF7FEFF 		bl	SPI_CloseRx_ISR
 6478              	.L302:
3423:Drivers/STM32F4xx_HAL_Driver/Src/stm32f4xx_hal_spi.c ****   }
3424:Drivers/STM32F4xx_HAL_Driver/Src/stm32f4xx_hal_spi.c **** }
 6479              		.loc 1 3424 1
 6480 003e 00BF     		nop
 6481 0040 0837     		adds	r7, r7, #8
 6482              	.LCFI239:
 6483              		.cfi_def_cfa_offset 8
 6484 0042 BD46     		mov	sp, r7
 6485              	.LCFI240:
 6486              		.cfi_def_cfa_register 13
 6487              		@ sp needed
 6488 0044 80BD     		pop	{r7, pc}
 6489              		.cfi_endproc
 6490              	.LFE283:
 6492              		.section	.text.SPI_TxISR_8BIT,"ax",%progbits
 6493              		.align	1
 6494              		.syntax unified
 6495              		.thumb
 6496              		.thumb_func
 6498              	SPI_TxISR_8BIT:
 6499              	.LFB284:
ARM GAS  C:\Users\16323\AppData\Local\Temp\ccbQ7VoP.s 			page 174


3425:Drivers/STM32F4xx_HAL_Driver/Src/stm32f4xx_hal_spi.c **** 
3426:Drivers/STM32F4xx_HAL_Driver/Src/stm32f4xx_hal_spi.c **** /**
3427:Drivers/STM32F4xx_HAL_Driver/Src/stm32f4xx_hal_spi.c ****   * @brief  Handle the data 8-bit transmit in Interrupt mode.
3428:Drivers/STM32F4xx_HAL_Driver/Src/stm32f4xx_hal_spi.c ****   * @param  hspi pointer to a SPI_HandleTypeDef structure that contains
3429:Drivers/STM32F4xx_HAL_Driver/Src/stm32f4xx_hal_spi.c ****   *               the configuration information for SPI module.
3430:Drivers/STM32F4xx_HAL_Driver/Src/stm32f4xx_hal_spi.c ****   * @retval None
3431:Drivers/STM32F4xx_HAL_Driver/Src/stm32f4xx_hal_spi.c ****   */
3432:Drivers/STM32F4xx_HAL_Driver/Src/stm32f4xx_hal_spi.c **** static void SPI_TxISR_8BIT(struct __SPI_HandleTypeDef *hspi)
3433:Drivers/STM32F4xx_HAL_Driver/Src/stm32f4xx_hal_spi.c **** {
 6500              		.loc 1 3433 1
 6501              		.cfi_startproc
 6502              		@ args = 0, pretend = 0, frame = 8
 6503              		@ frame_needed = 1, uses_anonymous_args = 0
 6504 0000 80B5     		push	{r7, lr}
 6505              	.LCFI241:
 6506              		.cfi_def_cfa_offset 8
 6507              		.cfi_offset 7, -8
 6508              		.cfi_offset 14, -4
 6509 0002 82B0     		sub	sp, sp, #8
 6510              	.LCFI242:
 6511              		.cfi_def_cfa_offset 16
 6512 0004 00AF     		add	r7, sp, #0
 6513              	.LCFI243:
 6514              		.cfi_def_cfa_register 7
 6515 0006 7860     		str	r0, [r7, #4]
3434:Drivers/STM32F4xx_HAL_Driver/Src/stm32f4xx_hal_spi.c ****   *(__IO uint8_t *)&hspi->Instance->DR = *((const uint8_t *)hspi->pTxBuffPtr);
 6516              		.loc 1 3434 65
 6517 0008 7B68     		ldr	r3, [r7, #4]
 6518 000a 1A6B     		ldr	r2, [r3, #48]
 6519              		.loc 1 3434 25
 6520 000c 7B68     		ldr	r3, [r7, #4]
 6521 000e 1B68     		ldr	r3, [r3]
 6522              		.loc 1 3434 20
 6523 0010 0C33     		adds	r3, r3, #12
 6524              		.loc 1 3434 42
 6525 0012 1278     		ldrb	r2, [r2]	@ zero_extendqisi2
 6526              		.loc 1 3434 40
 6527 0014 1A70     		strb	r2, [r3]
3435:Drivers/STM32F4xx_HAL_Driver/Src/stm32f4xx_hal_spi.c ****   hspi->pTxBuffPtr++;
 6528              		.loc 1 3435 7
 6529 0016 7B68     		ldr	r3, [r7, #4]
 6530 0018 1B6B     		ldr	r3, [r3, #48]
 6531              		.loc 1 3435 19
 6532 001a 5A1C     		adds	r2, r3, #1
 6533 001c 7B68     		ldr	r3, [r7, #4]
 6534 001e 1A63     		str	r2, [r3, #48]
3436:Drivers/STM32F4xx_HAL_Driver/Src/stm32f4xx_hal_spi.c ****   hspi->TxXferCount--;
 6535              		.loc 1 3436 7
 6536 0020 7B68     		ldr	r3, [r7, #4]
 6537 0022 DB8E     		ldrh	r3, [r3, #54]	@ movhi
 6538 0024 9BB2     		uxth	r3, r3
 6539              		.loc 1 3436 20
 6540 0026 013B     		subs	r3, r3, #1
 6541 0028 9AB2     		uxth	r2, r3
 6542 002a 7B68     		ldr	r3, [r7, #4]
 6543 002c DA86     		strh	r2, [r3, #54]	@ movhi
3437:Drivers/STM32F4xx_HAL_Driver/Src/stm32f4xx_hal_spi.c **** 
ARM GAS  C:\Users\16323\AppData\Local\Temp\ccbQ7VoP.s 			page 175


3438:Drivers/STM32F4xx_HAL_Driver/Src/stm32f4xx_hal_spi.c ****   if (hspi->TxXferCount == 0U)
 6544              		.loc 1 3438 11
 6545 002e 7B68     		ldr	r3, [r7, #4]
 6546 0030 DB8E     		ldrh	r3, [r3, #54]	@ movhi
 6547 0032 9BB2     		uxth	r3, r3
 6548              		.loc 1 3438 6
 6549 0034 002B     		cmp	r3, #0
 6550 0036 02D1     		bne	.L305
3439:Drivers/STM32F4xx_HAL_Driver/Src/stm32f4xx_hal_spi.c ****   {
3440:Drivers/STM32F4xx_HAL_Driver/Src/stm32f4xx_hal_spi.c **** #if (USE_SPI_CRC != 0U)
3441:Drivers/STM32F4xx_HAL_Driver/Src/stm32f4xx_hal_spi.c ****     if (hspi->Init.CRCCalculation == SPI_CRCCALCULATION_ENABLE)
3442:Drivers/STM32F4xx_HAL_Driver/Src/stm32f4xx_hal_spi.c ****     {
3443:Drivers/STM32F4xx_HAL_Driver/Src/stm32f4xx_hal_spi.c ****       /* Enable CRC Transmission */
3444:Drivers/STM32F4xx_HAL_Driver/Src/stm32f4xx_hal_spi.c ****       SET_BIT(hspi->Instance->CR1, SPI_CR1_CRCNEXT);
3445:Drivers/STM32F4xx_HAL_Driver/Src/stm32f4xx_hal_spi.c ****     }
3446:Drivers/STM32F4xx_HAL_Driver/Src/stm32f4xx_hal_spi.c **** #endif /* USE_SPI_CRC */
3447:Drivers/STM32F4xx_HAL_Driver/Src/stm32f4xx_hal_spi.c ****     SPI_CloseTx_ISR(hspi);
 6551              		.loc 1 3447 5
 6552 0038 7868     		ldr	r0, [r7, #4]
 6553 003a FFF7FEFF 		bl	SPI_CloseTx_ISR
 6554              	.L305:
3448:Drivers/STM32F4xx_HAL_Driver/Src/stm32f4xx_hal_spi.c ****   }
3449:Drivers/STM32F4xx_HAL_Driver/Src/stm32f4xx_hal_spi.c **** }
 6555              		.loc 1 3449 1
 6556 003e 00BF     		nop
 6557 0040 0837     		adds	r7, r7, #8
 6558              	.LCFI244:
 6559              		.cfi_def_cfa_offset 8
 6560 0042 BD46     		mov	sp, r7
 6561              	.LCFI245:
 6562              		.cfi_def_cfa_register 13
 6563              		@ sp needed
 6564 0044 80BD     		pop	{r7, pc}
 6565              		.cfi_endproc
 6566              	.LFE284:
 6568              		.section	.text.SPI_TxISR_16BIT,"ax",%progbits
 6569              		.align	1
 6570              		.syntax unified
 6571              		.thumb
 6572              		.thumb_func
 6574              	SPI_TxISR_16BIT:
 6575              	.LFB285:
3450:Drivers/STM32F4xx_HAL_Driver/Src/stm32f4xx_hal_spi.c **** 
3451:Drivers/STM32F4xx_HAL_Driver/Src/stm32f4xx_hal_spi.c **** /**
3452:Drivers/STM32F4xx_HAL_Driver/Src/stm32f4xx_hal_spi.c ****   * @brief  Handle the data 16-bit transmit in Interrupt mode.
3453:Drivers/STM32F4xx_HAL_Driver/Src/stm32f4xx_hal_spi.c ****   * @param  hspi pointer to a SPI_HandleTypeDef structure that contains
3454:Drivers/STM32F4xx_HAL_Driver/Src/stm32f4xx_hal_spi.c ****   *               the configuration information for SPI module.
3455:Drivers/STM32F4xx_HAL_Driver/Src/stm32f4xx_hal_spi.c ****   * @retval None
3456:Drivers/STM32F4xx_HAL_Driver/Src/stm32f4xx_hal_spi.c ****   */
3457:Drivers/STM32F4xx_HAL_Driver/Src/stm32f4xx_hal_spi.c **** static void SPI_TxISR_16BIT(struct __SPI_HandleTypeDef *hspi)
3458:Drivers/STM32F4xx_HAL_Driver/Src/stm32f4xx_hal_spi.c **** {
 6576              		.loc 1 3458 1
 6577              		.cfi_startproc
 6578              		@ args = 0, pretend = 0, frame = 8
 6579              		@ frame_needed = 1, uses_anonymous_args = 0
 6580 0000 80B5     		push	{r7, lr}
 6581              	.LCFI246:
ARM GAS  C:\Users\16323\AppData\Local\Temp\ccbQ7VoP.s 			page 176


 6582              		.cfi_def_cfa_offset 8
 6583              		.cfi_offset 7, -8
 6584              		.cfi_offset 14, -4
 6585 0002 82B0     		sub	sp, sp, #8
 6586              	.LCFI247:
 6587              		.cfi_def_cfa_offset 16
 6588 0004 00AF     		add	r7, sp, #0
 6589              	.LCFI248:
 6590              		.cfi_def_cfa_register 7
 6591 0006 7860     		str	r0, [r7, #4]
3459:Drivers/STM32F4xx_HAL_Driver/Src/stm32f4xx_hal_spi.c ****   /* Transmit data in 16 Bit mode */
3460:Drivers/STM32F4xx_HAL_Driver/Src/stm32f4xx_hal_spi.c ****   hspi->Instance->DR = *((const uint16_t *)hspi->pTxBuffPtr);
 6592              		.loc 1 3460 48
 6593 0008 7B68     		ldr	r3, [r7, #4]
 6594 000a 1B6B     		ldr	r3, [r3, #48]
 6595              		.loc 1 3460 24
 6596 000c 1A88     		ldrh	r2, [r3]
 6597              		.loc 1 3460 7
 6598 000e 7B68     		ldr	r3, [r7, #4]
 6599 0010 1B68     		ldr	r3, [r3]
 6600              		.loc 1 3460 22
 6601 0012 DA60     		str	r2, [r3, #12]
3461:Drivers/STM32F4xx_HAL_Driver/Src/stm32f4xx_hal_spi.c ****   hspi->pTxBuffPtr += sizeof(uint16_t);
 6602              		.loc 1 3461 20
 6603 0014 7B68     		ldr	r3, [r7, #4]
 6604 0016 1B6B     		ldr	r3, [r3, #48]
 6605 0018 9A1C     		adds	r2, r3, #2
 6606 001a 7B68     		ldr	r3, [r7, #4]
 6607 001c 1A63     		str	r2, [r3, #48]
3462:Drivers/STM32F4xx_HAL_Driver/Src/stm32f4xx_hal_spi.c ****   hspi->TxXferCount--;
 6608              		.loc 1 3462 7
 6609 001e 7B68     		ldr	r3, [r7, #4]
 6610 0020 DB8E     		ldrh	r3, [r3, #54]	@ movhi
 6611 0022 9BB2     		uxth	r3, r3
 6612              		.loc 1 3462 20
 6613 0024 013B     		subs	r3, r3, #1
 6614 0026 9AB2     		uxth	r2, r3
 6615 0028 7B68     		ldr	r3, [r7, #4]
 6616 002a DA86     		strh	r2, [r3, #54]	@ movhi
3463:Drivers/STM32F4xx_HAL_Driver/Src/stm32f4xx_hal_spi.c **** 
3464:Drivers/STM32F4xx_HAL_Driver/Src/stm32f4xx_hal_spi.c ****   if (hspi->TxXferCount == 0U)
 6617              		.loc 1 3464 11
 6618 002c 7B68     		ldr	r3, [r7, #4]
 6619 002e DB8E     		ldrh	r3, [r3, #54]	@ movhi
 6620 0030 9BB2     		uxth	r3, r3
 6621              		.loc 1 3464 6
 6622 0032 002B     		cmp	r3, #0
 6623 0034 02D1     		bne	.L308
3465:Drivers/STM32F4xx_HAL_Driver/Src/stm32f4xx_hal_spi.c ****   {
3466:Drivers/STM32F4xx_HAL_Driver/Src/stm32f4xx_hal_spi.c **** #if (USE_SPI_CRC != 0U)
3467:Drivers/STM32F4xx_HAL_Driver/Src/stm32f4xx_hal_spi.c ****     if (hspi->Init.CRCCalculation == SPI_CRCCALCULATION_ENABLE)
3468:Drivers/STM32F4xx_HAL_Driver/Src/stm32f4xx_hal_spi.c ****     {
3469:Drivers/STM32F4xx_HAL_Driver/Src/stm32f4xx_hal_spi.c ****       /* Enable CRC Transmission */
3470:Drivers/STM32F4xx_HAL_Driver/Src/stm32f4xx_hal_spi.c ****       SET_BIT(hspi->Instance->CR1, SPI_CR1_CRCNEXT);
3471:Drivers/STM32F4xx_HAL_Driver/Src/stm32f4xx_hal_spi.c ****     }
3472:Drivers/STM32F4xx_HAL_Driver/Src/stm32f4xx_hal_spi.c **** #endif /* USE_SPI_CRC */
3473:Drivers/STM32F4xx_HAL_Driver/Src/stm32f4xx_hal_spi.c ****     SPI_CloseTx_ISR(hspi);
ARM GAS  C:\Users\16323\AppData\Local\Temp\ccbQ7VoP.s 			page 177


 6624              		.loc 1 3473 5
 6625 0036 7868     		ldr	r0, [r7, #4]
 6626 0038 FFF7FEFF 		bl	SPI_CloseTx_ISR
 6627              	.L308:
3474:Drivers/STM32F4xx_HAL_Driver/Src/stm32f4xx_hal_spi.c ****   }
3475:Drivers/STM32F4xx_HAL_Driver/Src/stm32f4xx_hal_spi.c **** }
 6628              		.loc 1 3475 1
 6629 003c 00BF     		nop
 6630 003e 0837     		adds	r7, r7, #8
 6631              	.LCFI249:
 6632              		.cfi_def_cfa_offset 8
 6633 0040 BD46     		mov	sp, r7
 6634              	.LCFI250:
 6635              		.cfi_def_cfa_register 13
 6636              		@ sp needed
 6637 0042 80BD     		pop	{r7, pc}
 6638              		.cfi_endproc
 6639              	.LFE285:
 6641              		.section	.text.SPI_WaitFlagStateUntilTimeout,"ax",%progbits
 6642              		.align	1
 6643              		.syntax unified
 6644              		.thumb
 6645              		.thumb_func
 6647              	SPI_WaitFlagStateUntilTimeout:
 6648              	.LFB286:
3476:Drivers/STM32F4xx_HAL_Driver/Src/stm32f4xx_hal_spi.c **** 
3477:Drivers/STM32F4xx_HAL_Driver/Src/stm32f4xx_hal_spi.c **** /**
3478:Drivers/STM32F4xx_HAL_Driver/Src/stm32f4xx_hal_spi.c ****   * @brief  Handle SPI Communication Timeout.
3479:Drivers/STM32F4xx_HAL_Driver/Src/stm32f4xx_hal_spi.c ****   * @param  hspi pointer to a SPI_HandleTypeDef structure that contains
3480:Drivers/STM32F4xx_HAL_Driver/Src/stm32f4xx_hal_spi.c ****   *              the configuration information for SPI module.
3481:Drivers/STM32F4xx_HAL_Driver/Src/stm32f4xx_hal_spi.c ****   * @param  Flag SPI flag to check
3482:Drivers/STM32F4xx_HAL_Driver/Src/stm32f4xx_hal_spi.c ****   * @param  State flag state to check
3483:Drivers/STM32F4xx_HAL_Driver/Src/stm32f4xx_hal_spi.c ****   * @param  Timeout Timeout duration
3484:Drivers/STM32F4xx_HAL_Driver/Src/stm32f4xx_hal_spi.c ****   * @param  Tickstart tick start value
3485:Drivers/STM32F4xx_HAL_Driver/Src/stm32f4xx_hal_spi.c ****   * @retval HAL status
3486:Drivers/STM32F4xx_HAL_Driver/Src/stm32f4xx_hal_spi.c ****   */
3487:Drivers/STM32F4xx_HAL_Driver/Src/stm32f4xx_hal_spi.c **** static HAL_StatusTypeDef SPI_WaitFlagStateUntilTimeout(SPI_HandleTypeDef *hspi, uint32_t Flag, Flag
3488:Drivers/STM32F4xx_HAL_Driver/Src/stm32f4xx_hal_spi.c ****                                                        uint32_t Timeout, uint32_t Tickstart)
3489:Drivers/STM32F4xx_HAL_Driver/Src/stm32f4xx_hal_spi.c **** {
 6649              		.loc 1 3489 1
 6650              		.cfi_startproc
 6651              		@ args = 4, pretend = 0, frame = 32
 6652              		@ frame_needed = 1, uses_anonymous_args = 0
 6653 0000 80B5     		push	{r7, lr}
 6654              	.LCFI251:
 6655              		.cfi_def_cfa_offset 8
 6656              		.cfi_offset 7, -8
 6657              		.cfi_offset 14, -4
 6658 0002 88B0     		sub	sp, sp, #32
 6659              	.LCFI252:
 6660              		.cfi_def_cfa_offset 40
 6661 0004 00AF     		add	r7, sp, #0
 6662              	.LCFI253:
 6663              		.cfi_def_cfa_register 7
 6664 0006 F860     		str	r0, [r7, #12]
 6665 0008 B960     		str	r1, [r7, #8]
 6666 000a 3B60     		str	r3, [r7]
ARM GAS  C:\Users\16323\AppData\Local\Temp\ccbQ7VoP.s 			page 178


 6667 000c 1346     		mov	r3, r2
 6668 000e FB71     		strb	r3, [r7, #7]
3490:Drivers/STM32F4xx_HAL_Driver/Src/stm32f4xx_hal_spi.c ****   __IO uint32_t count;
3491:Drivers/STM32F4xx_HAL_Driver/Src/stm32f4xx_hal_spi.c ****   uint32_t tmp_timeout;
3492:Drivers/STM32F4xx_HAL_Driver/Src/stm32f4xx_hal_spi.c ****   uint32_t tmp_tickstart;
3493:Drivers/STM32F4xx_HAL_Driver/Src/stm32f4xx_hal_spi.c **** 
3494:Drivers/STM32F4xx_HAL_Driver/Src/stm32f4xx_hal_spi.c ****   /* Adjust Timeout value  in case of end of transfer */
3495:Drivers/STM32F4xx_HAL_Driver/Src/stm32f4xx_hal_spi.c ****   tmp_timeout   = Timeout - (HAL_GetTick() - Tickstart);
 6669              		.loc 1 3495 30
 6670 0010 FFF7FEFF 		bl	HAL_GetTick
 6671 0014 0246     		mov	r2, r0
 6672              		.loc 1 3495 44
 6673 0016 BB6A     		ldr	r3, [r7, #40]
 6674 0018 9B1A     		subs	r3, r3, r2
 6675              		.loc 1 3495 17
 6676 001a 3A68     		ldr	r2, [r7]
 6677 001c 1344     		add	r3, r3, r2
 6678 001e FB61     		str	r3, [r7, #28]
3496:Drivers/STM32F4xx_HAL_Driver/Src/stm32f4xx_hal_spi.c ****   tmp_tickstart = HAL_GetTick();
 6679              		.loc 1 3496 19
 6680 0020 FFF7FEFF 		bl	HAL_GetTick
 6681 0024 B861     		str	r0, [r7, #24]
3497:Drivers/STM32F4xx_HAL_Driver/Src/stm32f4xx_hal_spi.c **** 
3498:Drivers/STM32F4xx_HAL_Driver/Src/stm32f4xx_hal_spi.c ****   /* Calculate Timeout based on a software loop to avoid blocking issue if Systick is disabled */
3499:Drivers/STM32F4xx_HAL_Driver/Src/stm32f4xx_hal_spi.c ****   count = tmp_timeout * ((SystemCoreClock * 32U) >> 20U);
 6682              		.loc 1 3499 43
 6683 0026 394B     		ldr	r3, .L319
 6684 0028 1B68     		ldr	r3, [r3]
 6685 002a 5B01     		lsls	r3, r3, #5
 6686              		.loc 1 3499 50
 6687 002c 1B0D     		lsrs	r3, r3, #20
 6688              		.loc 1 3499 23
 6689 002e FA69     		ldr	r2, [r7, #28]
 6690 0030 02FB03F3 		mul	r3, r2, r3
 6691              		.loc 1 3499 9
 6692 0034 7B61     		str	r3, [r7, #20]
3500:Drivers/STM32F4xx_HAL_Driver/Src/stm32f4xx_hal_spi.c **** 
3501:Drivers/STM32F4xx_HAL_Driver/Src/stm32f4xx_hal_spi.c ****   while ((__HAL_SPI_GET_FLAG(hspi, Flag) ? SET : RESET) != State)
 6693              		.loc 1 3501 9
 6694 0036 54E0     		b	.L310
 6695              	.L318:
3502:Drivers/STM32F4xx_HAL_Driver/Src/stm32f4xx_hal_spi.c ****   {
3503:Drivers/STM32F4xx_HAL_Driver/Src/stm32f4xx_hal_spi.c ****     if (Timeout != HAL_MAX_DELAY)
 6696              		.loc 1 3503 8
 6697 0038 3B68     		ldr	r3, [r7]
 6698 003a B3F1FF3F 		cmp	r3, #-1
 6699 003e 50D0     		beq	.L310
3504:Drivers/STM32F4xx_HAL_Driver/Src/stm32f4xx_hal_spi.c ****     {
3505:Drivers/STM32F4xx_HAL_Driver/Src/stm32f4xx_hal_spi.c ****       if (((HAL_GetTick() - tmp_tickstart) >= tmp_timeout) || (tmp_timeout == 0U))
 6700              		.loc 1 3505 13
 6701 0040 FFF7FEFF 		bl	HAL_GetTick
 6702 0044 0246     		mov	r2, r0
 6703              		.loc 1 3505 27
 6704 0046 BB69     		ldr	r3, [r7, #24]
 6705 0048 D31A     		subs	r3, r2, r3
 6706              		.loc 1 3505 10
 6707 004a FA69     		ldr	r2, [r7, #28]
ARM GAS  C:\Users\16323\AppData\Local\Temp\ccbQ7VoP.s 			page 179


 6708 004c 9A42     		cmp	r2, r3
 6709 004e 02D9     		bls	.L311
 6710              		.loc 1 3505 60 discriminator 1
 6711 0050 FB69     		ldr	r3, [r7, #28]
 6712 0052 002B     		cmp	r3, #0
 6713 0054 3DD1     		bne	.L312
 6714              	.L311:
3506:Drivers/STM32F4xx_HAL_Driver/Src/stm32f4xx_hal_spi.c ****       {
3507:Drivers/STM32F4xx_HAL_Driver/Src/stm32f4xx_hal_spi.c ****         /* Disable the SPI and reset the CRC: the CRC value should be cleared
3508:Drivers/STM32F4xx_HAL_Driver/Src/stm32f4xx_hal_spi.c ****            on both master and slave sides in order to resynchronize the master
3509:Drivers/STM32F4xx_HAL_Driver/Src/stm32f4xx_hal_spi.c ****            and slave for their respective CRC calculation */
3510:Drivers/STM32F4xx_HAL_Driver/Src/stm32f4xx_hal_spi.c **** 
3511:Drivers/STM32F4xx_HAL_Driver/Src/stm32f4xx_hal_spi.c ****         /* Disable TXE, RXNE and ERR interrupts for the interrupt process */
3512:Drivers/STM32F4xx_HAL_Driver/Src/stm32f4xx_hal_spi.c ****         __HAL_SPI_DISABLE_IT(hspi, (SPI_IT_TXE | SPI_IT_RXNE | SPI_IT_ERR));
 6715              		.loc 1 3512 9
 6716 0056 FB68     		ldr	r3, [r7, #12]
 6717 0058 1B68     		ldr	r3, [r3]
 6718 005a 5A68     		ldr	r2, [r3, #4]
 6719 005c FB68     		ldr	r3, [r7, #12]
 6720 005e 1B68     		ldr	r3, [r3]
 6721 0060 22F0E002 		bic	r2, r2, #224
 6722 0064 5A60     		str	r2, [r3, #4]
3513:Drivers/STM32F4xx_HAL_Driver/Src/stm32f4xx_hal_spi.c **** 
3514:Drivers/STM32F4xx_HAL_Driver/Src/stm32f4xx_hal_spi.c ****         if ((hspi->Init.Mode == SPI_MODE_MASTER) && ((hspi->Init.Direction == SPI_DIRECTION_1LINE)
 6723              		.loc 1 3514 24
 6724 0066 FB68     		ldr	r3, [r7, #12]
 6725 0068 5B68     		ldr	r3, [r3, #4]
 6726              		.loc 1 3514 12
 6727 006a B3F5827F 		cmp	r3, #260
 6728 006e 11D1     		bne	.L313
 6729              		.loc 1 3514 65 discriminator 1
 6730 0070 FB68     		ldr	r3, [r7, #12]
 6731 0072 9B68     		ldr	r3, [r3, #8]
 6732              		.loc 1 3514 50 discriminator 1
 6733 0074 B3F5004F 		cmp	r3, #32768
 6734 0078 04D0     		beq	.L314
3515:Drivers/STM32F4xx_HAL_Driver/Src/stm32f4xx_hal_spi.c ****                                                      || (hspi->Init.Direction == SPI_DIRECTION_2LIN
 6735              		.loc 1 3515 68
 6736 007a FB68     		ldr	r3, [r7, #12]
 6737 007c 9B68     		ldr	r3, [r3, #8]
 6738              		.loc 1 3515 54
 6739 007e B3F5806F 		cmp	r3, #1024
 6740 0082 07D1     		bne	.L313
 6741              	.L314:
3516:Drivers/STM32F4xx_HAL_Driver/Src/stm32f4xx_hal_spi.c ****         {
3517:Drivers/STM32F4xx_HAL_Driver/Src/stm32f4xx_hal_spi.c ****           /* Disable SPI peripheral */
3518:Drivers/STM32F4xx_HAL_Driver/Src/stm32f4xx_hal_spi.c ****           __HAL_SPI_DISABLE(hspi);
 6742              		.loc 1 3518 11
 6743 0084 FB68     		ldr	r3, [r7, #12]
 6744 0086 1B68     		ldr	r3, [r3]
 6745 0088 1A68     		ldr	r2, [r3]
 6746 008a FB68     		ldr	r3, [r7, #12]
 6747 008c 1B68     		ldr	r3, [r3]
 6748 008e 22F04002 		bic	r2, r2, #64
 6749 0092 1A60     		str	r2, [r3]
 6750              	.L313:
3519:Drivers/STM32F4xx_HAL_Driver/Src/stm32f4xx_hal_spi.c ****         }
ARM GAS  C:\Users\16323\AppData\Local\Temp\ccbQ7VoP.s 			page 180


3520:Drivers/STM32F4xx_HAL_Driver/Src/stm32f4xx_hal_spi.c **** 
3521:Drivers/STM32F4xx_HAL_Driver/Src/stm32f4xx_hal_spi.c ****         /* Reset CRC Calculation */
3522:Drivers/STM32F4xx_HAL_Driver/Src/stm32f4xx_hal_spi.c ****         if (hspi->Init.CRCCalculation == SPI_CRCCALCULATION_ENABLE)
 6751              		.loc 1 3522 23
 6752 0094 FB68     		ldr	r3, [r7, #12]
 6753 0096 9B6A     		ldr	r3, [r3, #40]
 6754              		.loc 1 3522 12
 6755 0098 B3F5005F 		cmp	r3, #8192
 6756 009c 0FD1     		bne	.L315
3523:Drivers/STM32F4xx_HAL_Driver/Src/stm32f4xx_hal_spi.c ****         {
3524:Drivers/STM32F4xx_HAL_Driver/Src/stm32f4xx_hal_spi.c ****           SPI_RESET_CRC(hspi);
 6757              		.loc 1 3524 11
 6758 009e FB68     		ldr	r3, [r7, #12]
 6759 00a0 1B68     		ldr	r3, [r3]
 6760 00a2 1A68     		ldr	r2, [r3]
 6761 00a4 FB68     		ldr	r3, [r7, #12]
 6762 00a6 1B68     		ldr	r3, [r3]
 6763 00a8 22F40052 		bic	r2, r2, #8192
 6764 00ac 1A60     		str	r2, [r3]
 6765 00ae FB68     		ldr	r3, [r7, #12]
 6766 00b0 1B68     		ldr	r3, [r3]
 6767 00b2 1A68     		ldr	r2, [r3]
 6768 00b4 FB68     		ldr	r3, [r7, #12]
 6769 00b6 1B68     		ldr	r3, [r3]
 6770 00b8 42F40052 		orr	r2, r2, #8192
 6771 00bc 1A60     		str	r2, [r3]
 6772              	.L315:
3525:Drivers/STM32F4xx_HAL_Driver/Src/stm32f4xx_hal_spi.c ****         }
3526:Drivers/STM32F4xx_HAL_Driver/Src/stm32f4xx_hal_spi.c **** 
3527:Drivers/STM32F4xx_HAL_Driver/Src/stm32f4xx_hal_spi.c ****         hspi->State = HAL_SPI_STATE_READY;
 6773              		.loc 1 3527 21
 6774 00be FB68     		ldr	r3, [r7, #12]
 6775 00c0 0122     		movs	r2, #1
 6776 00c2 83F85120 		strb	r2, [r3, #81]
3528:Drivers/STM32F4xx_HAL_Driver/Src/stm32f4xx_hal_spi.c **** 
3529:Drivers/STM32F4xx_HAL_Driver/Src/stm32f4xx_hal_spi.c ****         /* Process Unlocked */
3530:Drivers/STM32F4xx_HAL_Driver/Src/stm32f4xx_hal_spi.c ****         __HAL_UNLOCK(hspi);
 6777              		.loc 1 3530 9
 6778 00c6 FB68     		ldr	r3, [r7, #12]
 6779 00c8 0022     		movs	r2, #0
 6780 00ca 83F85020 		strb	r2, [r3, #80]
3531:Drivers/STM32F4xx_HAL_Driver/Src/stm32f4xx_hal_spi.c **** 
3532:Drivers/STM32F4xx_HAL_Driver/Src/stm32f4xx_hal_spi.c ****         return HAL_TIMEOUT;
 6781              		.loc 1 3532 16
 6782 00ce 0323     		movs	r3, #3
 6783 00d0 17E0     		b	.L316
 6784              	.L312:
3533:Drivers/STM32F4xx_HAL_Driver/Src/stm32f4xx_hal_spi.c ****       }
3534:Drivers/STM32F4xx_HAL_Driver/Src/stm32f4xx_hal_spi.c ****       /* If Systick is disabled or not incremented, deactivate timeout to go in disable loop proced
3535:Drivers/STM32F4xx_HAL_Driver/Src/stm32f4xx_hal_spi.c ****       if (count == 0U)
 6785              		.loc 1 3535 17
 6786 00d2 7B69     		ldr	r3, [r7, #20]
 6787              		.loc 1 3535 10
 6788 00d4 002B     		cmp	r3, #0
 6789 00d6 01D1     		bne	.L317
3536:Drivers/STM32F4xx_HAL_Driver/Src/stm32f4xx_hal_spi.c ****       {
3537:Drivers/STM32F4xx_HAL_Driver/Src/stm32f4xx_hal_spi.c ****         tmp_timeout = 0U;
ARM GAS  C:\Users\16323\AppData\Local\Temp\ccbQ7VoP.s 			page 181


 6790              		.loc 1 3537 21
 6791 00d8 0023     		movs	r3, #0
 6792 00da FB61     		str	r3, [r7, #28]
 6793              	.L317:
3538:Drivers/STM32F4xx_HAL_Driver/Src/stm32f4xx_hal_spi.c ****       }
3539:Drivers/STM32F4xx_HAL_Driver/Src/stm32f4xx_hal_spi.c ****       count--;
 6794              		.loc 1 3539 12
 6795 00dc 7B69     		ldr	r3, [r7, #20]
 6796 00de 013B     		subs	r3, r3, #1
 6797 00e0 7B61     		str	r3, [r7, #20]
 6798              	.L310:
3501:Drivers/STM32F4xx_HAL_Driver/Src/stm32f4xx_hal_spi.c ****   {
 6799              		.loc 1 3501 11
 6800 00e2 FB68     		ldr	r3, [r7, #12]
 6801 00e4 1B68     		ldr	r3, [r3]
 6802 00e6 9A68     		ldr	r2, [r3, #8]
 6803 00e8 BB68     		ldr	r3, [r7, #8]
 6804 00ea 1340     		ands	r3, r3, r2
3501:Drivers/STM32F4xx_HAL_Driver/Src/stm32f4xx_hal_spi.c ****   {
 6805              		.loc 1 3501 48
 6806 00ec BA68     		ldr	r2, [r7, #8]
 6807 00ee 9A42     		cmp	r2, r3
 6808 00f0 0CBF     		ite	eq
 6809 00f2 0123     		moveq	r3, #1
 6810 00f4 0023     		movne	r3, #0
 6811 00f6 DBB2     		uxtb	r3, r3
 6812 00f8 1A46     		mov	r2, r3
3501:Drivers/STM32F4xx_HAL_Driver/Src/stm32f4xx_hal_spi.c ****   {
 6813              		.loc 1 3501 57
 6814 00fa FB79     		ldrb	r3, [r7, #7]	@ zero_extendqisi2
3501:Drivers/STM32F4xx_HAL_Driver/Src/stm32f4xx_hal_spi.c ****   {
 6815              		.loc 1 3501 9
 6816 00fc 9A42     		cmp	r2, r3
 6817 00fe 9BD1     		bne	.L318
3540:Drivers/STM32F4xx_HAL_Driver/Src/stm32f4xx_hal_spi.c ****     }
3541:Drivers/STM32F4xx_HAL_Driver/Src/stm32f4xx_hal_spi.c ****   }
3542:Drivers/STM32F4xx_HAL_Driver/Src/stm32f4xx_hal_spi.c **** 
3543:Drivers/STM32F4xx_HAL_Driver/Src/stm32f4xx_hal_spi.c ****   return HAL_OK;
 6818              		.loc 1 3543 10
 6819 0100 0023     		movs	r3, #0
 6820              	.L316:
3544:Drivers/STM32F4xx_HAL_Driver/Src/stm32f4xx_hal_spi.c **** }
 6821              		.loc 1 3544 1
 6822 0102 1846     		mov	r0, r3
 6823 0104 2037     		adds	r7, r7, #32
 6824              	.LCFI254:
 6825              		.cfi_def_cfa_offset 8
 6826 0106 BD46     		mov	sp, r7
 6827              	.LCFI255:
 6828              		.cfi_def_cfa_register 13
 6829              		@ sp needed
 6830 0108 80BD     		pop	{r7, pc}
 6831              	.L320:
 6832 010a 00BF     		.align	2
 6833              	.L319:
 6834 010c 00000000 		.word	SystemCoreClock
 6835              		.cfi_endproc
ARM GAS  C:\Users\16323\AppData\Local\Temp\ccbQ7VoP.s 			page 182


 6836              	.LFE286:
 6838              		.section	.text.SPI_EndRxTransaction,"ax",%progbits
 6839              		.align	1
 6840              		.syntax unified
 6841              		.thumb
 6842              		.thumb_func
 6844              	SPI_EndRxTransaction:
 6845              	.LFB287:
3545:Drivers/STM32F4xx_HAL_Driver/Src/stm32f4xx_hal_spi.c **** 
3546:Drivers/STM32F4xx_HAL_Driver/Src/stm32f4xx_hal_spi.c **** /**
3547:Drivers/STM32F4xx_HAL_Driver/Src/stm32f4xx_hal_spi.c ****   * @brief  Handle the check of the RX transaction complete.
3548:Drivers/STM32F4xx_HAL_Driver/Src/stm32f4xx_hal_spi.c ****   * @param  hspi pointer to a SPI_HandleTypeDef structure that contains
3549:Drivers/STM32F4xx_HAL_Driver/Src/stm32f4xx_hal_spi.c ****   *               the configuration information for SPI module.
3550:Drivers/STM32F4xx_HAL_Driver/Src/stm32f4xx_hal_spi.c ****   * @param  Timeout Timeout duration
3551:Drivers/STM32F4xx_HAL_Driver/Src/stm32f4xx_hal_spi.c ****   * @param  Tickstart tick start value
3552:Drivers/STM32F4xx_HAL_Driver/Src/stm32f4xx_hal_spi.c ****   * @retval HAL status
3553:Drivers/STM32F4xx_HAL_Driver/Src/stm32f4xx_hal_spi.c ****   */
3554:Drivers/STM32F4xx_HAL_Driver/Src/stm32f4xx_hal_spi.c **** static HAL_StatusTypeDef SPI_EndRxTransaction(SPI_HandleTypeDef *hspi,  uint32_t Timeout, uint32_t 
3555:Drivers/STM32F4xx_HAL_Driver/Src/stm32f4xx_hal_spi.c **** {
 6846              		.loc 1 3555 1
 6847              		.cfi_startproc
 6848              		@ args = 0, pretend = 0, frame = 16
 6849              		@ frame_needed = 1, uses_anonymous_args = 0
 6850 0000 80B5     		push	{r7, lr}
 6851              	.LCFI256:
 6852              		.cfi_def_cfa_offset 8
 6853              		.cfi_offset 7, -8
 6854              		.cfi_offset 14, -4
 6855 0002 86B0     		sub	sp, sp, #24
 6856              	.LCFI257:
 6857              		.cfi_def_cfa_offset 32
 6858 0004 02AF     		add	r7, sp, #8
 6859              	.LCFI258:
 6860              		.cfi_def_cfa 7, 24
 6861 0006 F860     		str	r0, [r7, #12]
 6862 0008 B960     		str	r1, [r7, #8]
 6863 000a 7A60     		str	r2, [r7, #4]
3556:Drivers/STM32F4xx_HAL_Driver/Src/stm32f4xx_hal_spi.c ****   if ((hspi->Init.Mode == SPI_MODE_MASTER) && ((hspi->Init.Direction == SPI_DIRECTION_1LINE)
 6864              		.loc 1 3556 18
 6865 000c FB68     		ldr	r3, [r7, #12]
 6866 000e 5B68     		ldr	r3, [r3, #4]
 6867              		.loc 1 3556 6
 6868 0010 B3F5827F 		cmp	r3, #260
 6869 0014 11D1     		bne	.L322
 6870              		.loc 1 3556 59 discriminator 1
 6871 0016 FB68     		ldr	r3, [r7, #12]
 6872 0018 9B68     		ldr	r3, [r3, #8]
 6873              		.loc 1 3556 44 discriminator 1
 6874 001a B3F5004F 		cmp	r3, #32768
 6875 001e 04D0     		beq	.L323
3557:Drivers/STM32F4xx_HAL_Driver/Src/stm32f4xx_hal_spi.c ****                                                || (hspi->Init.Direction == SPI_DIRECTION_2LINES_RXO
 6876              		.loc 1 3557 62
 6877 0020 FB68     		ldr	r3, [r7, #12]
 6878 0022 9B68     		ldr	r3, [r3, #8]
 6879              		.loc 1 3557 48
 6880 0024 B3F5806F 		cmp	r3, #1024
 6881 0028 07D1     		bne	.L322
ARM GAS  C:\Users\16323\AppData\Local\Temp\ccbQ7VoP.s 			page 183


 6882              	.L323:
3558:Drivers/STM32F4xx_HAL_Driver/Src/stm32f4xx_hal_spi.c ****   {
3559:Drivers/STM32F4xx_HAL_Driver/Src/stm32f4xx_hal_spi.c ****     /* Disable SPI peripheral */
3560:Drivers/STM32F4xx_HAL_Driver/Src/stm32f4xx_hal_spi.c ****     __HAL_SPI_DISABLE(hspi);
 6883              		.loc 1 3560 5
 6884 002a FB68     		ldr	r3, [r7, #12]
 6885 002c 1B68     		ldr	r3, [r3]
 6886 002e 1A68     		ldr	r2, [r3]
 6887 0030 FB68     		ldr	r3, [r7, #12]
 6888 0032 1B68     		ldr	r3, [r3]
 6889 0034 22F04002 		bic	r2, r2, #64
 6890 0038 1A60     		str	r2, [r3]
 6891              	.L322:
3561:Drivers/STM32F4xx_HAL_Driver/Src/stm32f4xx_hal_spi.c ****   }
3562:Drivers/STM32F4xx_HAL_Driver/Src/stm32f4xx_hal_spi.c **** 
3563:Drivers/STM32F4xx_HAL_Driver/Src/stm32f4xx_hal_spi.c ****   /* Erratasheet: BSY bit may stay high at the end of a data transfer in Slave mode */
3564:Drivers/STM32F4xx_HAL_Driver/Src/stm32f4xx_hal_spi.c ****   if (hspi->Init.Mode == SPI_MODE_MASTER)
 6892              		.loc 1 3564 17
 6893 003a FB68     		ldr	r3, [r7, #12]
 6894 003c 5B68     		ldr	r3, [r3, #4]
 6895              		.loc 1 3564 6
 6896 003e B3F5827F 		cmp	r3, #260
 6897 0042 2AD1     		bne	.L324
3565:Drivers/STM32F4xx_HAL_Driver/Src/stm32f4xx_hal_spi.c ****   {
3566:Drivers/STM32F4xx_HAL_Driver/Src/stm32f4xx_hal_spi.c ****     if (hspi->Init.Direction != SPI_DIRECTION_2LINES_RXONLY)
 6898              		.loc 1 3566 19
 6899 0044 FB68     		ldr	r3, [r7, #12]
 6900 0046 9B68     		ldr	r3, [r3, #8]
 6901              		.loc 1 3566 8
 6902 0048 B3F5806F 		cmp	r3, #1024
 6903 004c 12D0     		beq	.L325
3567:Drivers/STM32F4xx_HAL_Driver/Src/stm32f4xx_hal_spi.c ****     {
3568:Drivers/STM32F4xx_HAL_Driver/Src/stm32f4xx_hal_spi.c ****       /* Control the BSY flag */
3569:Drivers/STM32F4xx_HAL_Driver/Src/stm32f4xx_hal_spi.c ****       if (SPI_WaitFlagStateUntilTimeout(hspi, SPI_FLAG_BSY, RESET, Timeout, Tickstart) != HAL_OK)
 6904              		.loc 1 3569 11
 6905 004e 7B68     		ldr	r3, [r7, #4]
 6906 0050 0093     		str	r3, [sp]
 6907 0052 BB68     		ldr	r3, [r7, #8]
 6908 0054 0022     		movs	r2, #0
 6909 0056 8021     		movs	r1, #128
 6910 0058 F868     		ldr	r0, [r7, #12]
 6911 005a FFF7FEFF 		bl	SPI_WaitFlagStateUntilTimeout
 6912 005e 0346     		mov	r3, r0
 6913              		.loc 1 3569 10
 6914 0060 002B     		cmp	r3, #0
 6915 0062 2DD0     		beq	.L326
3570:Drivers/STM32F4xx_HAL_Driver/Src/stm32f4xx_hal_spi.c ****       {
3571:Drivers/STM32F4xx_HAL_Driver/Src/stm32f4xx_hal_spi.c ****         SET_BIT(hspi->ErrorCode, HAL_SPI_ERROR_FLAG);
 6916              		.loc 1 3571 9
 6917 0064 FB68     		ldr	r3, [r7, #12]
 6918 0066 5B6D     		ldr	r3, [r3, #84]
 6919 0068 43F02002 		orr	r2, r3, #32
 6920 006c FB68     		ldr	r3, [r7, #12]
 6921 006e 5A65     		str	r2, [r3, #84]
3572:Drivers/STM32F4xx_HAL_Driver/Src/stm32f4xx_hal_spi.c ****         return HAL_TIMEOUT;
 6922              		.loc 1 3572 16
 6923 0070 0323     		movs	r3, #3
ARM GAS  C:\Users\16323\AppData\Local\Temp\ccbQ7VoP.s 			page 184


 6924 0072 26E0     		b	.L327
 6925              	.L325:
3573:Drivers/STM32F4xx_HAL_Driver/Src/stm32f4xx_hal_spi.c ****       }
3574:Drivers/STM32F4xx_HAL_Driver/Src/stm32f4xx_hal_spi.c ****     }
3575:Drivers/STM32F4xx_HAL_Driver/Src/stm32f4xx_hal_spi.c ****     else
3576:Drivers/STM32F4xx_HAL_Driver/Src/stm32f4xx_hal_spi.c ****     {
3577:Drivers/STM32F4xx_HAL_Driver/Src/stm32f4xx_hal_spi.c ****       /* Wait the RXNE reset */
3578:Drivers/STM32F4xx_HAL_Driver/Src/stm32f4xx_hal_spi.c ****       if (SPI_WaitFlagStateUntilTimeout(hspi, SPI_FLAG_RXNE, RESET, Timeout, Tickstart) != HAL_OK)
 6926              		.loc 1 3578 11
 6927 0074 7B68     		ldr	r3, [r7, #4]
 6928 0076 0093     		str	r3, [sp]
 6929 0078 BB68     		ldr	r3, [r7, #8]
 6930 007a 0022     		movs	r2, #0
 6931 007c 0121     		movs	r1, #1
 6932 007e F868     		ldr	r0, [r7, #12]
 6933 0080 FFF7FEFF 		bl	SPI_WaitFlagStateUntilTimeout
 6934 0084 0346     		mov	r3, r0
 6935              		.loc 1 3578 10
 6936 0086 002B     		cmp	r3, #0
 6937 0088 1AD0     		beq	.L326
3579:Drivers/STM32F4xx_HAL_Driver/Src/stm32f4xx_hal_spi.c ****       {
3580:Drivers/STM32F4xx_HAL_Driver/Src/stm32f4xx_hal_spi.c ****         SET_BIT(hspi->ErrorCode, HAL_SPI_ERROR_FLAG);
 6938              		.loc 1 3580 9
 6939 008a FB68     		ldr	r3, [r7, #12]
 6940 008c 5B6D     		ldr	r3, [r3, #84]
 6941 008e 43F02002 		orr	r2, r3, #32
 6942 0092 FB68     		ldr	r3, [r7, #12]
 6943 0094 5A65     		str	r2, [r3, #84]
3581:Drivers/STM32F4xx_HAL_Driver/Src/stm32f4xx_hal_spi.c ****         return HAL_TIMEOUT;
 6944              		.loc 1 3581 16
 6945 0096 0323     		movs	r3, #3
 6946 0098 13E0     		b	.L327
 6947              	.L324:
3582:Drivers/STM32F4xx_HAL_Driver/Src/stm32f4xx_hal_spi.c ****       }
3583:Drivers/STM32F4xx_HAL_Driver/Src/stm32f4xx_hal_spi.c ****     }
3584:Drivers/STM32F4xx_HAL_Driver/Src/stm32f4xx_hal_spi.c ****   }
3585:Drivers/STM32F4xx_HAL_Driver/Src/stm32f4xx_hal_spi.c ****   else
3586:Drivers/STM32F4xx_HAL_Driver/Src/stm32f4xx_hal_spi.c ****   {
3587:Drivers/STM32F4xx_HAL_Driver/Src/stm32f4xx_hal_spi.c ****     /* Wait the RXNE reset */
3588:Drivers/STM32F4xx_HAL_Driver/Src/stm32f4xx_hal_spi.c ****     if (SPI_WaitFlagStateUntilTimeout(hspi, SPI_FLAG_RXNE, RESET, Timeout, Tickstart) != HAL_OK)
 6948              		.loc 1 3588 9
 6949 009a 7B68     		ldr	r3, [r7, #4]
 6950 009c 0093     		str	r3, [sp]
 6951 009e BB68     		ldr	r3, [r7, #8]
 6952 00a0 0022     		movs	r2, #0
 6953 00a2 0121     		movs	r1, #1
 6954 00a4 F868     		ldr	r0, [r7, #12]
 6955 00a6 FFF7FEFF 		bl	SPI_WaitFlagStateUntilTimeout
 6956 00aa 0346     		mov	r3, r0
 6957              		.loc 1 3588 8
 6958 00ac 002B     		cmp	r3, #0
 6959 00ae 07D0     		beq	.L326
3589:Drivers/STM32F4xx_HAL_Driver/Src/stm32f4xx_hal_spi.c ****     {
3590:Drivers/STM32F4xx_HAL_Driver/Src/stm32f4xx_hal_spi.c ****       SET_BIT(hspi->ErrorCode, HAL_SPI_ERROR_FLAG);
 6960              		.loc 1 3590 7
 6961 00b0 FB68     		ldr	r3, [r7, #12]
 6962 00b2 5B6D     		ldr	r3, [r3, #84]
ARM GAS  C:\Users\16323\AppData\Local\Temp\ccbQ7VoP.s 			page 185


 6963 00b4 43F02002 		orr	r2, r3, #32
 6964 00b8 FB68     		ldr	r3, [r7, #12]
 6965 00ba 5A65     		str	r2, [r3, #84]
3591:Drivers/STM32F4xx_HAL_Driver/Src/stm32f4xx_hal_spi.c ****       return HAL_TIMEOUT;
 6966              		.loc 1 3591 14
 6967 00bc 0323     		movs	r3, #3
 6968 00be 00E0     		b	.L327
 6969              	.L326:
3592:Drivers/STM32F4xx_HAL_Driver/Src/stm32f4xx_hal_spi.c ****     }
3593:Drivers/STM32F4xx_HAL_Driver/Src/stm32f4xx_hal_spi.c ****   }
3594:Drivers/STM32F4xx_HAL_Driver/Src/stm32f4xx_hal_spi.c ****   return HAL_OK;
 6970              		.loc 1 3594 10
 6971 00c0 0023     		movs	r3, #0
 6972              	.L327:
3595:Drivers/STM32F4xx_HAL_Driver/Src/stm32f4xx_hal_spi.c **** }
 6973              		.loc 1 3595 1
 6974 00c2 1846     		mov	r0, r3
 6975 00c4 1037     		adds	r7, r7, #16
 6976              	.LCFI259:
 6977              		.cfi_def_cfa_offset 8
 6978 00c6 BD46     		mov	sp, r7
 6979              	.LCFI260:
 6980              		.cfi_def_cfa_register 13
 6981              		@ sp needed
 6982 00c8 80BD     		pop	{r7, pc}
 6983              		.cfi_endproc
 6984              	.LFE287:
 6986              		.section	.text.SPI_EndRxTxTransaction,"ax",%progbits
 6987              		.align	1
 6988              		.syntax unified
 6989              		.thumb
 6990              		.thumb_func
 6992              	SPI_EndRxTxTransaction:
 6993              	.LFB288:
3596:Drivers/STM32F4xx_HAL_Driver/Src/stm32f4xx_hal_spi.c **** 
3597:Drivers/STM32F4xx_HAL_Driver/Src/stm32f4xx_hal_spi.c **** /**
3598:Drivers/STM32F4xx_HAL_Driver/Src/stm32f4xx_hal_spi.c ****   * @brief  Handle the check of the RXTX or TX transaction complete.
3599:Drivers/STM32F4xx_HAL_Driver/Src/stm32f4xx_hal_spi.c ****   * @param  hspi SPI handle
3600:Drivers/STM32F4xx_HAL_Driver/Src/stm32f4xx_hal_spi.c ****   * @param  Timeout Timeout duration
3601:Drivers/STM32F4xx_HAL_Driver/Src/stm32f4xx_hal_spi.c ****   * @param  Tickstart tick start value
3602:Drivers/STM32F4xx_HAL_Driver/Src/stm32f4xx_hal_spi.c ****   * @retval HAL status
3603:Drivers/STM32F4xx_HAL_Driver/Src/stm32f4xx_hal_spi.c ****   */
3604:Drivers/STM32F4xx_HAL_Driver/Src/stm32f4xx_hal_spi.c **** static HAL_StatusTypeDef SPI_EndRxTxTransaction(SPI_HandleTypeDef *hspi, uint32_t Timeout, uint32_t
3605:Drivers/STM32F4xx_HAL_Driver/Src/stm32f4xx_hal_spi.c **** {
 6994              		.loc 1 3605 1
 6995              		.cfi_startproc
 6996              		@ args = 0, pretend = 0, frame = 24
 6997              		@ frame_needed = 1, uses_anonymous_args = 0
 6998 0000 80B5     		push	{r7, lr}
 6999              	.LCFI261:
 7000              		.cfi_def_cfa_offset 8
 7001              		.cfi_offset 7, -8
 7002              		.cfi_offset 14, -4
 7003 0002 88B0     		sub	sp, sp, #32
 7004              	.LCFI262:
 7005              		.cfi_def_cfa_offset 40
 7006 0004 02AF     		add	r7, sp, #8
ARM GAS  C:\Users\16323\AppData\Local\Temp\ccbQ7VoP.s 			page 186


 7007              	.LCFI263:
 7008              		.cfi_def_cfa 7, 32
 7009 0006 F860     		str	r0, [r7, #12]
 7010 0008 B960     		str	r1, [r7, #8]
 7011 000a 7A60     		str	r2, [r7, #4]
3606:Drivers/STM32F4xx_HAL_Driver/Src/stm32f4xx_hal_spi.c ****   /* Wait until TXE flag */
3607:Drivers/STM32F4xx_HAL_Driver/Src/stm32f4xx_hal_spi.c ****   if(SPI_WaitFlagStateUntilTimeout(hspi, SPI_FLAG_TXE, SET, Timeout, Tickstart) != HAL_OK)
 7012              		.loc 1 3607 6
 7013 000c 7B68     		ldr	r3, [r7, #4]
 7014 000e 0093     		str	r3, [sp]
 7015 0010 BB68     		ldr	r3, [r7, #8]
 7016 0012 0122     		movs	r2, #1
 7017 0014 0221     		movs	r1, #2
 7018 0016 F868     		ldr	r0, [r7, #12]
 7019 0018 FFF7FEFF 		bl	SPI_WaitFlagStateUntilTimeout
 7020 001c 0346     		mov	r3, r0
 7021              		.loc 1 3607 5
 7022 001e 002B     		cmp	r3, #0
 7023 0020 07D0     		beq	.L329
3608:Drivers/STM32F4xx_HAL_Driver/Src/stm32f4xx_hal_spi.c ****   {
3609:Drivers/STM32F4xx_HAL_Driver/Src/stm32f4xx_hal_spi.c ****     SET_BIT(hspi->ErrorCode, HAL_SPI_ERROR_FLAG);
 7024              		.loc 1 3609 5
 7025 0022 FB68     		ldr	r3, [r7, #12]
 7026 0024 5B6D     		ldr	r3, [r3, #84]
 7027 0026 43F02002 		orr	r2, r3, #32
 7028 002a FB68     		ldr	r3, [r7, #12]
 7029 002c 5A65     		str	r2, [r3, #84]
3610:Drivers/STM32F4xx_HAL_Driver/Src/stm32f4xx_hal_spi.c ****     return HAL_TIMEOUT;
 7030              		.loc 1 3610 12
 7031 002e 0323     		movs	r3, #3
 7032 0030 32E0     		b	.L330
 7033              	.L329:
3611:Drivers/STM32F4xx_HAL_Driver/Src/stm32f4xx_hal_spi.c ****   }
3612:Drivers/STM32F4xx_HAL_Driver/Src/stm32f4xx_hal_spi.c **** 
3613:Drivers/STM32F4xx_HAL_Driver/Src/stm32f4xx_hal_spi.c ****   /* Timeout in µs */
3614:Drivers/STM32F4xx_HAL_Driver/Src/stm32f4xx_hal_spi.c ****   __IO uint32_t count = SPI_BSY_FLAG_WORKAROUND_TIMEOUT * (SystemCoreClock / 24U / 1000000U);
 7034              		.loc 1 3614 82
 7035 0032 1B4B     		ldr	r3, .L335
 7036 0034 1B68     		ldr	r3, [r3]
 7037 0036 1B4A     		ldr	r2, .L335+4
 7038 0038 A2FB0323 		umull	r2, r3, r2, r3
 7039 003c 5B0D     		lsrs	r3, r3, #21
 7040              		.loc 1 3614 57
 7041 003e 4FF47A72 		mov	r2, #1000
 7042 0042 02FB03F3 		mul	r3, r2, r3
 7043              		.loc 1 3614 17
 7044 0046 7B61     		str	r3, [r7, #20]
3615:Drivers/STM32F4xx_HAL_Driver/Src/stm32f4xx_hal_spi.c ****   /* Erratasheet: BSY bit may stay high at the end of a data transfer in Slave mode */
3616:Drivers/STM32F4xx_HAL_Driver/Src/stm32f4xx_hal_spi.c ****   if (hspi->Init.Mode == SPI_MODE_MASTER)
 7045              		.loc 1 3616 17
 7046 0048 FB68     		ldr	r3, [r7, #12]
 7047 004a 5B68     		ldr	r3, [r3, #4]
 7048              		.loc 1 3616 6
 7049 004c B3F5827F 		cmp	r3, #260
 7050 0050 12D1     		bne	.L331
3617:Drivers/STM32F4xx_HAL_Driver/Src/stm32f4xx_hal_spi.c ****   {
3618:Drivers/STM32F4xx_HAL_Driver/Src/stm32f4xx_hal_spi.c ****     /* Control the BSY flag */
ARM GAS  C:\Users\16323\AppData\Local\Temp\ccbQ7VoP.s 			page 187


3619:Drivers/STM32F4xx_HAL_Driver/Src/stm32f4xx_hal_spi.c ****     if (SPI_WaitFlagStateUntilTimeout(hspi, SPI_FLAG_BSY, RESET, Timeout, Tickstart) != HAL_OK)
 7051              		.loc 1 3619 9
 7052 0052 7B68     		ldr	r3, [r7, #4]
 7053 0054 0093     		str	r3, [sp]
 7054 0056 BB68     		ldr	r3, [r7, #8]
 7055 0058 0022     		movs	r2, #0
 7056 005a 8021     		movs	r1, #128
 7057 005c F868     		ldr	r0, [r7, #12]
 7058 005e FFF7FEFF 		bl	SPI_WaitFlagStateUntilTimeout
 7059 0062 0346     		mov	r3, r0
 7060              		.loc 1 3619 8
 7061 0064 002B     		cmp	r3, #0
 7062 0066 16D0     		beq	.L332
3620:Drivers/STM32F4xx_HAL_Driver/Src/stm32f4xx_hal_spi.c ****     {
3621:Drivers/STM32F4xx_HAL_Driver/Src/stm32f4xx_hal_spi.c ****       SET_BIT(hspi->ErrorCode, HAL_SPI_ERROR_FLAG);
 7063              		.loc 1 3621 7
 7064 0068 FB68     		ldr	r3, [r7, #12]
 7065 006a 5B6D     		ldr	r3, [r3, #84]
 7066 006c 43F02002 		orr	r2, r3, #32
 7067 0070 FB68     		ldr	r3, [r7, #12]
 7068 0072 5A65     		str	r2, [r3, #84]
3622:Drivers/STM32F4xx_HAL_Driver/Src/stm32f4xx_hal_spi.c ****       return HAL_TIMEOUT;
 7069              		.loc 1 3622 14
 7070 0074 0323     		movs	r3, #3
 7071 0076 0FE0     		b	.L330
 7072              	.L331:
3623:Drivers/STM32F4xx_HAL_Driver/Src/stm32f4xx_hal_spi.c ****     }
3624:Drivers/STM32F4xx_HAL_Driver/Src/stm32f4xx_hal_spi.c ****   }
3625:Drivers/STM32F4xx_HAL_Driver/Src/stm32f4xx_hal_spi.c ****   else
3626:Drivers/STM32F4xx_HAL_Driver/Src/stm32f4xx_hal_spi.c ****   {
3627:Drivers/STM32F4xx_HAL_Driver/Src/stm32f4xx_hal_spi.c ****     /* Wait BSY flag during 1 Byte time transfer in case of Full-Duplex and Tx transfer
3628:Drivers/STM32F4xx_HAL_Driver/Src/stm32f4xx_hal_spi.c ****     * If Timeout is reached, the transfer is considered as finish.
3629:Drivers/STM32F4xx_HAL_Driver/Src/stm32f4xx_hal_spi.c ****     * User have to calculate the timeout value to fit with the time of 1 byte transfer.
3630:Drivers/STM32F4xx_HAL_Driver/Src/stm32f4xx_hal_spi.c ****     * This time is directly link with the SPI clock from Master device.
3631:Drivers/STM32F4xx_HAL_Driver/Src/stm32f4xx_hal_spi.c ****     */
3632:Drivers/STM32F4xx_HAL_Driver/Src/stm32f4xx_hal_spi.c ****     do
3633:Drivers/STM32F4xx_HAL_Driver/Src/stm32f4xx_hal_spi.c ****     {
3634:Drivers/STM32F4xx_HAL_Driver/Src/stm32f4xx_hal_spi.c ****       if (count == 0U)
 7073              		.loc 1 3634 17
 7074 0078 7B69     		ldr	r3, [r7, #20]
 7075              		.loc 1 3634 10
 7076 007a 002B     		cmp	r3, #0
 7077 007c 0AD0     		beq	.L334
3635:Drivers/STM32F4xx_HAL_Driver/Src/stm32f4xx_hal_spi.c ****       {
3636:Drivers/STM32F4xx_HAL_Driver/Src/stm32f4xx_hal_spi.c ****         break;
3637:Drivers/STM32F4xx_HAL_Driver/Src/stm32f4xx_hal_spi.c ****       }
3638:Drivers/STM32F4xx_HAL_Driver/Src/stm32f4xx_hal_spi.c ****       count--;
 7078              		.loc 1 3638 12
 7079 007e 7B69     		ldr	r3, [r7, #20]
 7080 0080 013B     		subs	r3, r3, #1
 7081 0082 7B61     		str	r3, [r7, #20]
3639:Drivers/STM32F4xx_HAL_Driver/Src/stm32f4xx_hal_spi.c ****     } while (__HAL_SPI_GET_FLAG(hspi, SPI_FLAG_BSY) != RESET);
 7082              		.loc 1 3639 14
 7083 0084 FB68     		ldr	r3, [r7, #12]
 7084 0086 1B68     		ldr	r3, [r3]
 7085 0088 9B68     		ldr	r3, [r3, #8]
 7086 008a 03F08003 		and	r3, r3, #128
ARM GAS  C:\Users\16323\AppData\Local\Temp\ccbQ7VoP.s 			page 188


 7087              		.loc 1 3639 5
 7088 008e 802B     		cmp	r3, #128
 7089 0090 F2D0     		beq	.L331
 7090 0092 00E0     		b	.L332
 7091              	.L334:
3636:Drivers/STM32F4xx_HAL_Driver/Src/stm32f4xx_hal_spi.c ****       }
 7092              		.loc 1 3636 9
 7093 0094 00BF     		nop
 7094              	.L332:
3640:Drivers/STM32F4xx_HAL_Driver/Src/stm32f4xx_hal_spi.c ****   }
3641:Drivers/STM32F4xx_HAL_Driver/Src/stm32f4xx_hal_spi.c **** 
3642:Drivers/STM32F4xx_HAL_Driver/Src/stm32f4xx_hal_spi.c ****   return HAL_OK;
 7095              		.loc 1 3642 10
 7096 0096 0023     		movs	r3, #0
 7097              	.L330:
3643:Drivers/STM32F4xx_HAL_Driver/Src/stm32f4xx_hal_spi.c **** }
 7098              		.loc 1 3643 1
 7099 0098 1846     		mov	r0, r3
 7100 009a 1837     		adds	r7, r7, #24
 7101              	.LCFI264:
 7102              		.cfi_def_cfa_offset 8
 7103 009c BD46     		mov	sp, r7
 7104              	.LCFI265:
 7105              		.cfi_def_cfa_register 13
 7106              		@ sp needed
 7107 009e 80BD     		pop	{r7, pc}
 7108              	.L336:
 7109              		.align	2
 7110              	.L335:
 7111 00a0 00000000 		.word	SystemCoreClock
 7112 00a4 819F5E16 		.word	375299969
 7113              		.cfi_endproc
 7114              	.LFE288:
 7116              		.section	.text.SPI_CloseRxTx_ISR,"ax",%progbits
 7117              		.align	1
 7118              		.syntax unified
 7119              		.thumb
 7120              		.thumb_func
 7122              	SPI_CloseRxTx_ISR:
 7123              	.LFB289:
3644:Drivers/STM32F4xx_HAL_Driver/Src/stm32f4xx_hal_spi.c **** 
3645:Drivers/STM32F4xx_HAL_Driver/Src/stm32f4xx_hal_spi.c **** /**
3646:Drivers/STM32F4xx_HAL_Driver/Src/stm32f4xx_hal_spi.c ****   * @brief  Handle the end of the RXTX transaction.
3647:Drivers/STM32F4xx_HAL_Driver/Src/stm32f4xx_hal_spi.c ****   * @param  hspi pointer to a SPI_HandleTypeDef structure that contains
3648:Drivers/STM32F4xx_HAL_Driver/Src/stm32f4xx_hal_spi.c ****   *               the configuration information for SPI module.
3649:Drivers/STM32F4xx_HAL_Driver/Src/stm32f4xx_hal_spi.c ****   * @retval None
3650:Drivers/STM32F4xx_HAL_Driver/Src/stm32f4xx_hal_spi.c ****   */
3651:Drivers/STM32F4xx_HAL_Driver/Src/stm32f4xx_hal_spi.c **** static void SPI_CloseRxTx_ISR(SPI_HandleTypeDef *hspi)
3652:Drivers/STM32F4xx_HAL_Driver/Src/stm32f4xx_hal_spi.c **** {
 7124              		.loc 1 3652 1
 7125              		.cfi_startproc
 7126              		@ args = 0, pretend = 0, frame = 24
 7127              		@ frame_needed = 1, uses_anonymous_args = 0
 7128 0000 80B5     		push	{r7, lr}
 7129              	.LCFI266:
 7130              		.cfi_def_cfa_offset 8
 7131              		.cfi_offset 7, -8
ARM GAS  C:\Users\16323\AppData\Local\Temp\ccbQ7VoP.s 			page 189


 7132              		.cfi_offset 14, -4
 7133 0002 86B0     		sub	sp, sp, #24
 7134              	.LCFI267:
 7135              		.cfi_def_cfa_offset 32
 7136 0004 00AF     		add	r7, sp, #0
 7137              	.LCFI268:
 7138              		.cfi_def_cfa_register 7
 7139 0006 7860     		str	r0, [r7, #4]
3653:Drivers/STM32F4xx_HAL_Driver/Src/stm32f4xx_hal_spi.c ****   uint32_t tickstart;
3654:Drivers/STM32F4xx_HAL_Driver/Src/stm32f4xx_hal_spi.c ****   __IO uint32_t count = SPI_DEFAULT_TIMEOUT * (SystemCoreClock / 24U / 1000U);
 7140              		.loc 1 3654 70
 7141 0008 354B     		ldr	r3, .L347
 7142 000a 1B68     		ldr	r3, [r3]
 7143 000c 354A     		ldr	r2, .L347+4
 7144 000e A2FB0323 		umull	r2, r3, r2, r3
 7145 0012 5B0A     		lsrs	r3, r3, #9
 7146              		.loc 1 3654 45
 7147 0014 6422     		movs	r2, #100
 7148 0016 02FB03F3 		mul	r3, r2, r3
 7149              		.loc 1 3654 17
 7150 001a 3B61     		str	r3, [r7, #16]
3655:Drivers/STM32F4xx_HAL_Driver/Src/stm32f4xx_hal_spi.c **** 
3656:Drivers/STM32F4xx_HAL_Driver/Src/stm32f4xx_hal_spi.c ****   /* Init tickstart for timeout management */
3657:Drivers/STM32F4xx_HAL_Driver/Src/stm32f4xx_hal_spi.c ****   tickstart = HAL_GetTick();
 7151              		.loc 1 3657 15
 7152 001c FFF7FEFF 		bl	HAL_GetTick
 7153 0020 7861     		str	r0, [r7, #20]
3658:Drivers/STM32F4xx_HAL_Driver/Src/stm32f4xx_hal_spi.c **** 
3659:Drivers/STM32F4xx_HAL_Driver/Src/stm32f4xx_hal_spi.c ****   /* Disable ERR interrupt */
3660:Drivers/STM32F4xx_HAL_Driver/Src/stm32f4xx_hal_spi.c ****   __HAL_SPI_DISABLE_IT(hspi, SPI_IT_ERR);
 7154              		.loc 1 3660 3
 7155 0022 7B68     		ldr	r3, [r7, #4]
 7156 0024 1B68     		ldr	r3, [r3]
 7157 0026 5A68     		ldr	r2, [r3, #4]
 7158 0028 7B68     		ldr	r3, [r7, #4]
 7159 002a 1B68     		ldr	r3, [r3]
 7160 002c 22F02002 		bic	r2, r2, #32
 7161 0030 5A60     		str	r2, [r3, #4]
 7162              	.L340:
3661:Drivers/STM32F4xx_HAL_Driver/Src/stm32f4xx_hal_spi.c **** 
3662:Drivers/STM32F4xx_HAL_Driver/Src/stm32f4xx_hal_spi.c ****   /* Wait until TXE flag is set */
3663:Drivers/STM32F4xx_HAL_Driver/Src/stm32f4xx_hal_spi.c ****   do
3664:Drivers/STM32F4xx_HAL_Driver/Src/stm32f4xx_hal_spi.c ****   {
3665:Drivers/STM32F4xx_HAL_Driver/Src/stm32f4xx_hal_spi.c ****     if (count == 0U)
 7163              		.loc 1 3665 15
 7164 0032 3B69     		ldr	r3, [r7, #16]
 7165              		.loc 1 3665 8
 7166 0034 002B     		cmp	r3, #0
 7167 0036 06D1     		bne	.L338
3666:Drivers/STM32F4xx_HAL_Driver/Src/stm32f4xx_hal_spi.c ****     {
3667:Drivers/STM32F4xx_HAL_Driver/Src/stm32f4xx_hal_spi.c ****       SET_BIT(hspi->ErrorCode, HAL_SPI_ERROR_FLAG);
 7168              		.loc 1 3667 7
 7169 0038 7B68     		ldr	r3, [r7, #4]
 7170 003a 5B6D     		ldr	r3, [r3, #84]
 7171 003c 43F02002 		orr	r2, r3, #32
 7172 0040 7B68     		ldr	r3, [r7, #4]
 7173 0042 5A65     		str	r2, [r3, #84]
ARM GAS  C:\Users\16323\AppData\Local\Temp\ccbQ7VoP.s 			page 190


3668:Drivers/STM32F4xx_HAL_Driver/Src/stm32f4xx_hal_spi.c ****       break;
 7174              		.loc 1 3668 7
 7175 0044 09E0     		b	.L339
 7176              	.L338:
3669:Drivers/STM32F4xx_HAL_Driver/Src/stm32f4xx_hal_spi.c ****     }
3670:Drivers/STM32F4xx_HAL_Driver/Src/stm32f4xx_hal_spi.c ****     count--;
 7177              		.loc 1 3670 10
 7178 0046 3B69     		ldr	r3, [r7, #16]
 7179 0048 013B     		subs	r3, r3, #1
 7180 004a 3B61     		str	r3, [r7, #16]
3671:Drivers/STM32F4xx_HAL_Driver/Src/stm32f4xx_hal_spi.c ****   } while ((hspi->Instance->SR & SPI_FLAG_TXE) == RESET);
 7181              		.loc 1 3671 17
 7182 004c 7B68     		ldr	r3, [r7, #4]
 7183 004e 1B68     		ldr	r3, [r3]
 7184              		.loc 1 3671 27
 7185 0050 9B68     		ldr	r3, [r3, #8]
 7186              		.loc 1 3671 32
 7187 0052 03F00203 		and	r3, r3, #2
 7188              		.loc 1 3671 3
 7189 0056 002B     		cmp	r3, #0
 7190 0058 EBD0     		beq	.L340
 7191              	.L339:
3672:Drivers/STM32F4xx_HAL_Driver/Src/stm32f4xx_hal_spi.c **** 
3673:Drivers/STM32F4xx_HAL_Driver/Src/stm32f4xx_hal_spi.c ****   /* Check the end of the transaction */
3674:Drivers/STM32F4xx_HAL_Driver/Src/stm32f4xx_hal_spi.c ****   if (SPI_EndRxTxTransaction(hspi, SPI_DEFAULT_TIMEOUT, tickstart) != HAL_OK)
 7192              		.loc 1 3674 7
 7193 005a 7A69     		ldr	r2, [r7, #20]
 7194 005c 6421     		movs	r1, #100
 7195 005e 7868     		ldr	r0, [r7, #4]
 7196 0060 FFF7FEFF 		bl	SPI_EndRxTxTransaction
 7197 0064 0346     		mov	r3, r0
 7198              		.loc 1 3674 6
 7199 0066 002B     		cmp	r3, #0
 7200 0068 05D0     		beq	.L341
3675:Drivers/STM32F4xx_HAL_Driver/Src/stm32f4xx_hal_spi.c ****   {
3676:Drivers/STM32F4xx_HAL_Driver/Src/stm32f4xx_hal_spi.c ****     SET_BIT(hspi->ErrorCode, HAL_SPI_ERROR_FLAG);
 7201              		.loc 1 3676 5
 7202 006a 7B68     		ldr	r3, [r7, #4]
 7203 006c 5B6D     		ldr	r3, [r3, #84]
 7204 006e 43F02002 		orr	r2, r3, #32
 7205 0072 7B68     		ldr	r3, [r7, #4]
 7206 0074 5A65     		str	r2, [r3, #84]
 7207              	.L341:
3677:Drivers/STM32F4xx_HAL_Driver/Src/stm32f4xx_hal_spi.c ****   }
3678:Drivers/STM32F4xx_HAL_Driver/Src/stm32f4xx_hal_spi.c **** 
3679:Drivers/STM32F4xx_HAL_Driver/Src/stm32f4xx_hal_spi.c ****   /* Clear overrun flag in 2 Lines communication mode because received is not read */
3680:Drivers/STM32F4xx_HAL_Driver/Src/stm32f4xx_hal_spi.c ****   if (hspi->Init.Direction == SPI_DIRECTION_2LINES)
 7208              		.loc 1 3680 17
 7209 0076 7B68     		ldr	r3, [r7, #4]
 7210 0078 9B68     		ldr	r3, [r3, #8]
 7211              		.loc 1 3680 6
 7212 007a 002B     		cmp	r3, #0
 7213 007c 0AD1     		bne	.L342
 7214              	.LBB17:
3681:Drivers/STM32F4xx_HAL_Driver/Src/stm32f4xx_hal_spi.c ****   {
3682:Drivers/STM32F4xx_HAL_Driver/Src/stm32f4xx_hal_spi.c ****     __HAL_SPI_CLEAR_OVRFLAG(hspi);
 7215              		.loc 1 3682 5
ARM GAS  C:\Users\16323\AppData\Local\Temp\ccbQ7VoP.s 			page 191


 7216 007e 0023     		movs	r3, #0
 7217 0080 FB60     		str	r3, [r7, #12]
 7218 0082 7B68     		ldr	r3, [r7, #4]
 7219 0084 1B68     		ldr	r3, [r3]
 7220 0086 DB68     		ldr	r3, [r3, #12]
 7221 0088 FB60     		str	r3, [r7, #12]
 7222 008a 7B68     		ldr	r3, [r7, #4]
 7223 008c 1B68     		ldr	r3, [r3]
 7224 008e 9B68     		ldr	r3, [r3, #8]
 7225 0090 FB60     		str	r3, [r7, #12]
 7226 0092 FB68     		ldr	r3, [r7, #12]
 7227              	.L342:
 7228              	.LBE17:
3683:Drivers/STM32F4xx_HAL_Driver/Src/stm32f4xx_hal_spi.c ****   }
3684:Drivers/STM32F4xx_HAL_Driver/Src/stm32f4xx_hal_spi.c **** 
3685:Drivers/STM32F4xx_HAL_Driver/Src/stm32f4xx_hal_spi.c **** #if (USE_SPI_CRC != 0U)
3686:Drivers/STM32F4xx_HAL_Driver/Src/stm32f4xx_hal_spi.c ****   /* Check if CRC error occurred */
3687:Drivers/STM32F4xx_HAL_Driver/Src/stm32f4xx_hal_spi.c ****   if (__HAL_SPI_GET_FLAG(hspi, SPI_FLAG_CRCERR) != RESET)
3688:Drivers/STM32F4xx_HAL_Driver/Src/stm32f4xx_hal_spi.c ****   {
3689:Drivers/STM32F4xx_HAL_Driver/Src/stm32f4xx_hal_spi.c ****     hspi->State = HAL_SPI_STATE_READY;
3690:Drivers/STM32F4xx_HAL_Driver/Src/stm32f4xx_hal_spi.c ****     SET_BIT(hspi->ErrorCode, HAL_SPI_ERROR_CRC);
3691:Drivers/STM32F4xx_HAL_Driver/Src/stm32f4xx_hal_spi.c ****     __HAL_SPI_CLEAR_CRCERRFLAG(hspi);
3692:Drivers/STM32F4xx_HAL_Driver/Src/stm32f4xx_hal_spi.c ****     /* Call user error callback */
3693:Drivers/STM32F4xx_HAL_Driver/Src/stm32f4xx_hal_spi.c **** #if (USE_HAL_SPI_REGISTER_CALLBACKS == 1U)
3694:Drivers/STM32F4xx_HAL_Driver/Src/stm32f4xx_hal_spi.c ****     hspi->ErrorCallback(hspi);
3695:Drivers/STM32F4xx_HAL_Driver/Src/stm32f4xx_hal_spi.c **** #else
3696:Drivers/STM32F4xx_HAL_Driver/Src/stm32f4xx_hal_spi.c ****     HAL_SPI_ErrorCallback(hspi);
3697:Drivers/STM32F4xx_HAL_Driver/Src/stm32f4xx_hal_spi.c **** #endif /* USE_HAL_SPI_REGISTER_CALLBACKS */
3698:Drivers/STM32F4xx_HAL_Driver/Src/stm32f4xx_hal_spi.c ****   }
3699:Drivers/STM32F4xx_HAL_Driver/Src/stm32f4xx_hal_spi.c ****   else
3700:Drivers/STM32F4xx_HAL_Driver/Src/stm32f4xx_hal_spi.c ****   {
3701:Drivers/STM32F4xx_HAL_Driver/Src/stm32f4xx_hal_spi.c **** #endif /* USE_SPI_CRC */
3702:Drivers/STM32F4xx_HAL_Driver/Src/stm32f4xx_hal_spi.c ****     if (hspi->ErrorCode == HAL_SPI_ERROR_NONE)
 7229              		.loc 1 3702 13
 7230 0094 7B68     		ldr	r3, [r7, #4]
 7231 0096 5B6D     		ldr	r3, [r3, #84]
 7232              		.loc 1 3702 8
 7233 0098 002B     		cmp	r3, #0
 7234 009a 15D1     		bne	.L343
3703:Drivers/STM32F4xx_HAL_Driver/Src/stm32f4xx_hal_spi.c ****     {
3704:Drivers/STM32F4xx_HAL_Driver/Src/stm32f4xx_hal_spi.c ****       if (hspi->State == HAL_SPI_STATE_BUSY_RX)
 7235              		.loc 1 3704 15
 7236 009c 7B68     		ldr	r3, [r7, #4]
 7237 009e 93F85130 		ldrb	r3, [r3, #81]
 7238 00a2 DBB2     		uxtb	r3, r3
 7239              		.loc 1 3704 10
 7240 00a4 042B     		cmp	r3, #4
 7241 00a6 07D1     		bne	.L344
3705:Drivers/STM32F4xx_HAL_Driver/Src/stm32f4xx_hal_spi.c ****       {
3706:Drivers/STM32F4xx_HAL_Driver/Src/stm32f4xx_hal_spi.c ****         hspi->State = HAL_SPI_STATE_READY;
 7242              		.loc 1 3706 21
 7243 00a8 7B68     		ldr	r3, [r7, #4]
 7244 00aa 0122     		movs	r2, #1
 7245 00ac 83F85120 		strb	r2, [r3, #81]
3707:Drivers/STM32F4xx_HAL_Driver/Src/stm32f4xx_hal_spi.c ****         /* Call user Rx complete callback */
3708:Drivers/STM32F4xx_HAL_Driver/Src/stm32f4xx_hal_spi.c **** #if (USE_HAL_SPI_REGISTER_CALLBACKS == 1U)
3709:Drivers/STM32F4xx_HAL_Driver/Src/stm32f4xx_hal_spi.c ****         hspi->RxCpltCallback(hspi);
ARM GAS  C:\Users\16323\AppData\Local\Temp\ccbQ7VoP.s 			page 192


3710:Drivers/STM32F4xx_HAL_Driver/Src/stm32f4xx_hal_spi.c **** #else
3711:Drivers/STM32F4xx_HAL_Driver/Src/stm32f4xx_hal_spi.c ****         HAL_SPI_RxCpltCallback(hspi);
 7246              		.loc 1 3711 9
 7247 00b0 7868     		ldr	r0, [r7, #4]
 7248 00b2 FFF7FEFF 		bl	HAL_SPI_RxCpltCallback
3712:Drivers/STM32F4xx_HAL_Driver/Src/stm32f4xx_hal_spi.c **** #endif /* USE_HAL_SPI_REGISTER_CALLBACKS */
3713:Drivers/STM32F4xx_HAL_Driver/Src/stm32f4xx_hal_spi.c ****       }
3714:Drivers/STM32F4xx_HAL_Driver/Src/stm32f4xx_hal_spi.c ****       else
3715:Drivers/STM32F4xx_HAL_Driver/Src/stm32f4xx_hal_spi.c ****       {
3716:Drivers/STM32F4xx_HAL_Driver/Src/stm32f4xx_hal_spi.c ****         hspi->State = HAL_SPI_STATE_READY;
3717:Drivers/STM32F4xx_HAL_Driver/Src/stm32f4xx_hal_spi.c ****         /* Call user TxRx complete callback */
3718:Drivers/STM32F4xx_HAL_Driver/Src/stm32f4xx_hal_spi.c **** #if (USE_HAL_SPI_REGISTER_CALLBACKS == 1U)
3719:Drivers/STM32F4xx_HAL_Driver/Src/stm32f4xx_hal_spi.c ****         hspi->TxRxCpltCallback(hspi);
3720:Drivers/STM32F4xx_HAL_Driver/Src/stm32f4xx_hal_spi.c **** #else
3721:Drivers/STM32F4xx_HAL_Driver/Src/stm32f4xx_hal_spi.c ****         HAL_SPI_TxRxCpltCallback(hspi);
3722:Drivers/STM32F4xx_HAL_Driver/Src/stm32f4xx_hal_spi.c **** #endif /* USE_HAL_SPI_REGISTER_CALLBACKS */
3723:Drivers/STM32F4xx_HAL_Driver/Src/stm32f4xx_hal_spi.c ****       }
3724:Drivers/STM32F4xx_HAL_Driver/Src/stm32f4xx_hal_spi.c ****     }
3725:Drivers/STM32F4xx_HAL_Driver/Src/stm32f4xx_hal_spi.c ****     else
3726:Drivers/STM32F4xx_HAL_Driver/Src/stm32f4xx_hal_spi.c ****     {
3727:Drivers/STM32F4xx_HAL_Driver/Src/stm32f4xx_hal_spi.c ****       hspi->State = HAL_SPI_STATE_READY;
3728:Drivers/STM32F4xx_HAL_Driver/Src/stm32f4xx_hal_spi.c ****       /* Call user error callback */
3729:Drivers/STM32F4xx_HAL_Driver/Src/stm32f4xx_hal_spi.c **** #if (USE_HAL_SPI_REGISTER_CALLBACKS == 1U)
3730:Drivers/STM32F4xx_HAL_Driver/Src/stm32f4xx_hal_spi.c ****       hspi->ErrorCallback(hspi);
3731:Drivers/STM32F4xx_HAL_Driver/Src/stm32f4xx_hal_spi.c **** #else
3732:Drivers/STM32F4xx_HAL_Driver/Src/stm32f4xx_hal_spi.c ****       HAL_SPI_ErrorCallback(hspi);
3733:Drivers/STM32F4xx_HAL_Driver/Src/stm32f4xx_hal_spi.c **** #endif /* USE_HAL_SPI_REGISTER_CALLBACKS */
3734:Drivers/STM32F4xx_HAL_Driver/Src/stm32f4xx_hal_spi.c ****     }
3735:Drivers/STM32F4xx_HAL_Driver/Src/stm32f4xx_hal_spi.c **** #if (USE_SPI_CRC != 0U)
3736:Drivers/STM32F4xx_HAL_Driver/Src/stm32f4xx_hal_spi.c ****   }
3737:Drivers/STM32F4xx_HAL_Driver/Src/stm32f4xx_hal_spi.c **** #endif /* USE_SPI_CRC */
3738:Drivers/STM32F4xx_HAL_Driver/Src/stm32f4xx_hal_spi.c **** }
 7249              		.loc 1 3738 1
 7250 00b6 0EE0     		b	.L346
 7251              	.L344:
3716:Drivers/STM32F4xx_HAL_Driver/Src/stm32f4xx_hal_spi.c ****         /* Call user TxRx complete callback */
 7252              		.loc 1 3716 21
 7253 00b8 7B68     		ldr	r3, [r7, #4]
 7254 00ba 0122     		movs	r2, #1
 7255 00bc 83F85120 		strb	r2, [r3, #81]
3721:Drivers/STM32F4xx_HAL_Driver/Src/stm32f4xx_hal_spi.c **** #endif /* USE_HAL_SPI_REGISTER_CALLBACKS */
 7256              		.loc 1 3721 9
 7257 00c0 7868     		ldr	r0, [r7, #4]
 7258 00c2 FFF7FEFF 		bl	HAL_SPI_TxRxCpltCallback
 7259              		.loc 1 3738 1
 7260 00c6 06E0     		b	.L346
 7261              	.L343:
3727:Drivers/STM32F4xx_HAL_Driver/Src/stm32f4xx_hal_spi.c ****       /* Call user error callback */
 7262              		.loc 1 3727 19
 7263 00c8 7B68     		ldr	r3, [r7, #4]
 7264 00ca 0122     		movs	r2, #1
 7265 00cc 83F85120 		strb	r2, [r3, #81]
3732:Drivers/STM32F4xx_HAL_Driver/Src/stm32f4xx_hal_spi.c **** #endif /* USE_HAL_SPI_REGISTER_CALLBACKS */
 7266              		.loc 1 3732 7
 7267 00d0 7868     		ldr	r0, [r7, #4]
 7268 00d2 FFF7FEFF 		bl	HAL_SPI_ErrorCallback
 7269              	.L346:
ARM GAS  C:\Users\16323\AppData\Local\Temp\ccbQ7VoP.s 			page 193


 7270              		.loc 1 3738 1
 7271 00d6 00BF     		nop
 7272 00d8 1837     		adds	r7, r7, #24
 7273              	.LCFI269:
 7274              		.cfi_def_cfa_offset 8
 7275 00da BD46     		mov	sp, r7
 7276              	.LCFI270:
 7277              		.cfi_def_cfa_register 13
 7278              		@ sp needed
 7279 00dc 80BD     		pop	{r7, pc}
 7280              	.L348:
 7281 00de 00BF     		.align	2
 7282              	.L347:
 7283 00e0 00000000 		.word	SystemCoreClock
 7284 00e4 F1197605 		.word	91625969
 7285              		.cfi_endproc
 7286              	.LFE289:
 7288              		.section	.text.SPI_CloseRx_ISR,"ax",%progbits
 7289              		.align	1
 7290              		.syntax unified
 7291              		.thumb
 7292              		.thumb_func
 7294              	SPI_CloseRx_ISR:
 7295              	.LFB290:
3739:Drivers/STM32F4xx_HAL_Driver/Src/stm32f4xx_hal_spi.c **** 
3740:Drivers/STM32F4xx_HAL_Driver/Src/stm32f4xx_hal_spi.c **** /**
3741:Drivers/STM32F4xx_HAL_Driver/Src/stm32f4xx_hal_spi.c ****   * @brief  Handle the end of the RX transaction.
3742:Drivers/STM32F4xx_HAL_Driver/Src/stm32f4xx_hal_spi.c ****   * @param  hspi pointer to a SPI_HandleTypeDef structure that contains
3743:Drivers/STM32F4xx_HAL_Driver/Src/stm32f4xx_hal_spi.c ****   *               the configuration information for SPI module.
3744:Drivers/STM32F4xx_HAL_Driver/Src/stm32f4xx_hal_spi.c ****   * @retval None
3745:Drivers/STM32F4xx_HAL_Driver/Src/stm32f4xx_hal_spi.c ****   */
3746:Drivers/STM32F4xx_HAL_Driver/Src/stm32f4xx_hal_spi.c **** static void SPI_CloseRx_ISR(SPI_HandleTypeDef *hspi)
3747:Drivers/STM32F4xx_HAL_Driver/Src/stm32f4xx_hal_spi.c **** {
 7296              		.loc 1 3747 1
 7297              		.cfi_startproc
 7298              		@ args = 0, pretend = 0, frame = 16
 7299              		@ frame_needed = 1, uses_anonymous_args = 0
 7300 0000 80B5     		push	{r7, lr}
 7301              	.LCFI271:
 7302              		.cfi_def_cfa_offset 8
 7303              		.cfi_offset 7, -8
 7304              		.cfi_offset 14, -4
 7305 0002 84B0     		sub	sp, sp, #16
 7306              	.LCFI272:
 7307              		.cfi_def_cfa_offset 24
 7308 0004 00AF     		add	r7, sp, #0
 7309              	.LCFI273:
 7310              		.cfi_def_cfa_register 7
 7311 0006 7860     		str	r0, [r7, #4]
3748:Drivers/STM32F4xx_HAL_Driver/Src/stm32f4xx_hal_spi.c ****   /* Disable RXNE and ERR interrupt */
3749:Drivers/STM32F4xx_HAL_Driver/Src/stm32f4xx_hal_spi.c ****   __HAL_SPI_DISABLE_IT(hspi, (SPI_IT_RXNE | SPI_IT_ERR));
 7312              		.loc 1 3749 3
 7313 0008 7B68     		ldr	r3, [r7, #4]
 7314 000a 1B68     		ldr	r3, [r3]
 7315 000c 5A68     		ldr	r2, [r3, #4]
 7316 000e 7B68     		ldr	r3, [r7, #4]
 7317 0010 1B68     		ldr	r3, [r3]
ARM GAS  C:\Users\16323\AppData\Local\Temp\ccbQ7VoP.s 			page 194


 7318 0012 22F06002 		bic	r2, r2, #96
 7319 0016 5A60     		str	r2, [r3, #4]
3750:Drivers/STM32F4xx_HAL_Driver/Src/stm32f4xx_hal_spi.c **** 
3751:Drivers/STM32F4xx_HAL_Driver/Src/stm32f4xx_hal_spi.c ****   /* Check the end of the transaction */
3752:Drivers/STM32F4xx_HAL_Driver/Src/stm32f4xx_hal_spi.c ****   if (SPI_EndRxTransaction(hspi, SPI_DEFAULT_TIMEOUT, HAL_GetTick()) != HAL_OK)
 7320              		.loc 1 3752 7
 7321 0018 FFF7FEFF 		bl	HAL_GetTick
 7322 001c 0346     		mov	r3, r0
 7323 001e 1A46     		mov	r2, r3
 7324 0020 6421     		movs	r1, #100
 7325 0022 7868     		ldr	r0, [r7, #4]
 7326 0024 FFF7FEFF 		bl	SPI_EndRxTransaction
 7327 0028 0346     		mov	r3, r0
 7328              		.loc 1 3752 6
 7329 002a 002B     		cmp	r3, #0
 7330 002c 05D0     		beq	.L350
3753:Drivers/STM32F4xx_HAL_Driver/Src/stm32f4xx_hal_spi.c ****   {
3754:Drivers/STM32F4xx_HAL_Driver/Src/stm32f4xx_hal_spi.c ****     SET_BIT(hspi->ErrorCode, HAL_SPI_ERROR_FLAG);
 7331              		.loc 1 3754 5
 7332 002e 7B68     		ldr	r3, [r7, #4]
 7333 0030 5B6D     		ldr	r3, [r3, #84]
 7334 0032 43F02002 		orr	r2, r3, #32
 7335 0036 7B68     		ldr	r3, [r7, #4]
 7336 0038 5A65     		str	r2, [r3, #84]
 7337              	.L350:
3755:Drivers/STM32F4xx_HAL_Driver/Src/stm32f4xx_hal_spi.c ****   }
3756:Drivers/STM32F4xx_HAL_Driver/Src/stm32f4xx_hal_spi.c **** 
3757:Drivers/STM32F4xx_HAL_Driver/Src/stm32f4xx_hal_spi.c ****   /* Clear overrun flag in 2 Lines communication mode because received is not read */
3758:Drivers/STM32F4xx_HAL_Driver/Src/stm32f4xx_hal_spi.c ****   if (hspi->Init.Direction == SPI_DIRECTION_2LINES)
 7338              		.loc 1 3758 17
 7339 003a 7B68     		ldr	r3, [r7, #4]
 7340 003c 9B68     		ldr	r3, [r3, #8]
 7341              		.loc 1 3758 6
 7342 003e 002B     		cmp	r3, #0
 7343 0040 0AD1     		bne	.L351
 7344              	.LBB18:
3759:Drivers/STM32F4xx_HAL_Driver/Src/stm32f4xx_hal_spi.c ****   {
3760:Drivers/STM32F4xx_HAL_Driver/Src/stm32f4xx_hal_spi.c ****     __HAL_SPI_CLEAR_OVRFLAG(hspi);
 7345              		.loc 1 3760 5
 7346 0042 0023     		movs	r3, #0
 7347 0044 FB60     		str	r3, [r7, #12]
 7348 0046 7B68     		ldr	r3, [r7, #4]
 7349 0048 1B68     		ldr	r3, [r3]
 7350 004a DB68     		ldr	r3, [r3, #12]
 7351 004c FB60     		str	r3, [r7, #12]
 7352 004e 7B68     		ldr	r3, [r7, #4]
 7353 0050 1B68     		ldr	r3, [r3]
 7354 0052 9B68     		ldr	r3, [r3, #8]
 7355 0054 FB60     		str	r3, [r7, #12]
 7356 0056 FB68     		ldr	r3, [r7, #12]
 7357              	.L351:
 7358              	.LBE18:
3761:Drivers/STM32F4xx_HAL_Driver/Src/stm32f4xx_hal_spi.c ****   }
3762:Drivers/STM32F4xx_HAL_Driver/Src/stm32f4xx_hal_spi.c ****   hspi->State = HAL_SPI_STATE_READY;
 7359              		.loc 1 3762 15
 7360 0058 7B68     		ldr	r3, [r7, #4]
 7361 005a 0122     		movs	r2, #1
ARM GAS  C:\Users\16323\AppData\Local\Temp\ccbQ7VoP.s 			page 195


 7362 005c 83F85120 		strb	r2, [r3, #81]
3763:Drivers/STM32F4xx_HAL_Driver/Src/stm32f4xx_hal_spi.c **** 
3764:Drivers/STM32F4xx_HAL_Driver/Src/stm32f4xx_hal_spi.c **** #if (USE_SPI_CRC != 0U)
3765:Drivers/STM32F4xx_HAL_Driver/Src/stm32f4xx_hal_spi.c ****   /* Check if CRC error occurred */
3766:Drivers/STM32F4xx_HAL_Driver/Src/stm32f4xx_hal_spi.c ****   if (__HAL_SPI_GET_FLAG(hspi, SPI_FLAG_CRCERR) != RESET)
3767:Drivers/STM32F4xx_HAL_Driver/Src/stm32f4xx_hal_spi.c ****   {
3768:Drivers/STM32F4xx_HAL_Driver/Src/stm32f4xx_hal_spi.c ****     SET_BIT(hspi->ErrorCode, HAL_SPI_ERROR_CRC);
3769:Drivers/STM32F4xx_HAL_Driver/Src/stm32f4xx_hal_spi.c ****     __HAL_SPI_CLEAR_CRCERRFLAG(hspi);
3770:Drivers/STM32F4xx_HAL_Driver/Src/stm32f4xx_hal_spi.c ****     /* Call user error callback */
3771:Drivers/STM32F4xx_HAL_Driver/Src/stm32f4xx_hal_spi.c **** #if (USE_HAL_SPI_REGISTER_CALLBACKS == 1U)
3772:Drivers/STM32F4xx_HAL_Driver/Src/stm32f4xx_hal_spi.c ****     hspi->ErrorCallback(hspi);
3773:Drivers/STM32F4xx_HAL_Driver/Src/stm32f4xx_hal_spi.c **** #else
3774:Drivers/STM32F4xx_HAL_Driver/Src/stm32f4xx_hal_spi.c ****     HAL_SPI_ErrorCallback(hspi);
3775:Drivers/STM32F4xx_HAL_Driver/Src/stm32f4xx_hal_spi.c **** #endif /* USE_HAL_SPI_REGISTER_CALLBACKS */
3776:Drivers/STM32F4xx_HAL_Driver/Src/stm32f4xx_hal_spi.c ****   }
3777:Drivers/STM32F4xx_HAL_Driver/Src/stm32f4xx_hal_spi.c ****   else
3778:Drivers/STM32F4xx_HAL_Driver/Src/stm32f4xx_hal_spi.c ****   {
3779:Drivers/STM32F4xx_HAL_Driver/Src/stm32f4xx_hal_spi.c **** #endif /* USE_SPI_CRC */
3780:Drivers/STM32F4xx_HAL_Driver/Src/stm32f4xx_hal_spi.c ****     if (hspi->ErrorCode == HAL_SPI_ERROR_NONE)
 7363              		.loc 1 3780 13
 7364 0060 7B68     		ldr	r3, [r7, #4]
 7365 0062 5B6D     		ldr	r3, [r3, #84]
 7366              		.loc 1 3780 8
 7367 0064 002B     		cmp	r3, #0
 7368 0066 03D1     		bne	.L352
3781:Drivers/STM32F4xx_HAL_Driver/Src/stm32f4xx_hal_spi.c ****     {
3782:Drivers/STM32F4xx_HAL_Driver/Src/stm32f4xx_hal_spi.c ****       /* Call user Rx complete callback */
3783:Drivers/STM32F4xx_HAL_Driver/Src/stm32f4xx_hal_spi.c **** #if (USE_HAL_SPI_REGISTER_CALLBACKS == 1U)
3784:Drivers/STM32F4xx_HAL_Driver/Src/stm32f4xx_hal_spi.c ****       hspi->RxCpltCallback(hspi);
3785:Drivers/STM32F4xx_HAL_Driver/Src/stm32f4xx_hal_spi.c **** #else
3786:Drivers/STM32F4xx_HAL_Driver/Src/stm32f4xx_hal_spi.c ****       HAL_SPI_RxCpltCallback(hspi);
 7369              		.loc 1 3786 7
 7370 0068 7868     		ldr	r0, [r7, #4]
 7371 006a FFF7FEFF 		bl	HAL_SPI_RxCpltCallback
3787:Drivers/STM32F4xx_HAL_Driver/Src/stm32f4xx_hal_spi.c **** #endif /* USE_HAL_SPI_REGISTER_CALLBACKS */
3788:Drivers/STM32F4xx_HAL_Driver/Src/stm32f4xx_hal_spi.c ****     }
3789:Drivers/STM32F4xx_HAL_Driver/Src/stm32f4xx_hal_spi.c ****     else
3790:Drivers/STM32F4xx_HAL_Driver/Src/stm32f4xx_hal_spi.c ****     {
3791:Drivers/STM32F4xx_HAL_Driver/Src/stm32f4xx_hal_spi.c ****       /* Call user error callback */
3792:Drivers/STM32F4xx_HAL_Driver/Src/stm32f4xx_hal_spi.c **** #if (USE_HAL_SPI_REGISTER_CALLBACKS == 1U)
3793:Drivers/STM32F4xx_HAL_Driver/Src/stm32f4xx_hal_spi.c ****       hspi->ErrorCallback(hspi);
3794:Drivers/STM32F4xx_HAL_Driver/Src/stm32f4xx_hal_spi.c **** #else
3795:Drivers/STM32F4xx_HAL_Driver/Src/stm32f4xx_hal_spi.c ****       HAL_SPI_ErrorCallback(hspi);
3796:Drivers/STM32F4xx_HAL_Driver/Src/stm32f4xx_hal_spi.c **** #endif /* USE_HAL_SPI_REGISTER_CALLBACKS */
3797:Drivers/STM32F4xx_HAL_Driver/Src/stm32f4xx_hal_spi.c ****     }
3798:Drivers/STM32F4xx_HAL_Driver/Src/stm32f4xx_hal_spi.c **** #if (USE_SPI_CRC != 0U)
3799:Drivers/STM32F4xx_HAL_Driver/Src/stm32f4xx_hal_spi.c ****   }
3800:Drivers/STM32F4xx_HAL_Driver/Src/stm32f4xx_hal_spi.c **** #endif /* USE_SPI_CRC */
3801:Drivers/STM32F4xx_HAL_Driver/Src/stm32f4xx_hal_spi.c **** }
 7372              		.loc 1 3801 1
 7373 006e 02E0     		b	.L354
 7374              	.L352:
3795:Drivers/STM32F4xx_HAL_Driver/Src/stm32f4xx_hal_spi.c **** #endif /* USE_HAL_SPI_REGISTER_CALLBACKS */
 7375              		.loc 1 3795 7
 7376 0070 7868     		ldr	r0, [r7, #4]
 7377 0072 FFF7FEFF 		bl	HAL_SPI_ErrorCallback
 7378              	.L354:
ARM GAS  C:\Users\16323\AppData\Local\Temp\ccbQ7VoP.s 			page 196


 7379              		.loc 1 3801 1
 7380 0076 00BF     		nop
 7381 0078 1037     		adds	r7, r7, #16
 7382              	.LCFI274:
 7383              		.cfi_def_cfa_offset 8
 7384 007a BD46     		mov	sp, r7
 7385              	.LCFI275:
 7386              		.cfi_def_cfa_register 13
 7387              		@ sp needed
 7388 007c 80BD     		pop	{r7, pc}
 7389              		.cfi_endproc
 7390              	.LFE290:
 7392              		.section	.text.SPI_CloseTx_ISR,"ax",%progbits
 7393              		.align	1
 7394              		.syntax unified
 7395              		.thumb
 7396              		.thumb_func
 7398              	SPI_CloseTx_ISR:
 7399              	.LFB291:
3802:Drivers/STM32F4xx_HAL_Driver/Src/stm32f4xx_hal_spi.c **** 
3803:Drivers/STM32F4xx_HAL_Driver/Src/stm32f4xx_hal_spi.c **** /**
3804:Drivers/STM32F4xx_HAL_Driver/Src/stm32f4xx_hal_spi.c ****   * @brief  Handle the end of the TX transaction.
3805:Drivers/STM32F4xx_HAL_Driver/Src/stm32f4xx_hal_spi.c ****   * @param  hspi pointer to a SPI_HandleTypeDef structure that contains
3806:Drivers/STM32F4xx_HAL_Driver/Src/stm32f4xx_hal_spi.c ****   *               the configuration information for SPI module.
3807:Drivers/STM32F4xx_HAL_Driver/Src/stm32f4xx_hal_spi.c ****   * @retval None
3808:Drivers/STM32F4xx_HAL_Driver/Src/stm32f4xx_hal_spi.c ****   */
3809:Drivers/STM32F4xx_HAL_Driver/Src/stm32f4xx_hal_spi.c **** static void SPI_CloseTx_ISR(SPI_HandleTypeDef *hspi)
3810:Drivers/STM32F4xx_HAL_Driver/Src/stm32f4xx_hal_spi.c **** {
 7400              		.loc 1 3810 1
 7401              		.cfi_startproc
 7402              		@ args = 0, pretend = 0, frame = 24
 7403              		@ frame_needed = 1, uses_anonymous_args = 0
 7404 0000 80B5     		push	{r7, lr}
 7405              	.LCFI276:
 7406              		.cfi_def_cfa_offset 8
 7407              		.cfi_offset 7, -8
 7408              		.cfi_offset 14, -4
 7409 0002 86B0     		sub	sp, sp, #24
 7410              	.LCFI277:
 7411              		.cfi_def_cfa_offset 32
 7412 0004 00AF     		add	r7, sp, #0
 7413              	.LCFI278:
 7414              		.cfi_def_cfa_register 7
 7415 0006 7860     		str	r0, [r7, #4]
3811:Drivers/STM32F4xx_HAL_Driver/Src/stm32f4xx_hal_spi.c ****   uint32_t tickstart;
3812:Drivers/STM32F4xx_HAL_Driver/Src/stm32f4xx_hal_spi.c ****   __IO uint32_t count = SPI_DEFAULT_TIMEOUT * (SystemCoreClock / 24U / 1000U);
 7416              		.loc 1 3812 70
 7417 0008 2C4B     		ldr	r3, .L364
 7418 000a 1B68     		ldr	r3, [r3]
 7419 000c 2C4A     		ldr	r2, .L364+4
 7420 000e A2FB0323 		umull	r2, r3, r2, r3
 7421 0012 5B0A     		lsrs	r3, r3, #9
 7422              		.loc 1 3812 45
 7423 0014 6422     		movs	r2, #100
 7424 0016 02FB03F3 		mul	r3, r2, r3
 7425              		.loc 1 3812 17
 7426 001a 3B61     		str	r3, [r7, #16]
ARM GAS  C:\Users\16323\AppData\Local\Temp\ccbQ7VoP.s 			page 197


3813:Drivers/STM32F4xx_HAL_Driver/Src/stm32f4xx_hal_spi.c **** 
3814:Drivers/STM32F4xx_HAL_Driver/Src/stm32f4xx_hal_spi.c ****   /* Init tickstart for timeout management*/
3815:Drivers/STM32F4xx_HAL_Driver/Src/stm32f4xx_hal_spi.c ****   tickstart = HAL_GetTick();
 7427              		.loc 1 3815 15
 7428 001c FFF7FEFF 		bl	HAL_GetTick
 7429 0020 7861     		str	r0, [r7, #20]
 7430              	.L358:
3816:Drivers/STM32F4xx_HAL_Driver/Src/stm32f4xx_hal_spi.c **** 
3817:Drivers/STM32F4xx_HAL_Driver/Src/stm32f4xx_hal_spi.c ****   /* Wait until TXE flag is set */
3818:Drivers/STM32F4xx_HAL_Driver/Src/stm32f4xx_hal_spi.c ****   do
3819:Drivers/STM32F4xx_HAL_Driver/Src/stm32f4xx_hal_spi.c ****   {
3820:Drivers/STM32F4xx_HAL_Driver/Src/stm32f4xx_hal_spi.c ****     if (count == 0U)
 7431              		.loc 1 3820 15
 7432 0022 3B69     		ldr	r3, [r7, #16]
 7433              		.loc 1 3820 8
 7434 0024 002B     		cmp	r3, #0
 7435 0026 06D1     		bne	.L356
3821:Drivers/STM32F4xx_HAL_Driver/Src/stm32f4xx_hal_spi.c ****     {
3822:Drivers/STM32F4xx_HAL_Driver/Src/stm32f4xx_hal_spi.c ****       SET_BIT(hspi->ErrorCode, HAL_SPI_ERROR_FLAG);
 7436              		.loc 1 3822 7
 7437 0028 7B68     		ldr	r3, [r7, #4]
 7438 002a 5B6D     		ldr	r3, [r3, #84]
 7439 002c 43F02002 		orr	r2, r3, #32
 7440 0030 7B68     		ldr	r3, [r7, #4]
 7441 0032 5A65     		str	r2, [r3, #84]
3823:Drivers/STM32F4xx_HAL_Driver/Src/stm32f4xx_hal_spi.c ****       break;
 7442              		.loc 1 3823 7
 7443 0034 09E0     		b	.L357
 7444              	.L356:
3824:Drivers/STM32F4xx_HAL_Driver/Src/stm32f4xx_hal_spi.c ****     }
3825:Drivers/STM32F4xx_HAL_Driver/Src/stm32f4xx_hal_spi.c ****     count--;
 7445              		.loc 1 3825 10
 7446 0036 3B69     		ldr	r3, [r7, #16]
 7447 0038 013B     		subs	r3, r3, #1
 7448 003a 3B61     		str	r3, [r7, #16]
3826:Drivers/STM32F4xx_HAL_Driver/Src/stm32f4xx_hal_spi.c ****   } while ((hspi->Instance->SR & SPI_FLAG_TXE) == RESET);
 7449              		.loc 1 3826 17
 7450 003c 7B68     		ldr	r3, [r7, #4]
 7451 003e 1B68     		ldr	r3, [r3]
 7452              		.loc 1 3826 27
 7453 0040 9B68     		ldr	r3, [r3, #8]
 7454              		.loc 1 3826 32
 7455 0042 03F00203 		and	r3, r3, #2
 7456              		.loc 1 3826 3
 7457 0046 002B     		cmp	r3, #0
 7458 0048 EBD0     		beq	.L358
 7459              	.L357:
3827:Drivers/STM32F4xx_HAL_Driver/Src/stm32f4xx_hal_spi.c **** 
3828:Drivers/STM32F4xx_HAL_Driver/Src/stm32f4xx_hal_spi.c ****   /* Disable TXE and ERR interrupt */
3829:Drivers/STM32F4xx_HAL_Driver/Src/stm32f4xx_hal_spi.c ****   __HAL_SPI_DISABLE_IT(hspi, (SPI_IT_TXE | SPI_IT_ERR));
 7460              		.loc 1 3829 3
 7461 004a 7B68     		ldr	r3, [r7, #4]
 7462 004c 1B68     		ldr	r3, [r3]
 7463 004e 5A68     		ldr	r2, [r3, #4]
 7464 0050 7B68     		ldr	r3, [r7, #4]
 7465 0052 1B68     		ldr	r3, [r3]
 7466 0054 22F0A002 		bic	r2, r2, #160
ARM GAS  C:\Users\16323\AppData\Local\Temp\ccbQ7VoP.s 			page 198


 7467 0058 5A60     		str	r2, [r3, #4]
3830:Drivers/STM32F4xx_HAL_Driver/Src/stm32f4xx_hal_spi.c **** 
3831:Drivers/STM32F4xx_HAL_Driver/Src/stm32f4xx_hal_spi.c ****   /* Check the end of the transaction */
3832:Drivers/STM32F4xx_HAL_Driver/Src/stm32f4xx_hal_spi.c ****   if (SPI_EndRxTxTransaction(hspi, SPI_DEFAULT_TIMEOUT, tickstart) != HAL_OK)
 7468              		.loc 1 3832 7
 7469 005a 7A69     		ldr	r2, [r7, #20]
 7470 005c 6421     		movs	r1, #100
 7471 005e 7868     		ldr	r0, [r7, #4]
 7472 0060 FFF7FEFF 		bl	SPI_EndRxTxTransaction
 7473 0064 0346     		mov	r3, r0
 7474              		.loc 1 3832 6
 7475 0066 002B     		cmp	r3, #0
 7476 0068 05D0     		beq	.L359
3833:Drivers/STM32F4xx_HAL_Driver/Src/stm32f4xx_hal_spi.c ****   {
3834:Drivers/STM32F4xx_HAL_Driver/Src/stm32f4xx_hal_spi.c ****     SET_BIT(hspi->ErrorCode, HAL_SPI_ERROR_FLAG);
 7477              		.loc 1 3834 5
 7478 006a 7B68     		ldr	r3, [r7, #4]
 7479 006c 5B6D     		ldr	r3, [r3, #84]
 7480 006e 43F02002 		orr	r2, r3, #32
 7481 0072 7B68     		ldr	r3, [r7, #4]
 7482 0074 5A65     		str	r2, [r3, #84]
 7483              	.L359:
3835:Drivers/STM32F4xx_HAL_Driver/Src/stm32f4xx_hal_spi.c ****   }
3836:Drivers/STM32F4xx_HAL_Driver/Src/stm32f4xx_hal_spi.c **** 
3837:Drivers/STM32F4xx_HAL_Driver/Src/stm32f4xx_hal_spi.c ****   /* Clear overrun flag in 2 Lines communication mode because received is not read */
3838:Drivers/STM32F4xx_HAL_Driver/Src/stm32f4xx_hal_spi.c ****   if (hspi->Init.Direction == SPI_DIRECTION_2LINES)
 7484              		.loc 1 3838 17
 7485 0076 7B68     		ldr	r3, [r7, #4]
 7486 0078 9B68     		ldr	r3, [r3, #8]
 7487              		.loc 1 3838 6
 7488 007a 002B     		cmp	r3, #0
 7489 007c 0AD1     		bne	.L360
 7490              	.LBB19:
3839:Drivers/STM32F4xx_HAL_Driver/Src/stm32f4xx_hal_spi.c ****   {
3840:Drivers/STM32F4xx_HAL_Driver/Src/stm32f4xx_hal_spi.c ****     __HAL_SPI_CLEAR_OVRFLAG(hspi);
 7491              		.loc 1 3840 5
 7492 007e 0023     		movs	r3, #0
 7493 0080 FB60     		str	r3, [r7, #12]
 7494 0082 7B68     		ldr	r3, [r7, #4]
 7495 0084 1B68     		ldr	r3, [r3]
 7496 0086 DB68     		ldr	r3, [r3, #12]
 7497 0088 FB60     		str	r3, [r7, #12]
 7498 008a 7B68     		ldr	r3, [r7, #4]
 7499 008c 1B68     		ldr	r3, [r3]
 7500 008e 9B68     		ldr	r3, [r3, #8]
 7501 0090 FB60     		str	r3, [r7, #12]
 7502 0092 FB68     		ldr	r3, [r7, #12]
 7503              	.L360:
 7504              	.LBE19:
3841:Drivers/STM32F4xx_HAL_Driver/Src/stm32f4xx_hal_spi.c ****   }
3842:Drivers/STM32F4xx_HAL_Driver/Src/stm32f4xx_hal_spi.c **** 
3843:Drivers/STM32F4xx_HAL_Driver/Src/stm32f4xx_hal_spi.c ****   hspi->State = HAL_SPI_STATE_READY;
 7505              		.loc 1 3843 15
 7506 0094 7B68     		ldr	r3, [r7, #4]
 7507 0096 0122     		movs	r2, #1
 7508 0098 83F85120 		strb	r2, [r3, #81]
3844:Drivers/STM32F4xx_HAL_Driver/Src/stm32f4xx_hal_spi.c ****   if (hspi->ErrorCode != HAL_SPI_ERROR_NONE)
ARM GAS  C:\Users\16323\AppData\Local\Temp\ccbQ7VoP.s 			page 199


 7509              		.loc 1 3844 11
 7510 009c 7B68     		ldr	r3, [r7, #4]
 7511 009e 5B6D     		ldr	r3, [r3, #84]
 7512              		.loc 1 3844 6
 7513 00a0 002B     		cmp	r3, #0
 7514 00a2 03D0     		beq	.L361
3845:Drivers/STM32F4xx_HAL_Driver/Src/stm32f4xx_hal_spi.c ****   {
3846:Drivers/STM32F4xx_HAL_Driver/Src/stm32f4xx_hal_spi.c ****     /* Call user error callback */
3847:Drivers/STM32F4xx_HAL_Driver/Src/stm32f4xx_hal_spi.c **** #if (USE_HAL_SPI_REGISTER_CALLBACKS == 1U)
3848:Drivers/STM32F4xx_HAL_Driver/Src/stm32f4xx_hal_spi.c ****     hspi->ErrorCallback(hspi);
3849:Drivers/STM32F4xx_HAL_Driver/Src/stm32f4xx_hal_spi.c **** #else
3850:Drivers/STM32F4xx_HAL_Driver/Src/stm32f4xx_hal_spi.c ****     HAL_SPI_ErrorCallback(hspi);
 7515              		.loc 1 3850 5
 7516 00a4 7868     		ldr	r0, [r7, #4]
 7517 00a6 FFF7FEFF 		bl	HAL_SPI_ErrorCallback
3851:Drivers/STM32F4xx_HAL_Driver/Src/stm32f4xx_hal_spi.c **** #endif /* USE_HAL_SPI_REGISTER_CALLBACKS */
3852:Drivers/STM32F4xx_HAL_Driver/Src/stm32f4xx_hal_spi.c ****   }
3853:Drivers/STM32F4xx_HAL_Driver/Src/stm32f4xx_hal_spi.c ****   else
3854:Drivers/STM32F4xx_HAL_Driver/Src/stm32f4xx_hal_spi.c ****   {
3855:Drivers/STM32F4xx_HAL_Driver/Src/stm32f4xx_hal_spi.c ****     /* Call user Rx complete callback */
3856:Drivers/STM32F4xx_HAL_Driver/Src/stm32f4xx_hal_spi.c **** #if (USE_HAL_SPI_REGISTER_CALLBACKS == 1U)
3857:Drivers/STM32F4xx_HAL_Driver/Src/stm32f4xx_hal_spi.c ****     hspi->TxCpltCallback(hspi);
3858:Drivers/STM32F4xx_HAL_Driver/Src/stm32f4xx_hal_spi.c **** #else
3859:Drivers/STM32F4xx_HAL_Driver/Src/stm32f4xx_hal_spi.c ****     HAL_SPI_TxCpltCallback(hspi);
3860:Drivers/STM32F4xx_HAL_Driver/Src/stm32f4xx_hal_spi.c **** #endif /* USE_HAL_SPI_REGISTER_CALLBACKS */
3861:Drivers/STM32F4xx_HAL_Driver/Src/stm32f4xx_hal_spi.c ****   }
3862:Drivers/STM32F4xx_HAL_Driver/Src/stm32f4xx_hal_spi.c **** }
 7518              		.loc 1 3862 1
 7519 00aa 02E0     		b	.L363
 7520              	.L361:
3859:Drivers/STM32F4xx_HAL_Driver/Src/stm32f4xx_hal_spi.c **** #endif /* USE_HAL_SPI_REGISTER_CALLBACKS */
 7521              		.loc 1 3859 5
 7522 00ac 7868     		ldr	r0, [r7, #4]
 7523 00ae FFF7FEFF 		bl	HAL_SPI_TxCpltCallback
 7524              	.L363:
 7525              		.loc 1 3862 1
 7526 00b2 00BF     		nop
 7527 00b4 1837     		adds	r7, r7, #24
 7528              	.LCFI279:
 7529              		.cfi_def_cfa_offset 8
 7530 00b6 BD46     		mov	sp, r7
 7531              	.LCFI280:
 7532              		.cfi_def_cfa_register 13
 7533              		@ sp needed
 7534 00b8 80BD     		pop	{r7, pc}
 7535              	.L365:
 7536 00ba 00BF     		.align	2
 7537              	.L364:
 7538 00bc 00000000 		.word	SystemCoreClock
 7539 00c0 F1197605 		.word	91625969
 7540              		.cfi_endproc
 7541              	.LFE291:
 7543              		.section	.text.SPI_AbortRx_ISR,"ax",%progbits
 7544              		.align	1
 7545              		.syntax unified
 7546              		.thumb
 7547              		.thumb_func
ARM GAS  C:\Users\16323\AppData\Local\Temp\ccbQ7VoP.s 			page 200


 7549              	SPI_AbortRx_ISR:
 7550              	.LFB292:
3863:Drivers/STM32F4xx_HAL_Driver/Src/stm32f4xx_hal_spi.c **** 
3864:Drivers/STM32F4xx_HAL_Driver/Src/stm32f4xx_hal_spi.c **** /**
3865:Drivers/STM32F4xx_HAL_Driver/Src/stm32f4xx_hal_spi.c ****   * @brief  Handle abort a Rx transaction.
3866:Drivers/STM32F4xx_HAL_Driver/Src/stm32f4xx_hal_spi.c ****   * @param  hspi pointer to a SPI_HandleTypeDef structure that contains
3867:Drivers/STM32F4xx_HAL_Driver/Src/stm32f4xx_hal_spi.c ****   *               the configuration information for SPI module.
3868:Drivers/STM32F4xx_HAL_Driver/Src/stm32f4xx_hal_spi.c ****   * @retval None
3869:Drivers/STM32F4xx_HAL_Driver/Src/stm32f4xx_hal_spi.c ****   */
3870:Drivers/STM32F4xx_HAL_Driver/Src/stm32f4xx_hal_spi.c **** static void SPI_AbortRx_ISR(SPI_HandleTypeDef *hspi)
3871:Drivers/STM32F4xx_HAL_Driver/Src/stm32f4xx_hal_spi.c **** {
 7551              		.loc 1 3871 1
 7552              		.cfi_startproc
 7553              		@ args = 0, pretend = 0, frame = 16
 7554              		@ frame_needed = 1, uses_anonymous_args = 0
 7555              		@ link register save eliminated.
 7556 0000 80B4     		push	{r7}
 7557              	.LCFI281:
 7558              		.cfi_def_cfa_offset 4
 7559              		.cfi_offset 7, -4
 7560 0002 85B0     		sub	sp, sp, #20
 7561              	.LCFI282:
 7562              		.cfi_def_cfa_offset 24
 7563 0004 00AF     		add	r7, sp, #0
 7564              	.LCFI283:
 7565              		.cfi_def_cfa_register 7
 7566 0006 7860     		str	r0, [r7, #4]
3872:Drivers/STM32F4xx_HAL_Driver/Src/stm32f4xx_hal_spi.c ****   __IO uint32_t tmpreg = 0U;
 7567              		.loc 1 3872 17
 7568 0008 0023     		movs	r3, #0
 7569 000a FB60     		str	r3, [r7, #12]
3873:Drivers/STM32F4xx_HAL_Driver/Src/stm32f4xx_hal_spi.c ****   __IO uint32_t count = SPI_DEFAULT_TIMEOUT * (SystemCoreClock / 24U / 1000U);
 7570              		.loc 1 3873 70
 7571 000c 1E4B     		ldr	r3, .L370
 7572 000e 1B68     		ldr	r3, [r3]
 7573 0010 1E4A     		ldr	r2, .L370+4
 7574 0012 A2FB0323 		umull	r2, r3, r2, r3
 7575 0016 5B0A     		lsrs	r3, r3, #9
 7576              		.loc 1 3873 45
 7577 0018 6422     		movs	r2, #100
 7578 001a 02FB03F3 		mul	r3, r2, r3
 7579              		.loc 1 3873 17
 7580 001e BB60     		str	r3, [r7, #8]
 7581              	.L369:
3874:Drivers/STM32F4xx_HAL_Driver/Src/stm32f4xx_hal_spi.c **** 
3875:Drivers/STM32F4xx_HAL_Driver/Src/stm32f4xx_hal_spi.c ****   /* Wait until TXE flag is set */
3876:Drivers/STM32F4xx_HAL_Driver/Src/stm32f4xx_hal_spi.c ****   do
3877:Drivers/STM32F4xx_HAL_Driver/Src/stm32f4xx_hal_spi.c ****   {
3878:Drivers/STM32F4xx_HAL_Driver/Src/stm32f4xx_hal_spi.c ****     if (count == 0U)
 7582              		.loc 1 3878 15
 7583 0020 BB68     		ldr	r3, [r7, #8]
 7584              		.loc 1 3878 8
 7585 0022 002B     		cmp	r3, #0
 7586 0024 06D1     		bne	.L367
3879:Drivers/STM32F4xx_HAL_Driver/Src/stm32f4xx_hal_spi.c ****     {
3880:Drivers/STM32F4xx_HAL_Driver/Src/stm32f4xx_hal_spi.c ****       SET_BIT(hspi->ErrorCode, HAL_SPI_ERROR_ABORT);
 7587              		.loc 1 3880 7
ARM GAS  C:\Users\16323\AppData\Local\Temp\ccbQ7VoP.s 			page 201


 7588 0026 7B68     		ldr	r3, [r7, #4]
 7589 0028 5B6D     		ldr	r3, [r3, #84]
 7590 002a 43F04002 		orr	r2, r3, #64
 7591 002e 7B68     		ldr	r3, [r7, #4]
 7592 0030 5A65     		str	r2, [r3, #84]
3881:Drivers/STM32F4xx_HAL_Driver/Src/stm32f4xx_hal_spi.c ****       break;
 7593              		.loc 1 3881 7
 7594 0032 09E0     		b	.L368
 7595              	.L367:
3882:Drivers/STM32F4xx_HAL_Driver/Src/stm32f4xx_hal_spi.c ****     }
3883:Drivers/STM32F4xx_HAL_Driver/Src/stm32f4xx_hal_spi.c ****     count--;
 7596              		.loc 1 3883 10
 7597 0034 BB68     		ldr	r3, [r7, #8]
 7598 0036 013B     		subs	r3, r3, #1
 7599 0038 BB60     		str	r3, [r7, #8]
3884:Drivers/STM32F4xx_HAL_Driver/Src/stm32f4xx_hal_spi.c ****   } while ((hspi->Instance->SR & SPI_FLAG_TXE) == RESET);
 7600              		.loc 1 3884 17
 7601 003a 7B68     		ldr	r3, [r7, #4]
 7602 003c 1B68     		ldr	r3, [r3]
 7603              		.loc 1 3884 27
 7604 003e 9B68     		ldr	r3, [r3, #8]
 7605              		.loc 1 3884 32
 7606 0040 03F00203 		and	r3, r3, #2
 7607              		.loc 1 3884 3
 7608 0044 002B     		cmp	r3, #0
 7609 0046 EBD0     		beq	.L369
 7610              	.L368:
3885:Drivers/STM32F4xx_HAL_Driver/Src/stm32f4xx_hal_spi.c **** 
3886:Drivers/STM32F4xx_HAL_Driver/Src/stm32f4xx_hal_spi.c ****   /* Disable SPI Peripheral */
3887:Drivers/STM32F4xx_HAL_Driver/Src/stm32f4xx_hal_spi.c ****   __HAL_SPI_DISABLE(hspi);
 7611              		.loc 1 3887 3
 7612 0048 7B68     		ldr	r3, [r7, #4]
 7613 004a 1B68     		ldr	r3, [r3]
 7614 004c 1A68     		ldr	r2, [r3]
 7615 004e 7B68     		ldr	r3, [r7, #4]
 7616 0050 1B68     		ldr	r3, [r3]
 7617 0052 22F04002 		bic	r2, r2, #64
 7618 0056 1A60     		str	r2, [r3]
3888:Drivers/STM32F4xx_HAL_Driver/Src/stm32f4xx_hal_spi.c **** 
3889:Drivers/STM32F4xx_HAL_Driver/Src/stm32f4xx_hal_spi.c ****   /* Disable TXEIE, RXNEIE and ERRIE(mode fault event, overrun error, TI frame error) interrupts */
3890:Drivers/STM32F4xx_HAL_Driver/Src/stm32f4xx_hal_spi.c ****   CLEAR_BIT(hspi->Instance->CR2, (SPI_CR2_TXEIE | SPI_CR2_RXNEIE | SPI_CR2_ERRIE));
 7619              		.loc 1 3890 3
 7620 0058 7B68     		ldr	r3, [r7, #4]
 7621 005a 1B68     		ldr	r3, [r3]
 7622 005c 5A68     		ldr	r2, [r3, #4]
 7623 005e 7B68     		ldr	r3, [r7, #4]
 7624 0060 1B68     		ldr	r3, [r3]
 7625 0062 22F0E002 		bic	r2, r2, #224
 7626 0066 5A60     		str	r2, [r3, #4]
3891:Drivers/STM32F4xx_HAL_Driver/Src/stm32f4xx_hal_spi.c **** 
3892:Drivers/STM32F4xx_HAL_Driver/Src/stm32f4xx_hal_spi.c ****   /* Flush Data Register by a blank read */
3893:Drivers/STM32F4xx_HAL_Driver/Src/stm32f4xx_hal_spi.c ****   tmpreg = READ_REG(hspi->Instance->DR);
 7627              		.loc 1 3893 12
 7628 0068 7B68     		ldr	r3, [r7, #4]
 7629 006a 1B68     		ldr	r3, [r3]
 7630 006c DB68     		ldr	r3, [r3, #12]
 7631              		.loc 1 3893 10
ARM GAS  C:\Users\16323\AppData\Local\Temp\ccbQ7VoP.s 			page 202


 7632 006e FB60     		str	r3, [r7, #12]
3894:Drivers/STM32F4xx_HAL_Driver/Src/stm32f4xx_hal_spi.c ****   /* To avoid GCC warning */
3895:Drivers/STM32F4xx_HAL_Driver/Src/stm32f4xx_hal_spi.c ****   UNUSED(tmpreg);
 7633              		.loc 1 3895 3
 7634 0070 FB68     		ldr	r3, [r7, #12]
3896:Drivers/STM32F4xx_HAL_Driver/Src/stm32f4xx_hal_spi.c **** 
3897:Drivers/STM32F4xx_HAL_Driver/Src/stm32f4xx_hal_spi.c ****   hspi->State = HAL_SPI_STATE_ABORT;
 7635              		.loc 1 3897 15
 7636 0072 7B68     		ldr	r3, [r7, #4]
 7637 0074 0722     		movs	r2, #7
 7638 0076 83F85120 		strb	r2, [r3, #81]
3898:Drivers/STM32F4xx_HAL_Driver/Src/stm32f4xx_hal_spi.c **** }
 7639              		.loc 1 3898 1
 7640 007a 00BF     		nop
 7641 007c 1437     		adds	r7, r7, #20
 7642              	.LCFI284:
 7643              		.cfi_def_cfa_offset 4
 7644 007e BD46     		mov	sp, r7
 7645              	.LCFI285:
 7646              		.cfi_def_cfa_register 13
 7647              		@ sp needed
 7648 0080 5DF8047B 		ldr	r7, [sp], #4
 7649              	.LCFI286:
 7650              		.cfi_restore 7
 7651              		.cfi_def_cfa_offset 0
 7652 0084 7047     		bx	lr
 7653              	.L371:
 7654 0086 00BF     		.align	2
 7655              	.L370:
 7656 0088 00000000 		.word	SystemCoreClock
 7657 008c F1197605 		.word	91625969
 7658              		.cfi_endproc
 7659              	.LFE292:
 7661              		.section	.text.SPI_AbortTx_ISR,"ax",%progbits
 7662              		.align	1
 7663              		.syntax unified
 7664              		.thumb
 7665              		.thumb_func
 7667              	SPI_AbortTx_ISR:
 7668              	.LFB293:
3899:Drivers/STM32F4xx_HAL_Driver/Src/stm32f4xx_hal_spi.c **** 
3900:Drivers/STM32F4xx_HAL_Driver/Src/stm32f4xx_hal_spi.c **** /**
3901:Drivers/STM32F4xx_HAL_Driver/Src/stm32f4xx_hal_spi.c ****   * @brief  Handle abort a Tx or Rx/Tx transaction.
3902:Drivers/STM32F4xx_HAL_Driver/Src/stm32f4xx_hal_spi.c ****   * @param  hspi pointer to a SPI_HandleTypeDef structure that contains
3903:Drivers/STM32F4xx_HAL_Driver/Src/stm32f4xx_hal_spi.c ****   *               the configuration information for SPI module.
3904:Drivers/STM32F4xx_HAL_Driver/Src/stm32f4xx_hal_spi.c ****   * @retval None
3905:Drivers/STM32F4xx_HAL_Driver/Src/stm32f4xx_hal_spi.c ****   */
3906:Drivers/STM32F4xx_HAL_Driver/Src/stm32f4xx_hal_spi.c **** static void SPI_AbortTx_ISR(SPI_HandleTypeDef *hspi)
3907:Drivers/STM32F4xx_HAL_Driver/Src/stm32f4xx_hal_spi.c **** {
 7669              		.loc 1 3907 1
 7670              		.cfi_startproc
 7671              		@ args = 0, pretend = 0, frame = 8
 7672              		@ frame_needed = 1, uses_anonymous_args = 0
 7673              		@ link register save eliminated.
 7674 0000 80B4     		push	{r7}
 7675              	.LCFI287:
 7676              		.cfi_def_cfa_offset 4
ARM GAS  C:\Users\16323\AppData\Local\Temp\ccbQ7VoP.s 			page 203


 7677              		.cfi_offset 7, -4
 7678 0002 83B0     		sub	sp, sp, #12
 7679              	.LCFI288:
 7680              		.cfi_def_cfa_offset 16
 7681 0004 00AF     		add	r7, sp, #0
 7682              	.LCFI289:
 7683              		.cfi_def_cfa_register 7
 7684 0006 7860     		str	r0, [r7, #4]
3908:Drivers/STM32F4xx_HAL_Driver/Src/stm32f4xx_hal_spi.c ****   /* Disable TXEIE interrupt */
3909:Drivers/STM32F4xx_HAL_Driver/Src/stm32f4xx_hal_spi.c ****   CLEAR_BIT(hspi->Instance->CR2, (SPI_CR2_TXEIE));
 7685              		.loc 1 3909 3
 7686 0008 7B68     		ldr	r3, [r7, #4]
 7687 000a 1B68     		ldr	r3, [r3]
 7688 000c 5A68     		ldr	r2, [r3, #4]
 7689 000e 7B68     		ldr	r3, [r7, #4]
 7690 0010 1B68     		ldr	r3, [r3]
 7691 0012 22F08002 		bic	r2, r2, #128
 7692 0016 5A60     		str	r2, [r3, #4]
3910:Drivers/STM32F4xx_HAL_Driver/Src/stm32f4xx_hal_spi.c **** 
3911:Drivers/STM32F4xx_HAL_Driver/Src/stm32f4xx_hal_spi.c ****   /* Disable SPI Peripheral */
3912:Drivers/STM32F4xx_HAL_Driver/Src/stm32f4xx_hal_spi.c ****   __HAL_SPI_DISABLE(hspi);
 7693              		.loc 1 3912 3
 7694 0018 7B68     		ldr	r3, [r7, #4]
 7695 001a 1B68     		ldr	r3, [r3]
 7696 001c 1A68     		ldr	r2, [r3]
 7697 001e 7B68     		ldr	r3, [r7, #4]
 7698 0020 1B68     		ldr	r3, [r3]
 7699 0022 22F04002 		bic	r2, r2, #64
 7700 0026 1A60     		str	r2, [r3]
3913:Drivers/STM32F4xx_HAL_Driver/Src/stm32f4xx_hal_spi.c **** 
3914:Drivers/STM32F4xx_HAL_Driver/Src/stm32f4xx_hal_spi.c ****   hspi->State = HAL_SPI_STATE_ABORT;
 7701              		.loc 1 3914 15
 7702 0028 7B68     		ldr	r3, [r7, #4]
 7703 002a 0722     		movs	r2, #7
 7704 002c 83F85120 		strb	r2, [r3, #81]
3915:Drivers/STM32F4xx_HAL_Driver/Src/stm32f4xx_hal_spi.c **** }
 7705              		.loc 1 3915 1
 7706 0030 00BF     		nop
 7707 0032 0C37     		adds	r7, r7, #12
 7708              	.LCFI290:
 7709              		.cfi_def_cfa_offset 4
 7710 0034 BD46     		mov	sp, r7
 7711              	.LCFI291:
 7712              		.cfi_def_cfa_register 13
 7713              		@ sp needed
 7714 0036 5DF8047B 		ldr	r7, [sp], #4
 7715              	.LCFI292:
 7716              		.cfi_restore 7
 7717              		.cfi_def_cfa_offset 0
 7718 003a 7047     		bx	lr
 7719              		.cfi_endproc
 7720              	.LFE293:
 7722              		.text
 7723              	.Letext0:
 7724              		.file 2 "d:\\st\\gnu arm embedded toolchain\\10 2021.10\\arm-none-eabi\\include\\machine\\_default
 7725              		.file 3 "d:\\st\\gnu arm embedded toolchain\\10 2021.10\\arm-none-eabi\\include\\sys\\_stdint.h"
 7726              		.file 4 "Drivers/CMSIS/Device/ST/STM32F4xx/Include/stm32f446xx.h"
ARM GAS  C:\Users\16323\AppData\Local\Temp\ccbQ7VoP.s 			page 204


 7727              		.file 5 "Drivers/CMSIS/Device/ST/STM32F4xx/Include/stm32f4xx.h"
 7728              		.file 6 "Drivers/STM32F4xx_HAL_Driver/Inc/stm32f4xx_hal_def.h"
 7729              		.file 7 "Drivers/STM32F4xx_HAL_Driver/Inc/stm32f4xx_hal_dma.h"
 7730              		.file 8 "Drivers/STM32F4xx_HAL_Driver/Inc/stm32f4xx_hal_spi.h"
 7731              		.file 9 "Drivers/CMSIS/Device/ST/STM32F4xx/Include/system_stm32f4xx.h"
ARM GAS  C:\Users\16323\AppData\Local\Temp\ccbQ7VoP.s 			page 205


DEFINED SYMBOLS
                            *ABS*:00000000 stm32f4xx_hal_spi.c
C:\Users\16323\AppData\Local\Temp\ccbQ7VoP.s:20     .text.HAL_SPI_Init:00000000 $t
C:\Users\16323\AppData\Local\Temp\ccbQ7VoP.s:26     .text.HAL_SPI_Init:00000000 HAL_SPI_Init
C:\Users\16323\AppData\Local\Temp\ccbQ7VoP.s:277    .text.HAL_SPI_MspInit:00000000 HAL_SPI_MspInit
C:\Users\16323\AppData\Local\Temp\ccbQ7VoP.s:195    .text.HAL_SPI_DeInit:00000000 $t
C:\Users\16323\AppData\Local\Temp\ccbQ7VoP.s:201    .text.HAL_SPI_DeInit:00000000 HAL_SPI_DeInit
C:\Users\16323\AppData\Local\Temp\ccbQ7VoP.s:319    .text.HAL_SPI_MspDeInit:00000000 HAL_SPI_MspDeInit
C:\Users\16323\AppData\Local\Temp\ccbQ7VoP.s:271    .text.HAL_SPI_MspInit:00000000 $t
C:\Users\16323\AppData\Local\Temp\ccbQ7VoP.s:313    .text.HAL_SPI_MspDeInit:00000000 $t
C:\Users\16323\AppData\Local\Temp\ccbQ7VoP.s:355    .text.HAL_SPI_Transmit:00000000 $t
C:\Users\16323\AppData\Local\Temp\ccbQ7VoP.s:361    .text.HAL_SPI_Transmit:00000000 HAL_SPI_Transmit
C:\Users\16323\AppData\Local\Temp\ccbQ7VoP.s:6992   .text.SPI_EndRxTxTransaction:00000000 SPI_EndRxTxTransaction
C:\Users\16323\AppData\Local\Temp\ccbQ7VoP.s:817    .text.HAL_SPI_Receive:00000000 $t
C:\Users\16323\AppData\Local\Temp\ccbQ7VoP.s:823    .text.HAL_SPI_Receive:00000000 HAL_SPI_Receive
C:\Users\16323\AppData\Local\Temp\ccbQ7VoP.s:1215   .text.HAL_SPI_TransmitReceive:00000000 HAL_SPI_TransmitReceive
C:\Users\16323\AppData\Local\Temp\ccbQ7VoP.s:6844   .text.SPI_EndRxTransaction:00000000 SPI_EndRxTransaction
C:\Users\16323\AppData\Local\Temp\ccbQ7VoP.s:1209   .text.HAL_SPI_TransmitReceive:00000000 $t
C:\Users\16323\AppData\Local\Temp\ccbQ7VoP.s:1816   .text.HAL_SPI_Transmit_IT:00000000 $t
C:\Users\16323\AppData\Local\Temp\ccbQ7VoP.s:1822   .text.HAL_SPI_Transmit_IT:00000000 HAL_SPI_Transmit_IT
C:\Users\16323\AppData\Local\Temp\ccbQ7VoP.s:2007   .text.HAL_SPI_Transmit_IT:00000100 $d
C:\Users\16323\AppData\Local\Temp\ccbQ7VoP.s:6574   .text.SPI_TxISR_16BIT:00000000 SPI_TxISR_16BIT
C:\Users\16323\AppData\Local\Temp\ccbQ7VoP.s:6498   .text.SPI_TxISR_8BIT:00000000 SPI_TxISR_8BIT
C:\Users\16323\AppData\Local\Temp\ccbQ7VoP.s:2013   .text.HAL_SPI_Receive_IT:00000000 $t
C:\Users\16323\AppData\Local\Temp\ccbQ7VoP.s:2019   .text.HAL_SPI_Receive_IT:00000000 HAL_SPI_Receive_IT
C:\Users\16323\AppData\Local\Temp\ccbQ7VoP.s:2237   .text.HAL_SPI_TransmitReceive_IT:00000000 HAL_SPI_TransmitReceive_IT
C:\Users\16323\AppData\Local\Temp\ccbQ7VoP.s:2225   .text.HAL_SPI_Receive_IT:00000128 $d
C:\Users\16323\AppData\Local\Temp\ccbQ7VoP.s:6423   .text.SPI_RxISR_16BIT:00000000 SPI_RxISR_16BIT
C:\Users\16323\AppData\Local\Temp\ccbQ7VoP.s:6346   .text.SPI_RxISR_8BIT:00000000 SPI_RxISR_8BIT
C:\Users\16323\AppData\Local\Temp\ccbQ7VoP.s:2231   .text.HAL_SPI_TransmitReceive_IT:00000000 $t
C:\Users\16323\AppData\Local\Temp\ccbQ7VoP.s:2435   .text.HAL_SPI_TransmitReceive_IT:0000010c $d
C:\Users\16323\AppData\Local\Temp\ccbQ7VoP.s:6168   .text.SPI_2linesRxISR_16BIT:00000000 SPI_2linesRxISR_16BIT
C:\Users\16323\AppData\Local\Temp\ccbQ7VoP.s:6258   .text.SPI_2linesTxISR_16BIT:00000000 SPI_2linesTxISR_16BIT
C:\Users\16323\AppData\Local\Temp\ccbQ7VoP.s:5985   .text.SPI_2linesRxISR_8BIT:00000000 SPI_2linesRxISR_8BIT
C:\Users\16323\AppData\Local\Temp\ccbQ7VoP.s:6077   .text.SPI_2linesTxISR_8BIT:00000000 SPI_2linesTxISR_8BIT
C:\Users\16323\AppData\Local\Temp\ccbQ7VoP.s:2443   .text.HAL_SPI_Transmit_DMA:00000000 $t
C:\Users\16323\AppData\Local\Temp\ccbQ7VoP.s:2449   .text.HAL_SPI_Transmit_DMA:00000000 HAL_SPI_Transmit_DMA
C:\Users\16323\AppData\Local\Temp\ccbQ7VoP.s:2688   .text.HAL_SPI_Transmit_DMA:00000158 $d
C:\Users\16323\AppData\Local\Temp\ccbQ7VoP.s:5419   .text.SPI_DMAHalfTransmitCplt:00000000 SPI_DMAHalfTransmitCplt
C:\Users\16323\AppData\Local\Temp\ccbQ7VoP.s:5046   .text.SPI_DMATransmitCplt:00000000 SPI_DMATransmitCplt
C:\Users\16323\AppData\Local\Temp\ccbQ7VoP.s:5551   .text.SPI_DMAError:00000000 SPI_DMAError
C:\Users\16323\AppData\Local\Temp\ccbQ7VoP.s:2695   .text.HAL_SPI_Receive_DMA:00000000 $t
C:\Users\16323\AppData\Local\Temp\ccbQ7VoP.s:2701   .text.HAL_SPI_Receive_DMA:00000000 HAL_SPI_Receive_DMA
C:\Users\16323\AppData\Local\Temp\ccbQ7VoP.s:2974   .text.HAL_SPI_TransmitReceive_DMA:00000000 HAL_SPI_TransmitReceive_DMA
C:\Users\16323\AppData\Local\Temp\ccbQ7VoP.s:2961   .text.HAL_SPI_Receive_DMA:0000017c $d
C:\Users\16323\AppData\Local\Temp\ccbQ7VoP.s:5463   .text.SPI_DMAHalfReceiveCplt:00000000 SPI_DMAHalfReceiveCplt
C:\Users\16323\AppData\Local\Temp\ccbQ7VoP.s:5176   .text.SPI_DMAReceiveCplt:00000000 SPI_DMAReceiveCplt
C:\Users\16323\AppData\Local\Temp\ccbQ7VoP.s:2968   .text.HAL_SPI_TransmitReceive_DMA:00000000 $t
C:\Users\16323\AppData\Local\Temp\ccbQ7VoP.s:3315   .text.HAL_SPI_TransmitReceive_DMA:000001e4 $d
C:\Users\16323\AppData\Local\Temp\ccbQ7VoP.s:5507   .text.SPI_DMAHalfTransmitReceiveCplt:00000000 SPI_DMAHalfTransmitReceiveCplt
C:\Users\16323\AppData\Local\Temp\ccbQ7VoP.s:5306   .text.SPI_DMATransmitReceiveCplt:00000000 SPI_DMATransmitReceiveCplt
C:\Users\16323\AppData\Local\Temp\ccbQ7VoP.s:3324   .text.HAL_SPI_Abort:00000000 $t
C:\Users\16323\AppData\Local\Temp\ccbQ7VoP.s:3330   .text.HAL_SPI_Abort:00000000 HAL_SPI_Abort
C:\Users\16323\AppData\Local\Temp\ccbQ7VoP.s:3649   .text.HAL_SPI_Abort:000001c8 $d
C:\Users\16323\AppData\Local\Temp\ccbQ7VoP.s:7667   .text.SPI_AbortTx_ISR:00000000 SPI_AbortTx_ISR
C:\Users\16323\AppData\Local\Temp\ccbQ7VoP.s:7549   .text.SPI_AbortRx_ISR:00000000 SPI_AbortRx_ISR
C:\Users\16323\AppData\Local\Temp\ccbQ7VoP.s:3657   .text.HAL_SPI_Abort_IT:00000000 $t
ARM GAS  C:\Users\16323\AppData\Local\Temp\ccbQ7VoP.s 			page 206


C:\Users\16323\AppData\Local\Temp\ccbQ7VoP.s:3663   .text.HAL_SPI_Abort_IT:00000000 HAL_SPI_Abort_IT
C:\Users\16323\AppData\Local\Temp\ccbQ7VoP.s:4914   .text.HAL_SPI_AbortCpltCallback:00000000 HAL_SPI_AbortCpltCallback
C:\Users\16323\AppData\Local\Temp\ccbQ7VoP.s:4006   .text.HAL_SPI_Abort_IT:000001dc $d
C:\Users\16323\AppData\Local\Temp\ccbQ7VoP.s:5665   .text.SPI_DMATxAbortCallback:00000000 SPI_DMATxAbortCallback
C:\Users\16323\AppData\Local\Temp\ccbQ7VoP.s:5835   .text.SPI_DMARxAbortCallback:00000000 SPI_DMARxAbortCallback
C:\Users\16323\AppData\Local\Temp\ccbQ7VoP.s:4016   .text.HAL_SPI_DMAPause:00000000 $t
C:\Users\16323\AppData\Local\Temp\ccbQ7VoP.s:4022   .text.HAL_SPI_DMAPause:00000000 HAL_SPI_DMAPause
C:\Users\16323\AppData\Local\Temp\ccbQ7VoP.s:4086   .text.HAL_SPI_DMAResume:00000000 $t
C:\Users\16323\AppData\Local\Temp\ccbQ7VoP.s:4092   .text.HAL_SPI_DMAResume:00000000 HAL_SPI_DMAResume
C:\Users\16323\AppData\Local\Temp\ccbQ7VoP.s:4156   .text.HAL_SPI_DMAStop:00000000 $t
C:\Users\16323\AppData\Local\Temp\ccbQ7VoP.s:4162   .text.HAL_SPI_DMAStop:00000000 HAL_SPI_DMAStop
C:\Users\16323\AppData\Local\Temp\ccbQ7VoP.s:4261   .text.HAL_SPI_IRQHandler:00000000 $t
C:\Users\16323\AppData\Local\Temp\ccbQ7VoP.s:4267   .text.HAL_SPI_IRQHandler:00000000 HAL_SPI_IRQHandler
C:\Users\16323\AppData\Local\Temp\ccbQ7VoP.s:4872   .text.HAL_SPI_ErrorCallback:00000000 HAL_SPI_ErrorCallback
C:\Users\16323\AppData\Local\Temp\ccbQ7VoP.s:4609   .text.HAL_SPI_IRQHandler:000001fc $d
C:\Users\16323\AppData\Local\Temp\ccbQ7VoP.s:5613   .text.SPI_DMAAbortOnError:00000000 SPI_DMAAbortOnError
C:\Users\16323\AppData\Local\Temp\ccbQ7VoP.s:4614   .text.HAL_SPI_TxCpltCallback:00000000 $t
C:\Users\16323\AppData\Local\Temp\ccbQ7VoP.s:4620   .text.HAL_SPI_TxCpltCallback:00000000 HAL_SPI_TxCpltCallback
C:\Users\16323\AppData\Local\Temp\ccbQ7VoP.s:4656   .text.HAL_SPI_RxCpltCallback:00000000 $t
C:\Users\16323\AppData\Local\Temp\ccbQ7VoP.s:4662   .text.HAL_SPI_RxCpltCallback:00000000 HAL_SPI_RxCpltCallback
C:\Users\16323\AppData\Local\Temp\ccbQ7VoP.s:4698   .text.HAL_SPI_TxRxCpltCallback:00000000 $t
C:\Users\16323\AppData\Local\Temp\ccbQ7VoP.s:4704   .text.HAL_SPI_TxRxCpltCallback:00000000 HAL_SPI_TxRxCpltCallback
C:\Users\16323\AppData\Local\Temp\ccbQ7VoP.s:4740   .text.HAL_SPI_TxHalfCpltCallback:00000000 $t
C:\Users\16323\AppData\Local\Temp\ccbQ7VoP.s:4746   .text.HAL_SPI_TxHalfCpltCallback:00000000 HAL_SPI_TxHalfCpltCallback
C:\Users\16323\AppData\Local\Temp\ccbQ7VoP.s:4782   .text.HAL_SPI_RxHalfCpltCallback:00000000 $t
C:\Users\16323\AppData\Local\Temp\ccbQ7VoP.s:4788   .text.HAL_SPI_RxHalfCpltCallback:00000000 HAL_SPI_RxHalfCpltCallback
C:\Users\16323\AppData\Local\Temp\ccbQ7VoP.s:4824   .text.HAL_SPI_TxRxHalfCpltCallback:00000000 $t
C:\Users\16323\AppData\Local\Temp\ccbQ7VoP.s:4830   .text.HAL_SPI_TxRxHalfCpltCallback:00000000 HAL_SPI_TxRxHalfCpltCallback
C:\Users\16323\AppData\Local\Temp\ccbQ7VoP.s:4866   .text.HAL_SPI_ErrorCallback:00000000 $t
C:\Users\16323\AppData\Local\Temp\ccbQ7VoP.s:4908   .text.HAL_SPI_AbortCpltCallback:00000000 $t
C:\Users\16323\AppData\Local\Temp\ccbQ7VoP.s:4950   .text.HAL_SPI_GetState:00000000 $t
C:\Users\16323\AppData\Local\Temp\ccbQ7VoP.s:4956   .text.HAL_SPI_GetState:00000000 HAL_SPI_GetState
C:\Users\16323\AppData\Local\Temp\ccbQ7VoP.s:4996   .text.HAL_SPI_GetError:00000000 $t
C:\Users\16323\AppData\Local\Temp\ccbQ7VoP.s:5002   .text.HAL_SPI_GetError:00000000 HAL_SPI_GetError
C:\Users\16323\AppData\Local\Temp\ccbQ7VoP.s:5041   .text.SPI_DMATransmitCplt:00000000 $t
C:\Users\16323\AppData\Local\Temp\ccbQ7VoP.s:5171   .text.SPI_DMAReceiveCplt:00000000 $t
C:\Users\16323\AppData\Local\Temp\ccbQ7VoP.s:5301   .text.SPI_DMATransmitReceiveCplt:00000000 $t
C:\Users\16323\AppData\Local\Temp\ccbQ7VoP.s:5414   .text.SPI_DMAHalfTransmitCplt:00000000 $t
C:\Users\16323\AppData\Local\Temp\ccbQ7VoP.s:5458   .text.SPI_DMAHalfReceiveCplt:00000000 $t
C:\Users\16323\AppData\Local\Temp\ccbQ7VoP.s:5502   .text.SPI_DMAHalfTransmitReceiveCplt:00000000 $t
C:\Users\16323\AppData\Local\Temp\ccbQ7VoP.s:5546   .text.SPI_DMAError:00000000 $t
C:\Users\16323\AppData\Local\Temp\ccbQ7VoP.s:5608   .text.SPI_DMAAbortOnError:00000000 $t
C:\Users\16323\AppData\Local\Temp\ccbQ7VoP.s:5660   .text.SPI_DMATxAbortCallback:00000000 $t
C:\Users\16323\AppData\Local\Temp\ccbQ7VoP.s:5824   .text.SPI_DMATxAbortCallback:000000cc $d
C:\Users\16323\AppData\Local\Temp\ccbQ7VoP.s:5830   .text.SPI_DMARxAbortCallback:00000000 $t
C:\Users\16323\AppData\Local\Temp\ccbQ7VoP.s:5980   .text.SPI_2linesRxISR_8BIT:00000000 $t
C:\Users\16323\AppData\Local\Temp\ccbQ7VoP.s:7122   .text.SPI_CloseRxTx_ISR:00000000 SPI_CloseRxTx_ISR
C:\Users\16323\AppData\Local\Temp\ccbQ7VoP.s:6072   .text.SPI_2linesTxISR_8BIT:00000000 $t
C:\Users\16323\AppData\Local\Temp\ccbQ7VoP.s:6163   .text.SPI_2linesRxISR_16BIT:00000000 $t
C:\Users\16323\AppData\Local\Temp\ccbQ7VoP.s:6253   .text.SPI_2linesTxISR_16BIT:00000000 $t
C:\Users\16323\AppData\Local\Temp\ccbQ7VoP.s:6341   .text.SPI_RxISR_8BIT:00000000 $t
C:\Users\16323\AppData\Local\Temp\ccbQ7VoP.s:7294   .text.SPI_CloseRx_ISR:00000000 SPI_CloseRx_ISR
C:\Users\16323\AppData\Local\Temp\ccbQ7VoP.s:6418   .text.SPI_RxISR_16BIT:00000000 $t
C:\Users\16323\AppData\Local\Temp\ccbQ7VoP.s:6493   .text.SPI_TxISR_8BIT:00000000 $t
C:\Users\16323\AppData\Local\Temp\ccbQ7VoP.s:7398   .text.SPI_CloseTx_ISR:00000000 SPI_CloseTx_ISR
C:\Users\16323\AppData\Local\Temp\ccbQ7VoP.s:6569   .text.SPI_TxISR_16BIT:00000000 $t
C:\Users\16323\AppData\Local\Temp\ccbQ7VoP.s:6642   .text.SPI_WaitFlagStateUntilTimeout:00000000 $t
ARM GAS  C:\Users\16323\AppData\Local\Temp\ccbQ7VoP.s 			page 207


C:\Users\16323\AppData\Local\Temp\ccbQ7VoP.s:6647   .text.SPI_WaitFlagStateUntilTimeout:00000000 SPI_WaitFlagStateUntilTimeout
C:\Users\16323\AppData\Local\Temp\ccbQ7VoP.s:6834   .text.SPI_WaitFlagStateUntilTimeout:0000010c $d
C:\Users\16323\AppData\Local\Temp\ccbQ7VoP.s:6839   .text.SPI_EndRxTransaction:00000000 $t
C:\Users\16323\AppData\Local\Temp\ccbQ7VoP.s:6987   .text.SPI_EndRxTxTransaction:00000000 $t
C:\Users\16323\AppData\Local\Temp\ccbQ7VoP.s:7111   .text.SPI_EndRxTxTransaction:000000a0 $d
C:\Users\16323\AppData\Local\Temp\ccbQ7VoP.s:7117   .text.SPI_CloseRxTx_ISR:00000000 $t
C:\Users\16323\AppData\Local\Temp\ccbQ7VoP.s:7283   .text.SPI_CloseRxTx_ISR:000000e0 $d
C:\Users\16323\AppData\Local\Temp\ccbQ7VoP.s:7289   .text.SPI_CloseRx_ISR:00000000 $t
C:\Users\16323\AppData\Local\Temp\ccbQ7VoP.s:7393   .text.SPI_CloseTx_ISR:00000000 $t
C:\Users\16323\AppData\Local\Temp\ccbQ7VoP.s:7538   .text.SPI_CloseTx_ISR:000000bc $d
C:\Users\16323\AppData\Local\Temp\ccbQ7VoP.s:7544   .text.SPI_AbortRx_ISR:00000000 $t
C:\Users\16323\AppData\Local\Temp\ccbQ7VoP.s:7656   .text.SPI_AbortRx_ISR:00000088 $d
C:\Users\16323\AppData\Local\Temp\ccbQ7VoP.s:7662   .text.SPI_AbortTx_ISR:00000000 $t

UNDEFINED SYMBOLS
HAL_GetTick
HAL_DMA_Start_IT
HAL_DMA_Abort
SystemCoreClock
HAL_DMA_Abort_IT
