ARM GAS  C:\Users\16323\AppData\Local\Temp\ccbQ7VoP.s 			page 1


   1              		.cpu cortex-m4
   2              		.arch armv7e-m
   3              		.fpu fpv4-sp-d16
   4              		.eabi_attribute 27, 1
   5              		.eabi_attribute 28, 1
   6              		.eabi_attribute 20, 1
   7              		.eabi_attribute 21, 1
   8              		.eabi_attribute 23, 3
   9              		.eabi_attribute 24, 1
  10              		.eabi_attribute 25, 1
  11              		.eabi_attribute 26, 1
  12              		.eabi_attribute 30, 6
  13              		.eabi_attribute 34, 1
  14              		.eabi_attribute 18, 4
  15              		.file	"stm32f4xx_hal_spi.c"
  16              		.text
  17              	.Ltext0:
  18              		.cfi_sections	.debug_frame
  19              		.section	.text.HAL_SPI_Init,"ax",%progbits
  20              		.align	1
  21              		.global	HAL_SPI_Init
  22              		.syntax unified
  23              		.thumb
  24              		.thumb_func
  26              	HAL_SPI_Init:
  27              	.LFB239:
  28              		.file 1 "Drivers/STM32F4xx_HAL_Driver/Src/stm32f4xx_hal_spi.c"
   1:Drivers/STM32F4xx_HAL_Driver/Src/stm32f4xx_hal_spi.c **** /**
   2:Drivers/STM32F4xx_HAL_Driver/Src/stm32f4xx_hal_spi.c ****   ******************************************************************************
   3:Drivers/STM32F4xx_HAL_Driver/Src/stm32f4xx_hal_spi.c ****   * @file    stm32f4xx_hal_spi.c
   4:Drivers/STM32F4xx_HAL_Driver/Src/stm32f4xx_hal_spi.c ****   * @author  MCD Application Team
   5:Drivers/STM32F4xx_HAL_Driver/Src/stm32f4xx_hal_spi.c ****   * @brief   SPI HAL module driver.
   6:Drivers/STM32F4xx_HAL_Driver/Src/stm32f4xx_hal_spi.c ****   *          This file provides firmware functions to manage the following
   7:Drivers/STM32F4xx_HAL_Driver/Src/stm32f4xx_hal_spi.c ****   *          functionalities of the Serial Peripheral Interface (SPI) peripheral:
   8:Drivers/STM32F4xx_HAL_Driver/Src/stm32f4xx_hal_spi.c ****   *           + Initialization and de-initialization functions
   9:Drivers/STM32F4xx_HAL_Driver/Src/stm32f4xx_hal_spi.c ****   *           + IO operation functions
  10:Drivers/STM32F4xx_HAL_Driver/Src/stm32f4xx_hal_spi.c ****   *           + Peripheral Control functions
  11:Drivers/STM32F4xx_HAL_Driver/Src/stm32f4xx_hal_spi.c ****   *           + Peripheral State functions
  12:Drivers/STM32F4xx_HAL_Driver/Src/stm32f4xx_hal_spi.c ****   ******************************************************************************
  13:Drivers/STM32F4xx_HAL_Driver/Src/stm32f4xx_hal_spi.c ****   * @attention
  14:Drivers/STM32F4xx_HAL_Driver/Src/stm32f4xx_hal_spi.c ****   *
  15:Drivers/STM32F4xx_HAL_Driver/Src/stm32f4xx_hal_spi.c ****   * Copyright (c) 2016 STMicroelectronics.
  16:Drivers/STM32F4xx_HAL_Driver/Src/stm32f4xx_hal_spi.c ****   * All rights reserved.
  17:Drivers/STM32F4xx_HAL_Driver/Src/stm32f4xx_hal_spi.c ****   *
  18:Drivers/STM32F4xx_HAL_Driver/Src/stm32f4xx_hal_spi.c ****   * This software is licensed under terms that can be found in the LICENSE file
  19:Drivers/STM32F4xx_HAL_Driver/Src/stm32f4xx_hal_spi.c ****   * in the root directory of this software component.
  20:Drivers/STM32F4xx_HAL_Driver/Src/stm32f4xx_hal_spi.c ****   * If no LICENSE file comes with this software, it is provided AS-IS.
  21:Drivers/STM32F4xx_HAL_Driver/Src/stm32f4xx_hal_spi.c ****   *
  22:Drivers/STM32F4xx_HAL_Driver/Src/stm32f4xx_hal_spi.c ****   ******************************************************************************
  23:Drivers/STM32F4xx_HAL_Driver/Src/stm32f4xx_hal_spi.c ****   @verbatim
  24:Drivers/STM32F4xx_HAL_Driver/Src/stm32f4xx_hal_spi.c ****   ==============================================================================
  25:Drivers/STM32F4xx_HAL_Driver/Src/stm32f4xx_hal_spi.c ****                         ##### How to use this driver #####
  26:Drivers/STM32F4xx_HAL_Driver/Src/stm32f4xx_hal_spi.c ****   ==============================================================================
  27:Drivers/STM32F4xx_HAL_Driver/Src/stm32f4xx_hal_spi.c ****     [..]
  28:Drivers/STM32F4xx_HAL_Driver/Src/stm32f4xx_hal_spi.c ****       The SPI HAL driver can be used as follows:
  29:Drivers/STM32F4xx_HAL_Driver/Src/stm32f4xx_hal_spi.c **** 
  30:Drivers/STM32F4xx_HAL_Driver/Src/stm32f4xx_hal_spi.c ****       (#) Declare a SPI_HandleTypeDef handle structure, for example:
ARM GAS  C:\Users\16323\AppData\Local\Temp\ccbQ7VoP.s 			page 2


  31:Drivers/STM32F4xx_HAL_Driver/Src/stm32f4xx_hal_spi.c ****           SPI_HandleTypeDef  hspi;
  32:Drivers/STM32F4xx_HAL_Driver/Src/stm32f4xx_hal_spi.c **** 
  33:Drivers/STM32F4xx_HAL_Driver/Src/stm32f4xx_hal_spi.c ****       (#)Initialize the SPI low level resources by implementing the HAL_SPI_MspInit() API:
  34:Drivers/STM32F4xx_HAL_Driver/Src/stm32f4xx_hal_spi.c ****           (##) Enable the SPIx interface clock
  35:Drivers/STM32F4xx_HAL_Driver/Src/stm32f4xx_hal_spi.c ****           (##) SPI pins configuration
  36:Drivers/STM32F4xx_HAL_Driver/Src/stm32f4xx_hal_spi.c ****               (+++) Enable the clock for the SPI GPIOs
  37:Drivers/STM32F4xx_HAL_Driver/Src/stm32f4xx_hal_spi.c ****               (+++) Configure these SPI pins as alternate function push-pull
  38:Drivers/STM32F4xx_HAL_Driver/Src/stm32f4xx_hal_spi.c ****           (##) NVIC configuration if you need to use interrupt process
  39:Drivers/STM32F4xx_HAL_Driver/Src/stm32f4xx_hal_spi.c ****               (+++) Configure the SPIx interrupt priority
  40:Drivers/STM32F4xx_HAL_Driver/Src/stm32f4xx_hal_spi.c ****               (+++) Enable the NVIC SPI IRQ handle
  41:Drivers/STM32F4xx_HAL_Driver/Src/stm32f4xx_hal_spi.c ****           (##) DMA Configuration if you need to use DMA process
  42:Drivers/STM32F4xx_HAL_Driver/Src/stm32f4xx_hal_spi.c ****               (+++) Declare a DMA_HandleTypeDef handle structure for the transmit or receive Stream
  43:Drivers/STM32F4xx_HAL_Driver/Src/stm32f4xx_hal_spi.c ****               (+++) Enable the DMAx clock
  44:Drivers/STM32F4xx_HAL_Driver/Src/stm32f4xx_hal_spi.c ****               (+++) Configure the DMA handle parameters
  45:Drivers/STM32F4xx_HAL_Driver/Src/stm32f4xx_hal_spi.c ****               (+++) Configure the DMA Tx or Rx Stream/Channel
  46:Drivers/STM32F4xx_HAL_Driver/Src/stm32f4xx_hal_spi.c ****               (+++) Associate the initialized hdma_tx(or _rx)  handle to the hspi DMA Tx or Rx hand
  47:Drivers/STM32F4xx_HAL_Driver/Src/stm32f4xx_hal_spi.c ****               (+++) Configure the priority and enable the NVIC for the transfer complete interrupt 
  48:Drivers/STM32F4xx_HAL_Driver/Src/stm32f4xx_hal_spi.c **** 
  49:Drivers/STM32F4xx_HAL_Driver/Src/stm32f4xx_hal_spi.c ****       (#) Program the Mode, BidirectionalMode , Data size, Baudrate Prescaler, NSS
  50:Drivers/STM32F4xx_HAL_Driver/Src/stm32f4xx_hal_spi.c ****           management, Clock polarity and phase, FirstBit and CRC configuration in the hspi Init str
  51:Drivers/STM32F4xx_HAL_Driver/Src/stm32f4xx_hal_spi.c **** 
  52:Drivers/STM32F4xx_HAL_Driver/Src/stm32f4xx_hal_spi.c ****       (#) Initialize the SPI registers by calling the HAL_SPI_Init() API:
  53:Drivers/STM32F4xx_HAL_Driver/Src/stm32f4xx_hal_spi.c ****           (++) This API configures also the low level Hardware GPIO, CLOCK, CORTEX...etc)
  54:Drivers/STM32F4xx_HAL_Driver/Src/stm32f4xx_hal_spi.c ****               by calling the customized HAL_SPI_MspInit() API.
  55:Drivers/STM32F4xx_HAL_Driver/Src/stm32f4xx_hal_spi.c ****      [..]
  56:Drivers/STM32F4xx_HAL_Driver/Src/stm32f4xx_hal_spi.c ****        Circular mode restriction:
  57:Drivers/STM32F4xx_HAL_Driver/Src/stm32f4xx_hal_spi.c ****       (#) The DMA circular mode cannot be used when the SPI is configured in these modes:
  58:Drivers/STM32F4xx_HAL_Driver/Src/stm32f4xx_hal_spi.c ****           (##) Master 2Lines RxOnly
  59:Drivers/STM32F4xx_HAL_Driver/Src/stm32f4xx_hal_spi.c ****           (##) Master 1Line Rx
  60:Drivers/STM32F4xx_HAL_Driver/Src/stm32f4xx_hal_spi.c ****       (#) The CRC feature is not managed when the DMA circular mode is enabled
  61:Drivers/STM32F4xx_HAL_Driver/Src/stm32f4xx_hal_spi.c ****       (#) When the SPI DMA Pause/Stop features are used, we must use the following APIs
  62:Drivers/STM32F4xx_HAL_Driver/Src/stm32f4xx_hal_spi.c ****           the HAL_SPI_DMAPause()/ HAL_SPI_DMAStop() only under the SPI callbacks
  63:Drivers/STM32F4xx_HAL_Driver/Src/stm32f4xx_hal_spi.c ****      [..]
  64:Drivers/STM32F4xx_HAL_Driver/Src/stm32f4xx_hal_spi.c ****        Master Receive mode restriction:
  65:Drivers/STM32F4xx_HAL_Driver/Src/stm32f4xx_hal_spi.c ****       (#) In Master unidirectional receive-only mode (MSTR =1, BIDIMODE=0, RXONLY=1) or
  66:Drivers/STM32F4xx_HAL_Driver/Src/stm32f4xx_hal_spi.c ****           bidirectional receive mode (MSTR=1, BIDIMODE=1, BIDIOE=0), to ensure that the SPI
  67:Drivers/STM32F4xx_HAL_Driver/Src/stm32f4xx_hal_spi.c ****           does not initiate a new transfer the following procedure has to be respected:
  68:Drivers/STM32F4xx_HAL_Driver/Src/stm32f4xx_hal_spi.c ****           (##) HAL_SPI_DeInit()
  69:Drivers/STM32F4xx_HAL_Driver/Src/stm32f4xx_hal_spi.c ****           (##) HAL_SPI_Init()
  70:Drivers/STM32F4xx_HAL_Driver/Src/stm32f4xx_hal_spi.c ****      [..]
  71:Drivers/STM32F4xx_HAL_Driver/Src/stm32f4xx_hal_spi.c ****        Callback registration:
  72:Drivers/STM32F4xx_HAL_Driver/Src/stm32f4xx_hal_spi.c **** 
  73:Drivers/STM32F4xx_HAL_Driver/Src/stm32f4xx_hal_spi.c ****       (#) The compilation flag USE_HAL_SPI_REGISTER_CALLBACKS when set to 1U
  74:Drivers/STM32F4xx_HAL_Driver/Src/stm32f4xx_hal_spi.c ****           allows the user to configure dynamically the driver callbacks.
  75:Drivers/STM32F4xx_HAL_Driver/Src/stm32f4xx_hal_spi.c ****           Use Functions HAL_SPI_RegisterCallback() to register an interrupt callback.
  76:Drivers/STM32F4xx_HAL_Driver/Src/stm32f4xx_hal_spi.c **** 
  77:Drivers/STM32F4xx_HAL_Driver/Src/stm32f4xx_hal_spi.c ****           Function HAL_SPI_RegisterCallback() allows to register following callbacks:
  78:Drivers/STM32F4xx_HAL_Driver/Src/stm32f4xx_hal_spi.c ****             (++) TxCpltCallback        : SPI Tx Completed callback
  79:Drivers/STM32F4xx_HAL_Driver/Src/stm32f4xx_hal_spi.c ****             (++) RxCpltCallback        : SPI Rx Completed callback
  80:Drivers/STM32F4xx_HAL_Driver/Src/stm32f4xx_hal_spi.c ****             (++) TxRxCpltCallback      : SPI TxRx Completed callback
  81:Drivers/STM32F4xx_HAL_Driver/Src/stm32f4xx_hal_spi.c ****             (++) TxHalfCpltCallback    : SPI Tx Half Completed callback
  82:Drivers/STM32F4xx_HAL_Driver/Src/stm32f4xx_hal_spi.c ****             (++) RxHalfCpltCallback    : SPI Rx Half Completed callback
  83:Drivers/STM32F4xx_HAL_Driver/Src/stm32f4xx_hal_spi.c ****             (++) TxRxHalfCpltCallback  : SPI TxRx Half Completed callback
  84:Drivers/STM32F4xx_HAL_Driver/Src/stm32f4xx_hal_spi.c ****             (++) ErrorCallback         : SPI Error callback
  85:Drivers/STM32F4xx_HAL_Driver/Src/stm32f4xx_hal_spi.c ****             (++) AbortCpltCallback     : SPI Abort callback
  86:Drivers/STM32F4xx_HAL_Driver/Src/stm32f4xx_hal_spi.c ****             (++) MspInitCallback       : SPI Msp Init callback
  87:Drivers/STM32F4xx_HAL_Driver/Src/stm32f4xx_hal_spi.c ****             (++) MspDeInitCallback     : SPI Msp DeInit callback
ARM GAS  C:\Users\16323\AppData\Local\Temp\ccbQ7VoP.s 			page 3


  88:Drivers/STM32F4xx_HAL_Driver/Src/stm32f4xx_hal_spi.c ****           This function takes as parameters the HAL peripheral handle, the Callback ID
  89:Drivers/STM32F4xx_HAL_Driver/Src/stm32f4xx_hal_spi.c ****           and a pointer to the user callback function.
  90:Drivers/STM32F4xx_HAL_Driver/Src/stm32f4xx_hal_spi.c **** 
  91:Drivers/STM32F4xx_HAL_Driver/Src/stm32f4xx_hal_spi.c **** 
  92:Drivers/STM32F4xx_HAL_Driver/Src/stm32f4xx_hal_spi.c ****       (#) Use function HAL_SPI_UnRegisterCallback to reset a callback to the default
  93:Drivers/STM32F4xx_HAL_Driver/Src/stm32f4xx_hal_spi.c ****           weak function.
  94:Drivers/STM32F4xx_HAL_Driver/Src/stm32f4xx_hal_spi.c ****           HAL_SPI_UnRegisterCallback takes as parameters the HAL peripheral handle,
  95:Drivers/STM32F4xx_HAL_Driver/Src/stm32f4xx_hal_spi.c ****           and the Callback ID.
  96:Drivers/STM32F4xx_HAL_Driver/Src/stm32f4xx_hal_spi.c ****           This function allows to reset following callbacks:
  97:Drivers/STM32F4xx_HAL_Driver/Src/stm32f4xx_hal_spi.c ****             (++) TxCpltCallback        : SPI Tx Completed callback
  98:Drivers/STM32F4xx_HAL_Driver/Src/stm32f4xx_hal_spi.c ****             (++) RxCpltCallback        : SPI Rx Completed callback
  99:Drivers/STM32F4xx_HAL_Driver/Src/stm32f4xx_hal_spi.c ****             (++) TxRxCpltCallback      : SPI TxRx Completed callback
 100:Drivers/STM32F4xx_HAL_Driver/Src/stm32f4xx_hal_spi.c ****             (++) TxHalfCpltCallback    : SPI Tx Half Completed callback
 101:Drivers/STM32F4xx_HAL_Driver/Src/stm32f4xx_hal_spi.c ****             (++) RxHalfCpltCallback    : SPI Rx Half Completed callback
 102:Drivers/STM32F4xx_HAL_Driver/Src/stm32f4xx_hal_spi.c ****             (++) TxRxHalfCpltCallback  : SPI TxRx Half Completed callback
 103:Drivers/STM32F4xx_HAL_Driver/Src/stm32f4xx_hal_spi.c ****             (++) ErrorCallback         : SPI Error callback
 104:Drivers/STM32F4xx_HAL_Driver/Src/stm32f4xx_hal_spi.c ****             (++) AbortCpltCallback     : SPI Abort callback
 105:Drivers/STM32F4xx_HAL_Driver/Src/stm32f4xx_hal_spi.c ****             (++) MspInitCallback       : SPI Msp Init callback
 106:Drivers/STM32F4xx_HAL_Driver/Src/stm32f4xx_hal_spi.c ****             (++) MspDeInitCallback     : SPI Msp DeInit callback
 107:Drivers/STM32F4xx_HAL_Driver/Src/stm32f4xx_hal_spi.c **** 
 108:Drivers/STM32F4xx_HAL_Driver/Src/stm32f4xx_hal_spi.c ****        [..]
 109:Drivers/STM32F4xx_HAL_Driver/Src/stm32f4xx_hal_spi.c ****        By default, after the HAL_SPI_Init() and when the state is HAL_SPI_STATE_RESET
 110:Drivers/STM32F4xx_HAL_Driver/Src/stm32f4xx_hal_spi.c ****        all callbacks are set to the corresponding weak functions:
 111:Drivers/STM32F4xx_HAL_Driver/Src/stm32f4xx_hal_spi.c ****        examples HAL_SPI_MasterTxCpltCallback(), HAL_SPI_MasterRxCpltCallback().
 112:Drivers/STM32F4xx_HAL_Driver/Src/stm32f4xx_hal_spi.c ****        Exception done for MspInit and MspDeInit functions that are
 113:Drivers/STM32F4xx_HAL_Driver/Src/stm32f4xx_hal_spi.c ****        reset to the legacy weak functions in the HAL_SPI_Init()/ HAL_SPI_DeInit() only when
 114:Drivers/STM32F4xx_HAL_Driver/Src/stm32f4xx_hal_spi.c ****        these callbacks are null (not registered beforehand).
 115:Drivers/STM32F4xx_HAL_Driver/Src/stm32f4xx_hal_spi.c ****        If MspInit or MspDeInit are not null, the HAL_SPI_Init()/ HAL_SPI_DeInit()
 116:Drivers/STM32F4xx_HAL_Driver/Src/stm32f4xx_hal_spi.c ****        keep and use the user MspInit/MspDeInit callbacks (registered beforehand) whatever the state
 117:Drivers/STM32F4xx_HAL_Driver/Src/stm32f4xx_hal_spi.c **** 
 118:Drivers/STM32F4xx_HAL_Driver/Src/stm32f4xx_hal_spi.c ****        [..]
 119:Drivers/STM32F4xx_HAL_Driver/Src/stm32f4xx_hal_spi.c ****        Callbacks can be registered/unregistered in HAL_SPI_STATE_READY state only.
 120:Drivers/STM32F4xx_HAL_Driver/Src/stm32f4xx_hal_spi.c ****        Exception done MspInit/MspDeInit functions that can be registered/unregistered
 121:Drivers/STM32F4xx_HAL_Driver/Src/stm32f4xx_hal_spi.c ****        in HAL_SPI_STATE_READY or HAL_SPI_STATE_RESET state,
 122:Drivers/STM32F4xx_HAL_Driver/Src/stm32f4xx_hal_spi.c ****        thus registered (user) MspInit/DeInit callbacks can be used during the Init/DeInit.
 123:Drivers/STM32F4xx_HAL_Driver/Src/stm32f4xx_hal_spi.c ****        Then, the user first registers the MspInit/MspDeInit user callbacks
 124:Drivers/STM32F4xx_HAL_Driver/Src/stm32f4xx_hal_spi.c ****        using HAL_SPI_RegisterCallback() before calling HAL_SPI_DeInit()
 125:Drivers/STM32F4xx_HAL_Driver/Src/stm32f4xx_hal_spi.c ****        or HAL_SPI_Init() function.
 126:Drivers/STM32F4xx_HAL_Driver/Src/stm32f4xx_hal_spi.c **** 
 127:Drivers/STM32F4xx_HAL_Driver/Src/stm32f4xx_hal_spi.c ****        [..]
 128:Drivers/STM32F4xx_HAL_Driver/Src/stm32f4xx_hal_spi.c ****        When the compilation define USE_HAL_PPP_REGISTER_CALLBACKS is set to 0 or
 129:Drivers/STM32F4xx_HAL_Driver/Src/stm32f4xx_hal_spi.c ****        not defined, the callback registering feature is not available
 130:Drivers/STM32F4xx_HAL_Driver/Src/stm32f4xx_hal_spi.c ****        and weak (surcharged) callbacks are used.
 131:Drivers/STM32F4xx_HAL_Driver/Src/stm32f4xx_hal_spi.c **** 
 132:Drivers/STM32F4xx_HAL_Driver/Src/stm32f4xx_hal_spi.c ****      [..]
 133:Drivers/STM32F4xx_HAL_Driver/Src/stm32f4xx_hal_spi.c ****        Using the HAL it is not possible to reach all supported SPI frequency with the different SPI
 134:Drivers/STM32F4xx_HAL_Driver/Src/stm32f4xx_hal_spi.c ****        the following table resume the max SPI frequency reached with data size 8bits/16bits,
 135:Drivers/STM32F4xx_HAL_Driver/Src/stm32f4xx_hal_spi.c ****          according to frequency of the APBx Peripheral Clock (fPCLK) used by the SPI instance.
 136:Drivers/STM32F4xx_HAL_Driver/Src/stm32f4xx_hal_spi.c **** 
 137:Drivers/STM32F4xx_HAL_Driver/Src/stm32f4xx_hal_spi.c ****   @endverbatim
 138:Drivers/STM32F4xx_HAL_Driver/Src/stm32f4xx_hal_spi.c **** 
 139:Drivers/STM32F4xx_HAL_Driver/Src/stm32f4xx_hal_spi.c ****   Additional table :
 140:Drivers/STM32F4xx_HAL_Driver/Src/stm32f4xx_hal_spi.c **** 
 141:Drivers/STM32F4xx_HAL_Driver/Src/stm32f4xx_hal_spi.c ****        DataSize = SPI_DATASIZE_8BIT:
 142:Drivers/STM32F4xx_HAL_Driver/Src/stm32f4xx_hal_spi.c ****        +-------------------------------------------------------------------------------------------
 143:Drivers/STM32F4xx_HAL_Driver/Src/stm32f4xx_hal_spi.c ****        |         |                | 2Lines Fullduplex   |     2Lines RxOnly    |         1Line     
 144:Drivers/STM32F4xx_HAL_Driver/Src/stm32f4xx_hal_spi.c ****        | Process | Transfer mode  |---------------------|----------------------|-------------------
ARM GAS  C:\Users\16323\AppData\Local\Temp\ccbQ7VoP.s 			page 4


 145:Drivers/STM32F4xx_HAL_Driver/Src/stm32f4xx_hal_spi.c ****        |         |                |  Master  |  Slave   |  Master   |  Slave   |  Master   |  Slave
 146:Drivers/STM32F4xx_HAL_Driver/Src/stm32f4xx_hal_spi.c ****        |===========================================================================================
 147:Drivers/STM32F4xx_HAL_Driver/Src/stm32f4xx_hal_spi.c ****        |    T    |     Polling    | Fpclk/2  | Fpclk/2  |    NA     |    NA    |    NA     |   NA  
 148:Drivers/STM32F4xx_HAL_Driver/Src/stm32f4xx_hal_spi.c ****        |    X    |----------------|----------|----------|-----------|----------|-----------|-------
 149:Drivers/STM32F4xx_HAL_Driver/Src/stm32f4xx_hal_spi.c ****        |    /    |     Interrupt  | Fpclk/4  | Fpclk/8  |    NA     |    NA    |    NA     |   NA  
 150:Drivers/STM32F4xx_HAL_Driver/Src/stm32f4xx_hal_spi.c ****        |    R    |----------------|----------|----------|-----------|----------|-----------|-------
 151:Drivers/STM32F4xx_HAL_Driver/Src/stm32f4xx_hal_spi.c ****        |    X    |       DMA      | Fpclk/2  | Fpclk/2  |    NA     |    NA    |    NA     |   NA  
 152:Drivers/STM32F4xx_HAL_Driver/Src/stm32f4xx_hal_spi.c ****        |=========|================|==========|==========|===========|==========|===========|=======
 153:Drivers/STM32F4xx_HAL_Driver/Src/stm32f4xx_hal_spi.c ****        |         |     Polling    | Fpclk/2  | Fpclk/2  | Fpclk/64  | Fpclk/2  | Fpclk/64  | Fpclk/
 154:Drivers/STM32F4xx_HAL_Driver/Src/stm32f4xx_hal_spi.c ****        |         |----------------|----------|----------|-----------|----------|-----------|-------
 155:Drivers/STM32F4xx_HAL_Driver/Src/stm32f4xx_hal_spi.c ****        |    R    |     Interrupt  | Fpclk/8  | Fpclk/8  | Fpclk/64  | Fpclk/2  | Fpclk/64  | Fpclk/
 156:Drivers/STM32F4xx_HAL_Driver/Src/stm32f4xx_hal_spi.c ****        |    X    |----------------|----------|----------|-----------|----------|-----------|-------
 157:Drivers/STM32F4xx_HAL_Driver/Src/stm32f4xx_hal_spi.c ****        |         |       DMA      | Fpclk/2  | Fpclk/2  | Fpclk/64  | Fpclk/2  | Fpclk/128 | Fpclk/
 158:Drivers/STM32F4xx_HAL_Driver/Src/stm32f4xx_hal_spi.c ****        |=========|================|==========|==========|===========|==========|===========|=======
 159:Drivers/STM32F4xx_HAL_Driver/Src/stm32f4xx_hal_spi.c ****        |         |     Polling    | Fpclk/2  | Fpclk/4  |     NA    |    NA    | Fpclk/2   | Fpclk/
 160:Drivers/STM32F4xx_HAL_Driver/Src/stm32f4xx_hal_spi.c ****        |         |----------------|----------|----------|-----------|----------|-----------|-------
 161:Drivers/STM32F4xx_HAL_Driver/Src/stm32f4xx_hal_spi.c ****        |    T    |     Interrupt  | Fpclk/2  | Fpclk/4  |     NA    |    NA    | Fpclk/2   | Fpclk/
 162:Drivers/STM32F4xx_HAL_Driver/Src/stm32f4xx_hal_spi.c ****        |    X    |----------------|----------|----------|-----------|----------|-----------|-------
 163:Drivers/STM32F4xx_HAL_Driver/Src/stm32f4xx_hal_spi.c ****        |         |       DMA      | Fpclk/2  | Fpclk/2  |     NA    |    NA    | Fpclk/2   | Fpclk/
 164:Drivers/STM32F4xx_HAL_Driver/Src/stm32f4xx_hal_spi.c ****        +-------------------------------------------------------------------------------------------
 165:Drivers/STM32F4xx_HAL_Driver/Src/stm32f4xx_hal_spi.c **** 
 166:Drivers/STM32F4xx_HAL_Driver/Src/stm32f4xx_hal_spi.c ****        DataSize = SPI_DATASIZE_16BIT:
 167:Drivers/STM32F4xx_HAL_Driver/Src/stm32f4xx_hal_spi.c ****        +-------------------------------------------------------------------------------------------
 168:Drivers/STM32F4xx_HAL_Driver/Src/stm32f4xx_hal_spi.c ****        |         |                | 2Lines Fullduplex   |     2Lines RxOnly    |         1Line     
 169:Drivers/STM32F4xx_HAL_Driver/Src/stm32f4xx_hal_spi.c ****        | Process | Transfer mode  |---------------------|----------------------|-------------------
 170:Drivers/STM32F4xx_HAL_Driver/Src/stm32f4xx_hal_spi.c ****        |         |                |  Master  |  Slave   |  Master   |  Slave   |  Master   |  Slave
 171:Drivers/STM32F4xx_HAL_Driver/Src/stm32f4xx_hal_spi.c ****        |===========================================================================================
 172:Drivers/STM32F4xx_HAL_Driver/Src/stm32f4xx_hal_spi.c ****        |    T    |     Polling    | Fpclk/2  | Fpclk/2  |    NA     |    NA    |    NA     |   NA  
 173:Drivers/STM32F4xx_HAL_Driver/Src/stm32f4xx_hal_spi.c ****        |    X    |----------------|----------|----------|-----------|----------|-----------|-------
 174:Drivers/STM32F4xx_HAL_Driver/Src/stm32f4xx_hal_spi.c ****        |    /    |     Interrupt  | Fpclk/4  | Fpclk/4  |    NA     |    NA    |    NA     |   NA  
 175:Drivers/STM32F4xx_HAL_Driver/Src/stm32f4xx_hal_spi.c ****        |    R    |----------------|----------|----------|-----------|----------|-----------|-------
 176:Drivers/STM32F4xx_HAL_Driver/Src/stm32f4xx_hal_spi.c ****        |    X    |       DMA      | Fpclk/2  | Fpclk/2  |    NA     |    NA    |    NA     |   NA  
 177:Drivers/STM32F4xx_HAL_Driver/Src/stm32f4xx_hal_spi.c ****        |=========|================|==========|==========|===========|==========|===========|=======
 178:Drivers/STM32F4xx_HAL_Driver/Src/stm32f4xx_hal_spi.c ****        |         |     Polling    | Fpclk/2  | Fpclk/2  | Fpclk/64  | Fpclk/2  | Fpclk/32  | Fpclk/
 179:Drivers/STM32F4xx_HAL_Driver/Src/stm32f4xx_hal_spi.c ****        |         |----------------|----------|----------|-----------|----------|-----------|-------
 180:Drivers/STM32F4xx_HAL_Driver/Src/stm32f4xx_hal_spi.c ****        |    R    |     Interrupt  | Fpclk/4  | Fpclk/4  | Fpclk/64  | Fpclk/2  | Fpclk/64  | Fpclk/
 181:Drivers/STM32F4xx_HAL_Driver/Src/stm32f4xx_hal_spi.c ****        |    X    |----------------|----------|----------|-----------|----------|-----------|-------
 182:Drivers/STM32F4xx_HAL_Driver/Src/stm32f4xx_hal_spi.c ****        |         |       DMA      | Fpclk/2  | Fpclk/2  | Fpclk/64  | Fpclk/2  | Fpclk/128 | Fpclk/
 183:Drivers/STM32F4xx_HAL_Driver/Src/stm32f4xx_hal_spi.c ****        |=========|================|==========|==========|===========|==========|===========|=======
 184:Drivers/STM32F4xx_HAL_Driver/Src/stm32f4xx_hal_spi.c ****        |         |     Polling    | Fpclk/2  | Fpclk/2  |     NA    |    NA    | Fpclk/2   | Fpclk/
 185:Drivers/STM32F4xx_HAL_Driver/Src/stm32f4xx_hal_spi.c ****        |         |----------------|----------|----------|-----------|----------|-----------|-------
 186:Drivers/STM32F4xx_HAL_Driver/Src/stm32f4xx_hal_spi.c ****        |    T    |     Interrupt  | Fpclk/2  | Fpclk/2  |     NA    |    NA    | Fpclk/2   | Fpclk/
 187:Drivers/STM32F4xx_HAL_Driver/Src/stm32f4xx_hal_spi.c ****        |    X    |----------------|----------|----------|-----------|----------|-----------|-------
 188:Drivers/STM32F4xx_HAL_Driver/Src/stm32f4xx_hal_spi.c ****        |         |       DMA      | Fpclk/2  | Fpclk/2  |     NA    |    NA    | Fpclk/2   | Fpclk/
 189:Drivers/STM32F4xx_HAL_Driver/Src/stm32f4xx_hal_spi.c ****        +-------------------------------------------------------------------------------------------
 190:Drivers/STM32F4xx_HAL_Driver/Src/stm32f4xx_hal_spi.c ****        @note The max SPI frequency depend on SPI data size (8bits, 16bits),
 191:Drivers/STM32F4xx_HAL_Driver/Src/stm32f4xx_hal_spi.c ****              SPI mode(2 Lines fullduplex, 2 lines RxOnly, 1 line TX/RX) and Process mode (Polling, 
 192:Drivers/STM32F4xx_HAL_Driver/Src/stm32f4xx_hal_spi.c ****        @note
 193:Drivers/STM32F4xx_HAL_Driver/Src/stm32f4xx_hal_spi.c ****             (#) TX/RX processes are HAL_SPI_TransmitReceive(), HAL_SPI_TransmitReceive_IT() and HAL
 194:Drivers/STM32F4xx_HAL_Driver/Src/stm32f4xx_hal_spi.c ****             (#) RX processes are HAL_SPI_Receive(), HAL_SPI_Receive_IT() and HAL_SPI_Receive_DMA()
 195:Drivers/STM32F4xx_HAL_Driver/Src/stm32f4xx_hal_spi.c ****             (#) TX processes are HAL_SPI_Transmit(), HAL_SPI_Transmit_IT() and HAL_SPI_Transmit_DMA
 196:Drivers/STM32F4xx_HAL_Driver/Src/stm32f4xx_hal_spi.c **** 
 197:Drivers/STM32F4xx_HAL_Driver/Src/stm32f4xx_hal_spi.c ****   */
 198:Drivers/STM32F4xx_HAL_Driver/Src/stm32f4xx_hal_spi.c **** 
 199:Drivers/STM32F4xx_HAL_Driver/Src/stm32f4xx_hal_spi.c **** /* Includes ------------------------------------------------------------------*/
 200:Drivers/STM32F4xx_HAL_Driver/Src/stm32f4xx_hal_spi.c **** #include "stm32f4xx_hal.h"
 201:Drivers/STM32F4xx_HAL_Driver/Src/stm32f4xx_hal_spi.c **** 
ARM GAS  C:\Users\16323\AppData\Local\Temp\ccbQ7VoP.s 			page 5


 202:Drivers/STM32F4xx_HAL_Driver/Src/stm32f4xx_hal_spi.c **** /** @addtogroup STM32F4xx_HAL_Driver
 203:Drivers/STM32F4xx_HAL_Driver/Src/stm32f4xx_hal_spi.c ****   * @{
 204:Drivers/STM32F4xx_HAL_Driver/Src/stm32f4xx_hal_spi.c ****   */
 205:Drivers/STM32F4xx_HAL_Driver/Src/stm32f4xx_hal_spi.c **** 
 206:Drivers/STM32F4xx_HAL_Driver/Src/stm32f4xx_hal_spi.c **** /** @defgroup SPI SPI
 207:Drivers/STM32F4xx_HAL_Driver/Src/stm32f4xx_hal_spi.c ****   * @brief SPI HAL module driver
 208:Drivers/STM32F4xx_HAL_Driver/Src/stm32f4xx_hal_spi.c ****   * @{
 209:Drivers/STM32F4xx_HAL_Driver/Src/stm32f4xx_hal_spi.c ****   */
 210:Drivers/STM32F4xx_HAL_Driver/Src/stm32f4xx_hal_spi.c **** #ifdef HAL_SPI_MODULE_ENABLED
 211:Drivers/STM32F4xx_HAL_Driver/Src/stm32f4xx_hal_spi.c **** 
 212:Drivers/STM32F4xx_HAL_Driver/Src/stm32f4xx_hal_spi.c **** /* Private typedef -----------------------------------------------------------*/
 213:Drivers/STM32F4xx_HAL_Driver/Src/stm32f4xx_hal_spi.c **** /* Private defines -----------------------------------------------------------*/
 214:Drivers/STM32F4xx_HAL_Driver/Src/stm32f4xx_hal_spi.c **** /** @defgroup SPI_Private_Constants SPI Private Constants
 215:Drivers/STM32F4xx_HAL_Driver/Src/stm32f4xx_hal_spi.c ****   * @{
 216:Drivers/STM32F4xx_HAL_Driver/Src/stm32f4xx_hal_spi.c ****   */
 217:Drivers/STM32F4xx_HAL_Driver/Src/stm32f4xx_hal_spi.c **** #define SPI_DEFAULT_TIMEOUT 100U
 218:Drivers/STM32F4xx_HAL_Driver/Src/stm32f4xx_hal_spi.c **** #define SPI_BSY_FLAG_WORKAROUND_TIMEOUT 1000U /*!< Timeout 1000 µs             */
 219:Drivers/STM32F4xx_HAL_Driver/Src/stm32f4xx_hal_spi.c **** /**
 220:Drivers/STM32F4xx_HAL_Driver/Src/stm32f4xx_hal_spi.c ****   * @}
 221:Drivers/STM32F4xx_HAL_Driver/Src/stm32f4xx_hal_spi.c ****   */
 222:Drivers/STM32F4xx_HAL_Driver/Src/stm32f4xx_hal_spi.c **** 
 223:Drivers/STM32F4xx_HAL_Driver/Src/stm32f4xx_hal_spi.c **** /* Private macros ------------------------------------------------------------*/
 224:Drivers/STM32F4xx_HAL_Driver/Src/stm32f4xx_hal_spi.c **** /* Private variables ---------------------------------------------------------*/
 225:Drivers/STM32F4xx_HAL_Driver/Src/stm32f4xx_hal_spi.c **** /* Private function prototypes -----------------------------------------------*/
 226:Drivers/STM32F4xx_HAL_Driver/Src/stm32f4xx_hal_spi.c **** /** @defgroup SPI_Private_Functions SPI Private Functions
 227:Drivers/STM32F4xx_HAL_Driver/Src/stm32f4xx_hal_spi.c ****   * @{
 228:Drivers/STM32F4xx_HAL_Driver/Src/stm32f4xx_hal_spi.c ****   */
 229:Drivers/STM32F4xx_HAL_Driver/Src/stm32f4xx_hal_spi.c **** static void SPI_DMATransmitCplt(DMA_HandleTypeDef *hdma);
 230:Drivers/STM32F4xx_HAL_Driver/Src/stm32f4xx_hal_spi.c **** static void SPI_DMAReceiveCplt(DMA_HandleTypeDef *hdma);
 231:Drivers/STM32F4xx_HAL_Driver/Src/stm32f4xx_hal_spi.c **** static void SPI_DMATransmitReceiveCplt(DMA_HandleTypeDef *hdma);
 232:Drivers/STM32F4xx_HAL_Driver/Src/stm32f4xx_hal_spi.c **** static void SPI_DMAHalfTransmitCplt(DMA_HandleTypeDef *hdma);
 233:Drivers/STM32F4xx_HAL_Driver/Src/stm32f4xx_hal_spi.c **** static void SPI_DMAHalfReceiveCplt(DMA_HandleTypeDef *hdma);
 234:Drivers/STM32F4xx_HAL_Driver/Src/stm32f4xx_hal_spi.c **** static void SPI_DMAHalfTransmitReceiveCplt(DMA_HandleTypeDef *hdma);
 235:Drivers/STM32F4xx_HAL_Driver/Src/stm32f4xx_hal_spi.c **** static void SPI_DMAError(DMA_HandleTypeDef *hdma);
 236:Drivers/STM32F4xx_HAL_Driver/Src/stm32f4xx_hal_spi.c **** static void SPI_DMAAbortOnError(DMA_HandleTypeDef *hdma);
 237:Drivers/STM32F4xx_HAL_Driver/Src/stm32f4xx_hal_spi.c **** static void SPI_DMATxAbortCallback(DMA_HandleTypeDef *hdma);
 238:Drivers/STM32F4xx_HAL_Driver/Src/stm32f4xx_hal_spi.c **** static void SPI_DMARxAbortCallback(DMA_HandleTypeDef *hdma);
 239:Drivers/STM32F4xx_HAL_Driver/Src/stm32f4xx_hal_spi.c **** static HAL_StatusTypeDef SPI_WaitFlagStateUntilTimeout(SPI_HandleTypeDef *hspi, uint32_t Flag, Flag
 240:Drivers/STM32F4xx_HAL_Driver/Src/stm32f4xx_hal_spi.c ****                                                        uint32_t Timeout, uint32_t Tickstart);
 241:Drivers/STM32F4xx_HAL_Driver/Src/stm32f4xx_hal_spi.c **** static void SPI_TxISR_8BIT(struct __SPI_HandleTypeDef *hspi);
 242:Drivers/STM32F4xx_HAL_Driver/Src/stm32f4xx_hal_spi.c **** static void SPI_TxISR_16BIT(struct __SPI_HandleTypeDef *hspi);
 243:Drivers/STM32F4xx_HAL_Driver/Src/stm32f4xx_hal_spi.c **** static void SPI_RxISR_8BIT(struct __SPI_HandleTypeDef *hspi);
 244:Drivers/STM32F4xx_HAL_Driver/Src/stm32f4xx_hal_spi.c **** static void SPI_RxISR_16BIT(struct __SPI_HandleTypeDef *hspi);
 245:Drivers/STM32F4xx_HAL_Driver/Src/stm32f4xx_hal_spi.c **** static void SPI_2linesRxISR_8BIT(struct __SPI_HandleTypeDef *hspi);
 246:Drivers/STM32F4xx_HAL_Driver/Src/stm32f4xx_hal_spi.c **** static void SPI_2linesTxISR_8BIT(struct __SPI_HandleTypeDef *hspi);
 247:Drivers/STM32F4xx_HAL_Driver/Src/stm32f4xx_hal_spi.c **** static void SPI_2linesTxISR_16BIT(struct __SPI_HandleTypeDef *hspi);
 248:Drivers/STM32F4xx_HAL_Driver/Src/stm32f4xx_hal_spi.c **** static void SPI_2linesRxISR_16BIT(struct __SPI_HandleTypeDef *hspi);
 249:Drivers/STM32F4xx_HAL_Driver/Src/stm32f4xx_hal_spi.c **** #if (USE_SPI_CRC != 0U)
 250:Drivers/STM32F4xx_HAL_Driver/Src/stm32f4xx_hal_spi.c **** static void SPI_RxISR_8BITCRC(struct __SPI_HandleTypeDef *hspi);
 251:Drivers/STM32F4xx_HAL_Driver/Src/stm32f4xx_hal_spi.c **** static void SPI_RxISR_16BITCRC(struct __SPI_HandleTypeDef *hspi);
 252:Drivers/STM32F4xx_HAL_Driver/Src/stm32f4xx_hal_spi.c **** static void SPI_2linesRxISR_8BITCRC(struct __SPI_HandleTypeDef *hspi);
 253:Drivers/STM32F4xx_HAL_Driver/Src/stm32f4xx_hal_spi.c **** static void SPI_2linesRxISR_16BITCRC(struct __SPI_HandleTypeDef *hspi);
 254:Drivers/STM32F4xx_HAL_Driver/Src/stm32f4xx_hal_spi.c **** #endif /* USE_SPI_CRC */
 255:Drivers/STM32F4xx_HAL_Driver/Src/stm32f4xx_hal_spi.c **** static void SPI_AbortRx_ISR(SPI_HandleTypeDef *hspi);
 256:Drivers/STM32F4xx_HAL_Driver/Src/stm32f4xx_hal_spi.c **** static void SPI_AbortTx_ISR(SPI_HandleTypeDef *hspi);
 257:Drivers/STM32F4xx_HAL_Driver/Src/stm32f4xx_hal_spi.c **** static void SPI_CloseRxTx_ISR(SPI_HandleTypeDef *hspi);
 258:Drivers/STM32F4xx_HAL_Driver/Src/stm32f4xx_hal_spi.c **** static void SPI_CloseRx_ISR(SPI_HandleTypeDef *hspi);
ARM GAS  C:\Users\16323\AppData\Local\Temp\ccbQ7VoP.s 			page 6


 259:Drivers/STM32F4xx_HAL_Driver/Src/stm32f4xx_hal_spi.c **** static void SPI_CloseTx_ISR(SPI_HandleTypeDef *hspi);
 260:Drivers/STM32F4xx_HAL_Driver/Src/stm32f4xx_hal_spi.c **** static HAL_StatusTypeDef SPI_EndRxTransaction(SPI_HandleTypeDef *hspi, uint32_t Timeout, uint32_t T
 261:Drivers/STM32F4xx_HAL_Driver/Src/stm32f4xx_hal_spi.c **** static HAL_StatusTypeDef SPI_EndRxTxTransaction(SPI_HandleTypeDef *hspi, uint32_t Timeout, uint32_t
 262:Drivers/STM32F4xx_HAL_Driver/Src/stm32f4xx_hal_spi.c **** /**
 263:Drivers/STM32F4xx_HAL_Driver/Src/stm32f4xx_hal_spi.c ****   * @}
 264:Drivers/STM32F4xx_HAL_Driver/Src/stm32f4xx_hal_spi.c ****   */
 265:Drivers/STM32F4xx_HAL_Driver/Src/stm32f4xx_hal_spi.c **** 
 266:Drivers/STM32F4xx_HAL_Driver/Src/stm32f4xx_hal_spi.c **** /* Exported functions --------------------------------------------------------*/
 267:Drivers/STM32F4xx_HAL_Driver/Src/stm32f4xx_hal_spi.c **** /** @defgroup SPI_Exported_Functions SPI Exported Functions
 268:Drivers/STM32F4xx_HAL_Driver/Src/stm32f4xx_hal_spi.c ****   * @{
 269:Drivers/STM32F4xx_HAL_Driver/Src/stm32f4xx_hal_spi.c ****   */
 270:Drivers/STM32F4xx_HAL_Driver/Src/stm32f4xx_hal_spi.c **** 
 271:Drivers/STM32F4xx_HAL_Driver/Src/stm32f4xx_hal_spi.c **** /** @defgroup SPI_Exported_Functions_Group1 Initialization and de-initialization functions
 272:Drivers/STM32F4xx_HAL_Driver/Src/stm32f4xx_hal_spi.c ****   *  @brief    Initialization and Configuration functions
 273:Drivers/STM32F4xx_HAL_Driver/Src/stm32f4xx_hal_spi.c ****   *
 274:Drivers/STM32F4xx_HAL_Driver/Src/stm32f4xx_hal_spi.c **** @verbatim
 275:Drivers/STM32F4xx_HAL_Driver/Src/stm32f4xx_hal_spi.c ****  ===============================================================================
 276:Drivers/STM32F4xx_HAL_Driver/Src/stm32f4xx_hal_spi.c ****               ##### Initialization and de-initialization functions #####
 277:Drivers/STM32F4xx_HAL_Driver/Src/stm32f4xx_hal_spi.c ****  ===============================================================================
 278:Drivers/STM32F4xx_HAL_Driver/Src/stm32f4xx_hal_spi.c ****     [..]  This subsection provides a set of functions allowing to initialize and
 279:Drivers/STM32F4xx_HAL_Driver/Src/stm32f4xx_hal_spi.c ****           de-initialize the SPIx peripheral:
 280:Drivers/STM32F4xx_HAL_Driver/Src/stm32f4xx_hal_spi.c **** 
 281:Drivers/STM32F4xx_HAL_Driver/Src/stm32f4xx_hal_spi.c ****       (+) User must implement HAL_SPI_MspInit() function in which he configures
 282:Drivers/STM32F4xx_HAL_Driver/Src/stm32f4xx_hal_spi.c ****           all related peripherals resources (CLOCK, GPIO, DMA, IT and NVIC ).
 283:Drivers/STM32F4xx_HAL_Driver/Src/stm32f4xx_hal_spi.c **** 
 284:Drivers/STM32F4xx_HAL_Driver/Src/stm32f4xx_hal_spi.c ****       (+) Call the function HAL_SPI_Init() to configure the selected device with
 285:Drivers/STM32F4xx_HAL_Driver/Src/stm32f4xx_hal_spi.c ****           the selected configuration:
 286:Drivers/STM32F4xx_HAL_Driver/Src/stm32f4xx_hal_spi.c ****         (++) Mode
 287:Drivers/STM32F4xx_HAL_Driver/Src/stm32f4xx_hal_spi.c ****         (++) Direction
 288:Drivers/STM32F4xx_HAL_Driver/Src/stm32f4xx_hal_spi.c ****         (++) Data Size
 289:Drivers/STM32F4xx_HAL_Driver/Src/stm32f4xx_hal_spi.c ****         (++) Clock Polarity and Phase
 290:Drivers/STM32F4xx_HAL_Driver/Src/stm32f4xx_hal_spi.c ****         (++) NSS Management
 291:Drivers/STM32F4xx_HAL_Driver/Src/stm32f4xx_hal_spi.c ****         (++) BaudRate Prescaler
 292:Drivers/STM32F4xx_HAL_Driver/Src/stm32f4xx_hal_spi.c ****         (++) FirstBit
 293:Drivers/STM32F4xx_HAL_Driver/Src/stm32f4xx_hal_spi.c ****         (++) TIMode
 294:Drivers/STM32F4xx_HAL_Driver/Src/stm32f4xx_hal_spi.c ****         (++) CRC Calculation
 295:Drivers/STM32F4xx_HAL_Driver/Src/stm32f4xx_hal_spi.c ****         (++) CRC Polynomial if CRC enabled
 296:Drivers/STM32F4xx_HAL_Driver/Src/stm32f4xx_hal_spi.c **** 
 297:Drivers/STM32F4xx_HAL_Driver/Src/stm32f4xx_hal_spi.c ****       (+) Call the function HAL_SPI_DeInit() to restore the default configuration
 298:Drivers/STM32F4xx_HAL_Driver/Src/stm32f4xx_hal_spi.c ****           of the selected SPIx peripheral.
 299:Drivers/STM32F4xx_HAL_Driver/Src/stm32f4xx_hal_spi.c **** 
 300:Drivers/STM32F4xx_HAL_Driver/Src/stm32f4xx_hal_spi.c **** @endverbatim
 301:Drivers/STM32F4xx_HAL_Driver/Src/stm32f4xx_hal_spi.c ****   * @{
 302:Drivers/STM32F4xx_HAL_Driver/Src/stm32f4xx_hal_spi.c ****   */
 303:Drivers/STM32F4xx_HAL_Driver/Src/stm32f4xx_hal_spi.c **** 
 304:Drivers/STM32F4xx_HAL_Driver/Src/stm32f4xx_hal_spi.c **** /**
 305:Drivers/STM32F4xx_HAL_Driver/Src/stm32f4xx_hal_spi.c ****   * @brief  Initialize the SPI according to the specified parameters
 306:Drivers/STM32F4xx_HAL_Driver/Src/stm32f4xx_hal_spi.c ****   *         in the SPI_InitTypeDef and initialize the associated handle.
 307:Drivers/STM32F4xx_HAL_Driver/Src/stm32f4xx_hal_spi.c ****   * @param  hspi pointer to a SPI_HandleTypeDef structure that contains
 308:Drivers/STM32F4xx_HAL_Driver/Src/stm32f4xx_hal_spi.c ****   *               the configuration information for SPI module.
 309:Drivers/STM32F4xx_HAL_Driver/Src/stm32f4xx_hal_spi.c ****   * @retval HAL status
 310:Drivers/STM32F4xx_HAL_Driver/Src/stm32f4xx_hal_spi.c ****   */
 311:Drivers/STM32F4xx_HAL_Driver/Src/stm32f4xx_hal_spi.c **** HAL_StatusTypeDef HAL_SPI_Init(SPI_HandleTypeDef *hspi)
 312:Drivers/STM32F4xx_HAL_Driver/Src/stm32f4xx_hal_spi.c **** {
  29              		.loc 1 312 1
  30              		.cfi_startproc
  31              		@ args = 0, pretend = 0, frame = 8
ARM GAS  C:\Users\16323\AppData\Local\Temp\ccbQ7VoP.s 			page 7


  32              		@ frame_needed = 1, uses_anonymous_args = 0
  33 0000 80B5     		push	{r7, lr}
  34              	.LCFI0:
  35              		.cfi_def_cfa_offset 8
  36              		.cfi_offset 7, -8
  37              		.cfi_offset 14, -4
  38 0002 82B0     		sub	sp, sp, #8
  39              	.LCFI1:
  40              		.cfi_def_cfa_offset 16
  41 0004 00AF     		add	r7, sp, #0
  42              	.LCFI2:
  43              		.cfi_def_cfa_register 7
  44 0006 7860     		str	r0, [r7, #4]
 313:Drivers/STM32F4xx_HAL_Driver/Src/stm32f4xx_hal_spi.c ****   /* Check the SPI handle allocation */
 314:Drivers/STM32F4xx_HAL_Driver/Src/stm32f4xx_hal_spi.c ****   if (hspi == NULL)
  45              		.loc 1 314 6
  46 0008 7B68     		ldr	r3, [r7, #4]
  47 000a 002B     		cmp	r3, #0
  48 000c 01D1     		bne	.L2
 315:Drivers/STM32F4xx_HAL_Driver/Src/stm32f4xx_hal_spi.c ****   {
 316:Drivers/STM32F4xx_HAL_Driver/Src/stm32f4xx_hal_spi.c ****     return HAL_ERROR;
  49              		.loc 1 316 12
  50 000e 0123     		movs	r3, #1
  51 0010 7BE0     		b	.L3
  52              	.L2:
 317:Drivers/STM32F4xx_HAL_Driver/Src/stm32f4xx_hal_spi.c ****   }
 318:Drivers/STM32F4xx_HAL_Driver/Src/stm32f4xx_hal_spi.c **** 
 319:Drivers/STM32F4xx_HAL_Driver/Src/stm32f4xx_hal_spi.c ****   /* Check the parameters */
 320:Drivers/STM32F4xx_HAL_Driver/Src/stm32f4xx_hal_spi.c ****   assert_param(IS_SPI_ALL_INSTANCE(hspi->Instance));
 321:Drivers/STM32F4xx_HAL_Driver/Src/stm32f4xx_hal_spi.c ****   assert_param(IS_SPI_MODE(hspi->Init.Mode));
 322:Drivers/STM32F4xx_HAL_Driver/Src/stm32f4xx_hal_spi.c ****   assert_param(IS_SPI_DIRECTION(hspi->Init.Direction));
 323:Drivers/STM32F4xx_HAL_Driver/Src/stm32f4xx_hal_spi.c ****   assert_param(IS_SPI_DATASIZE(hspi->Init.DataSize));
 324:Drivers/STM32F4xx_HAL_Driver/Src/stm32f4xx_hal_spi.c ****   assert_param(IS_SPI_NSS(hspi->Init.NSS));
 325:Drivers/STM32F4xx_HAL_Driver/Src/stm32f4xx_hal_spi.c ****   assert_param(IS_SPI_BAUDRATE_PRESCALER(hspi->Init.BaudRatePrescaler));
 326:Drivers/STM32F4xx_HAL_Driver/Src/stm32f4xx_hal_spi.c ****   assert_param(IS_SPI_FIRST_BIT(hspi->Init.FirstBit));
 327:Drivers/STM32F4xx_HAL_Driver/Src/stm32f4xx_hal_spi.c ****   assert_param(IS_SPI_TIMODE(hspi->Init.TIMode));
 328:Drivers/STM32F4xx_HAL_Driver/Src/stm32f4xx_hal_spi.c ****   if (hspi->Init.TIMode == SPI_TIMODE_DISABLE)
  53              		.loc 1 328 17
  54 0012 7B68     		ldr	r3, [r7, #4]
  55 0014 5B6A     		ldr	r3, [r3, #36]
  56              		.loc 1 328 6
  57 0016 002B     		cmp	r3, #0
  58 0018 08D1     		bne	.L4
 329:Drivers/STM32F4xx_HAL_Driver/Src/stm32f4xx_hal_spi.c ****   {
 330:Drivers/STM32F4xx_HAL_Driver/Src/stm32f4xx_hal_spi.c ****     assert_param(IS_SPI_CPOL(hspi->Init.CLKPolarity));
 331:Drivers/STM32F4xx_HAL_Driver/Src/stm32f4xx_hal_spi.c ****     assert_param(IS_SPI_CPHA(hspi->Init.CLKPhase));
 332:Drivers/STM32F4xx_HAL_Driver/Src/stm32f4xx_hal_spi.c **** 
 333:Drivers/STM32F4xx_HAL_Driver/Src/stm32f4xx_hal_spi.c ****     if (hspi->Init.Mode == SPI_MODE_MASTER)
  59              		.loc 1 333 19
  60 001a 7B68     		ldr	r3, [r7, #4]
  61 001c 5B68     		ldr	r3, [r3, #4]
  62              		.loc 1 333 8
  63 001e B3F5827F 		cmp	r3, #260
  64 0022 09D0     		beq	.L5
 334:Drivers/STM32F4xx_HAL_Driver/Src/stm32f4xx_hal_spi.c ****     {
 335:Drivers/STM32F4xx_HAL_Driver/Src/stm32f4xx_hal_spi.c ****       assert_param(IS_SPI_BAUDRATE_PRESCALER(hspi->Init.BaudRatePrescaler));
 336:Drivers/STM32F4xx_HAL_Driver/Src/stm32f4xx_hal_spi.c ****     }
ARM GAS  C:\Users\16323\AppData\Local\Temp\ccbQ7VoP.s 			page 8


 337:Drivers/STM32F4xx_HAL_Driver/Src/stm32f4xx_hal_spi.c ****     else
 338:Drivers/STM32F4xx_HAL_Driver/Src/stm32f4xx_hal_spi.c ****     {
 339:Drivers/STM32F4xx_HAL_Driver/Src/stm32f4xx_hal_spi.c ****       /* Baudrate prescaler not use in Motoraola Slave mode. force to default value */
 340:Drivers/STM32F4xx_HAL_Driver/Src/stm32f4xx_hal_spi.c ****       hspi->Init.BaudRatePrescaler = SPI_BAUDRATEPRESCALER_2;
  65              		.loc 1 340 36
  66 0024 7B68     		ldr	r3, [r7, #4]
  67 0026 0022     		movs	r2, #0
  68 0028 DA61     		str	r2, [r3, #28]
  69 002a 05E0     		b	.L5
  70              	.L4:
 341:Drivers/STM32F4xx_HAL_Driver/Src/stm32f4xx_hal_spi.c ****     }
 342:Drivers/STM32F4xx_HAL_Driver/Src/stm32f4xx_hal_spi.c ****   }
 343:Drivers/STM32F4xx_HAL_Driver/Src/stm32f4xx_hal_spi.c ****   else
 344:Drivers/STM32F4xx_HAL_Driver/Src/stm32f4xx_hal_spi.c ****   {
 345:Drivers/STM32F4xx_HAL_Driver/Src/stm32f4xx_hal_spi.c ****     assert_param(IS_SPI_BAUDRATE_PRESCALER(hspi->Init.BaudRatePrescaler));
 346:Drivers/STM32F4xx_HAL_Driver/Src/stm32f4xx_hal_spi.c **** 
 347:Drivers/STM32F4xx_HAL_Driver/Src/stm32f4xx_hal_spi.c ****     /* Force polarity and phase to TI protocaol requirements */
 348:Drivers/STM32F4xx_HAL_Driver/Src/stm32f4xx_hal_spi.c ****     hspi->Init.CLKPolarity = SPI_POLARITY_LOW;
  71              		.loc 1 348 28
  72 002c 7B68     		ldr	r3, [r7, #4]
  73 002e 0022     		movs	r2, #0
  74 0030 1A61     		str	r2, [r3, #16]
 349:Drivers/STM32F4xx_HAL_Driver/Src/stm32f4xx_hal_spi.c ****     hspi->Init.CLKPhase    = SPI_PHASE_1EDGE;
  75              		.loc 1 349 28
  76 0032 7B68     		ldr	r3, [r7, #4]
  77 0034 0022     		movs	r2, #0
  78 0036 5A61     		str	r2, [r3, #20]
  79              	.L5:
 350:Drivers/STM32F4xx_HAL_Driver/Src/stm32f4xx_hal_spi.c ****   }
 351:Drivers/STM32F4xx_HAL_Driver/Src/stm32f4xx_hal_spi.c **** #if (USE_SPI_CRC != 0U)
 352:Drivers/STM32F4xx_HAL_Driver/Src/stm32f4xx_hal_spi.c ****   assert_param(IS_SPI_CRC_CALCULATION(hspi->Init.CRCCalculation));
 353:Drivers/STM32F4xx_HAL_Driver/Src/stm32f4xx_hal_spi.c ****   if (hspi->Init.CRCCalculation == SPI_CRCCALCULATION_ENABLE)
 354:Drivers/STM32F4xx_HAL_Driver/Src/stm32f4xx_hal_spi.c ****   {
 355:Drivers/STM32F4xx_HAL_Driver/Src/stm32f4xx_hal_spi.c ****     assert_param(IS_SPI_CRC_POLYNOMIAL(hspi->Init.CRCPolynomial));
 356:Drivers/STM32F4xx_HAL_Driver/Src/stm32f4xx_hal_spi.c ****   }
 357:Drivers/STM32F4xx_HAL_Driver/Src/stm32f4xx_hal_spi.c **** #else
 358:Drivers/STM32F4xx_HAL_Driver/Src/stm32f4xx_hal_spi.c ****   hspi->Init.CRCCalculation = SPI_CRCCALCULATION_DISABLE;
  80              		.loc 1 358 29
  81 0038 7B68     		ldr	r3, [r7, #4]
  82 003a 0022     		movs	r2, #0
  83 003c 9A62     		str	r2, [r3, #40]
 359:Drivers/STM32F4xx_HAL_Driver/Src/stm32f4xx_hal_spi.c **** #endif /* USE_SPI_CRC */
 360:Drivers/STM32F4xx_HAL_Driver/Src/stm32f4xx_hal_spi.c **** 
 361:Drivers/STM32F4xx_HAL_Driver/Src/stm32f4xx_hal_spi.c ****   if (hspi->State == HAL_SPI_STATE_RESET)
  84              		.loc 1 361 11
  85 003e 7B68     		ldr	r3, [r7, #4]
  86 0040 93F85130 		ldrb	r3, [r3, #81]
  87 0044 DBB2     		uxtb	r3, r3
  88              		.loc 1 361 6
  89 0046 002B     		cmp	r3, #0
  90 0048 06D1     		bne	.L6
 362:Drivers/STM32F4xx_HAL_Driver/Src/stm32f4xx_hal_spi.c ****   {
 363:Drivers/STM32F4xx_HAL_Driver/Src/stm32f4xx_hal_spi.c ****     /* Allocate lock resource and initialize it */
 364:Drivers/STM32F4xx_HAL_Driver/Src/stm32f4xx_hal_spi.c ****     hspi->Lock = HAL_UNLOCKED;
  91              		.loc 1 364 16
  92 004a 7B68     		ldr	r3, [r7, #4]
  93 004c 0022     		movs	r2, #0
ARM GAS  C:\Users\16323\AppData\Local\Temp\ccbQ7VoP.s 			page 9


  94 004e 83F85020 		strb	r2, [r3, #80]
 365:Drivers/STM32F4xx_HAL_Driver/Src/stm32f4xx_hal_spi.c **** 
 366:Drivers/STM32F4xx_HAL_Driver/Src/stm32f4xx_hal_spi.c **** #if (USE_HAL_SPI_REGISTER_CALLBACKS == 1U)
 367:Drivers/STM32F4xx_HAL_Driver/Src/stm32f4xx_hal_spi.c ****     /* Init the SPI Callback settings */
 368:Drivers/STM32F4xx_HAL_Driver/Src/stm32f4xx_hal_spi.c ****     hspi->TxCpltCallback       = HAL_SPI_TxCpltCallback;       /* Legacy weak TxCpltCallback       
 369:Drivers/STM32F4xx_HAL_Driver/Src/stm32f4xx_hal_spi.c ****     hspi->RxCpltCallback       = HAL_SPI_RxCpltCallback;       /* Legacy weak RxCpltCallback       
 370:Drivers/STM32F4xx_HAL_Driver/Src/stm32f4xx_hal_spi.c ****     hspi->TxRxCpltCallback     = HAL_SPI_TxRxCpltCallback;     /* Legacy weak TxRxCpltCallback     
 371:Drivers/STM32F4xx_HAL_Driver/Src/stm32f4xx_hal_spi.c ****     hspi->TxHalfCpltCallback   = HAL_SPI_TxHalfCpltCallback;   /* Legacy weak TxHalfCpltCallback   
 372:Drivers/STM32F4xx_HAL_Driver/Src/stm32f4xx_hal_spi.c ****     hspi->RxHalfCpltCallback   = HAL_SPI_RxHalfCpltCallback;   /* Legacy weak RxHalfCpltCallback   
 373:Drivers/STM32F4xx_HAL_Driver/Src/stm32f4xx_hal_spi.c ****     hspi->TxRxHalfCpltCallback = HAL_SPI_TxRxHalfCpltCallback; /* Legacy weak TxRxHalfCpltCallback 
 374:Drivers/STM32F4xx_HAL_Driver/Src/stm32f4xx_hal_spi.c ****     hspi->ErrorCallback        = HAL_SPI_ErrorCallback;        /* Legacy weak ErrorCallback        
 375:Drivers/STM32F4xx_HAL_Driver/Src/stm32f4xx_hal_spi.c ****     hspi->AbortCpltCallback    = HAL_SPI_AbortCpltCallback;    /* Legacy weak AbortCpltCallback    
 376:Drivers/STM32F4xx_HAL_Driver/Src/stm32f4xx_hal_spi.c **** 
 377:Drivers/STM32F4xx_HAL_Driver/Src/stm32f4xx_hal_spi.c ****     if (hspi->MspInitCallback == NULL)
 378:Drivers/STM32F4xx_HAL_Driver/Src/stm32f4xx_hal_spi.c ****     {
 379:Drivers/STM32F4xx_HAL_Driver/Src/stm32f4xx_hal_spi.c ****       hspi->MspInitCallback = HAL_SPI_MspInit; /* Legacy weak MspInit  */
 380:Drivers/STM32F4xx_HAL_Driver/Src/stm32f4xx_hal_spi.c ****     }
 381:Drivers/STM32F4xx_HAL_Driver/Src/stm32f4xx_hal_spi.c **** 
 382:Drivers/STM32F4xx_HAL_Driver/Src/stm32f4xx_hal_spi.c ****     /* Init the low level hardware : GPIO, CLOCK, NVIC... */
 383:Drivers/STM32F4xx_HAL_Driver/Src/stm32f4xx_hal_spi.c ****     hspi->MspInitCallback(hspi);
 384:Drivers/STM32F4xx_HAL_Driver/Src/stm32f4xx_hal_spi.c **** #else
 385:Drivers/STM32F4xx_HAL_Driver/Src/stm32f4xx_hal_spi.c ****     /* Init the low level hardware : GPIO, CLOCK, NVIC... */
 386:Drivers/STM32F4xx_HAL_Driver/Src/stm32f4xx_hal_spi.c ****     HAL_SPI_MspInit(hspi);
  95              		.loc 1 386 5
  96 0052 7868     		ldr	r0, [r7, #4]
  97 0054 FFF7FEFF 		bl	HAL_SPI_MspInit
  98              	.L6:
 387:Drivers/STM32F4xx_HAL_Driver/Src/stm32f4xx_hal_spi.c **** #endif /* USE_HAL_SPI_REGISTER_CALLBACKS */
 388:Drivers/STM32F4xx_HAL_Driver/Src/stm32f4xx_hal_spi.c ****   }
 389:Drivers/STM32F4xx_HAL_Driver/Src/stm32f4xx_hal_spi.c **** 
 390:Drivers/STM32F4xx_HAL_Driver/Src/stm32f4xx_hal_spi.c ****   hspi->State = HAL_SPI_STATE_BUSY;
  99              		.loc 1 390 15
 100 0058 7B68     		ldr	r3, [r7, #4]
 101 005a 0222     		movs	r2, #2
 102 005c 83F85120 		strb	r2, [r3, #81]
 391:Drivers/STM32F4xx_HAL_Driver/Src/stm32f4xx_hal_spi.c **** 
 392:Drivers/STM32F4xx_HAL_Driver/Src/stm32f4xx_hal_spi.c ****   /* Disable the selected SPI peripheral */
 393:Drivers/STM32F4xx_HAL_Driver/Src/stm32f4xx_hal_spi.c ****   __HAL_SPI_DISABLE(hspi);
 103              		.loc 1 393 3
 104 0060 7B68     		ldr	r3, [r7, #4]
 105 0062 1B68     		ldr	r3, [r3]
 106 0064 1A68     		ldr	r2, [r3]
 107 0066 7B68     		ldr	r3, [r7, #4]
 108 0068 1B68     		ldr	r3, [r3]
 109 006a 22F04002 		bic	r2, r2, #64
 110 006e 1A60     		str	r2, [r3]
 394:Drivers/STM32F4xx_HAL_Driver/Src/stm32f4xx_hal_spi.c **** 
 395:Drivers/STM32F4xx_HAL_Driver/Src/stm32f4xx_hal_spi.c ****   /*----------------------- SPIx CR1 & CR2 Configuration ---------------------*/
 396:Drivers/STM32F4xx_HAL_Driver/Src/stm32f4xx_hal_spi.c ****   /* Configure : SPI Mode, Communication Mode, Data size, Clock polarity and phase, NSS management,
 397:Drivers/STM32F4xx_HAL_Driver/Src/stm32f4xx_hal_spi.c ****   Communication speed, First bit and CRC calculation state */
 398:Drivers/STM32F4xx_HAL_Driver/Src/stm32f4xx_hal_spi.c ****   WRITE_REG(hspi->Instance->CR1, ((hspi->Init.Mode & (SPI_CR1_MSTR | SPI_CR1_SSI)) |
 111              		.loc 1 398 3
 112 0070 7B68     		ldr	r3, [r7, #4]
 113 0072 5B68     		ldr	r3, [r3, #4]
 114 0074 03F48272 		and	r2, r3, #260
 115 0078 7B68     		ldr	r3, [r7, #4]
 116 007a 9B68     		ldr	r3, [r3, #8]
ARM GAS  C:\Users\16323\AppData\Local\Temp\ccbQ7VoP.s 			page 10


 117 007c 03F40443 		and	r3, r3, #33792
 118 0080 1A43     		orrs	r2, r2, r3
 119 0082 7B68     		ldr	r3, [r7, #4]
 120 0084 DB68     		ldr	r3, [r3, #12]
 121 0086 03F40063 		and	r3, r3, #2048
 122 008a 1A43     		orrs	r2, r2, r3
 123 008c 7B68     		ldr	r3, [r7, #4]
 124 008e 1B69     		ldr	r3, [r3, #16]
 125 0090 03F00203 		and	r3, r3, #2
 126 0094 1A43     		orrs	r2, r2, r3
 127 0096 7B68     		ldr	r3, [r7, #4]
 128 0098 5B69     		ldr	r3, [r3, #20]
 129 009a 03F00103 		and	r3, r3, #1
 130 009e 1A43     		orrs	r2, r2, r3
 131 00a0 7B68     		ldr	r3, [r7, #4]
 132 00a2 9B69     		ldr	r3, [r3, #24]
 133 00a4 03F40073 		and	r3, r3, #512
 134 00a8 1A43     		orrs	r2, r2, r3
 135 00aa 7B68     		ldr	r3, [r7, #4]
 136 00ac DB69     		ldr	r3, [r3, #28]
 137 00ae 03F03803 		and	r3, r3, #56
 138 00b2 1A43     		orrs	r2, r2, r3
 139 00b4 7B68     		ldr	r3, [r7, #4]
 140 00b6 1B6A     		ldr	r3, [r3, #32]
 141 00b8 03F08003 		and	r3, r3, #128
 142 00bc 42EA0301 		orr	r1, r2, r3
 143 00c0 7B68     		ldr	r3, [r7, #4]
 144 00c2 9B6A     		ldr	r3, [r3, #40]
 145 00c4 03F40052 		and	r2, r3, #8192
 146 00c8 7B68     		ldr	r3, [r7, #4]
 147 00ca 1B68     		ldr	r3, [r3]
 148 00cc 0A43     		orrs	r2, r2, r1
 149 00ce 1A60     		str	r2, [r3]
 399:Drivers/STM32F4xx_HAL_Driver/Src/stm32f4xx_hal_spi.c ****                                   (hspi->Init.Direction & (SPI_CR1_RXONLY | SPI_CR1_BIDIMODE)) |
 400:Drivers/STM32F4xx_HAL_Driver/Src/stm32f4xx_hal_spi.c ****                                   (hspi->Init.DataSize & SPI_CR1_DFF) |
 401:Drivers/STM32F4xx_HAL_Driver/Src/stm32f4xx_hal_spi.c ****                                   (hspi->Init.CLKPolarity & SPI_CR1_CPOL) |
 402:Drivers/STM32F4xx_HAL_Driver/Src/stm32f4xx_hal_spi.c ****                                   (hspi->Init.CLKPhase & SPI_CR1_CPHA) |
 403:Drivers/STM32F4xx_HAL_Driver/Src/stm32f4xx_hal_spi.c ****                                   (hspi->Init.NSS & SPI_CR1_SSM) |
 404:Drivers/STM32F4xx_HAL_Driver/Src/stm32f4xx_hal_spi.c ****                                   (hspi->Init.BaudRatePrescaler & SPI_CR1_BR_Msk) |
 405:Drivers/STM32F4xx_HAL_Driver/Src/stm32f4xx_hal_spi.c ****                                   (hspi->Init.FirstBit  & SPI_CR1_LSBFIRST) |
 406:Drivers/STM32F4xx_HAL_Driver/Src/stm32f4xx_hal_spi.c ****                                   (hspi->Init.CRCCalculation & SPI_CR1_CRCEN)));
 407:Drivers/STM32F4xx_HAL_Driver/Src/stm32f4xx_hal_spi.c **** 
 408:Drivers/STM32F4xx_HAL_Driver/Src/stm32f4xx_hal_spi.c ****   /* Configure : NSS management, TI Mode */
 409:Drivers/STM32F4xx_HAL_Driver/Src/stm32f4xx_hal_spi.c ****   WRITE_REG(hspi->Instance->CR2, (((hspi->Init.NSS >> 16U) & SPI_CR2_SSOE) | (hspi->Init.TIMode & S
 150              		.loc 1 409 3
 151 00d0 7B68     		ldr	r3, [r7, #4]
 152 00d2 9B69     		ldr	r3, [r3, #24]
 153 00d4 1B0C     		lsrs	r3, r3, #16
 154 00d6 03F00401 		and	r1, r3, #4
 155 00da 7B68     		ldr	r3, [r7, #4]
 156 00dc 5B6A     		ldr	r3, [r3, #36]
 157 00de 03F01002 		and	r2, r3, #16
 158 00e2 7B68     		ldr	r3, [r7, #4]
 159 00e4 1B68     		ldr	r3, [r3]
 160 00e6 0A43     		orrs	r2, r2, r1
 161 00e8 5A60     		str	r2, [r3, #4]
 410:Drivers/STM32F4xx_HAL_Driver/Src/stm32f4xx_hal_spi.c **** 
ARM GAS  C:\Users\16323\AppData\Local\Temp\ccbQ7VoP.s 			page 11


 411:Drivers/STM32F4xx_HAL_Driver/Src/stm32f4xx_hal_spi.c **** #if (USE_SPI_CRC != 0U)
 412:Drivers/STM32F4xx_HAL_Driver/Src/stm32f4xx_hal_spi.c ****   /*---------------------------- SPIx CRCPOLY Configuration ------------------*/
 413:Drivers/STM32F4xx_HAL_Driver/Src/stm32f4xx_hal_spi.c ****   /* Configure : CRC Polynomial */
 414:Drivers/STM32F4xx_HAL_Driver/Src/stm32f4xx_hal_spi.c ****   if (hspi->Init.CRCCalculation == SPI_CRCCALCULATION_ENABLE)
 415:Drivers/STM32F4xx_HAL_Driver/Src/stm32f4xx_hal_spi.c ****   {
 416:Drivers/STM32F4xx_HAL_Driver/Src/stm32f4xx_hal_spi.c ****     WRITE_REG(hspi->Instance->CRCPR, (hspi->Init.CRCPolynomial & SPI_CRCPR_CRCPOLY_Msk));
 417:Drivers/STM32F4xx_HAL_Driver/Src/stm32f4xx_hal_spi.c ****   }
 418:Drivers/STM32F4xx_HAL_Driver/Src/stm32f4xx_hal_spi.c **** #endif /* USE_SPI_CRC */
 419:Drivers/STM32F4xx_HAL_Driver/Src/stm32f4xx_hal_spi.c **** 
 420:Drivers/STM32F4xx_HAL_Driver/Src/stm32f4xx_hal_spi.c **** #if defined(SPI_I2SCFGR_I2SMOD)
 421:Drivers/STM32F4xx_HAL_Driver/Src/stm32f4xx_hal_spi.c ****   /* Activate the SPI mode (Make sure that I2SMOD bit in I2SCFGR register is reset) */
 422:Drivers/STM32F4xx_HAL_Driver/Src/stm32f4xx_hal_spi.c ****   CLEAR_BIT(hspi->Instance->I2SCFGR, SPI_I2SCFGR_I2SMOD);
 162              		.loc 1 422 3
 163 00ea 7B68     		ldr	r3, [r7, #4]
 164 00ec 1B68     		ldr	r3, [r3]
 165 00ee DA69     		ldr	r2, [r3, #28]
 166 00f0 7B68     		ldr	r3, [r7, #4]
 167 00f2 1B68     		ldr	r3, [r3]
 168 00f4 22F40062 		bic	r2, r2, #2048
 169 00f8 DA61     		str	r2, [r3, #28]
 423:Drivers/STM32F4xx_HAL_Driver/Src/stm32f4xx_hal_spi.c **** #endif /* SPI_I2SCFGR_I2SMOD */
 424:Drivers/STM32F4xx_HAL_Driver/Src/stm32f4xx_hal_spi.c **** 
 425:Drivers/STM32F4xx_HAL_Driver/Src/stm32f4xx_hal_spi.c ****   hspi->ErrorCode = HAL_SPI_ERROR_NONE;
 170              		.loc 1 425 19
 171 00fa 7B68     		ldr	r3, [r7, #4]
 172 00fc 0022     		movs	r2, #0
 173 00fe 5A65     		str	r2, [r3, #84]
 426:Drivers/STM32F4xx_HAL_Driver/Src/stm32f4xx_hal_spi.c ****   hspi->State     = HAL_SPI_STATE_READY;
 174              		.loc 1 426 19
 175 0100 7B68     		ldr	r3, [r7, #4]
 176 0102 0122     		movs	r2, #1
 177 0104 83F85120 		strb	r2, [r3, #81]
 427:Drivers/STM32F4xx_HAL_Driver/Src/stm32f4xx_hal_spi.c **** 
 428:Drivers/STM32F4xx_HAL_Driver/Src/stm32f4xx_hal_spi.c ****   return HAL_OK;
 178              		.loc 1 428 10
 179 0108 0023     		movs	r3, #0
 180              	.L3:
 429:Drivers/STM32F4xx_HAL_Driver/Src/stm32f4xx_hal_spi.c **** }
 181              		.loc 1 429 1
 182 010a 1846     		mov	r0, r3
 183 010c 0837     		adds	r7, r7, #8
 184              	.LCFI3:
 185              		.cfi_def_cfa_offset 8
 186 010e BD46     		mov	sp, r7
 187              	.LCFI4:
 188              		.cfi_def_cfa_register 13
 189              		@ sp needed
 190 0110 80BD     		pop	{r7, pc}
 191              		.cfi_endproc
 192              	.LFE239:
 194              		.section	.text.HAL_SPI_DeInit,"ax",%progbits
 195              		.align	1
 196              		.global	HAL_SPI_DeInit
 197              		.syntax unified
 198              		.thumb
 199              		.thumb_func
 201              	HAL_SPI_DeInit:
ARM GAS  C:\Users\16323\AppData\Local\Temp\ccbQ7VoP.s 			page 12


 202              	.LFB240:
 430:Drivers/STM32F4xx_HAL_Driver/Src/stm32f4xx_hal_spi.c **** 
 431:Drivers/STM32F4xx_HAL_Driver/Src/stm32f4xx_hal_spi.c **** /**
 432:Drivers/STM32F4xx_HAL_Driver/Src/stm32f4xx_hal_spi.c ****   * @brief  De-Initialize the SPI peripheral.
 433:Drivers/STM32F4xx_HAL_Driver/Src/stm32f4xx_hal_spi.c ****   * @param  hspi pointer to a SPI_HandleTypeDef structure that contains
 434:Drivers/STM32F4xx_HAL_Driver/Src/stm32f4xx_hal_spi.c ****   *               the configuration information for SPI module.
 435:Drivers/STM32F4xx_HAL_Driver/Src/stm32f4xx_hal_spi.c ****   * @retval HAL status
 436:Drivers/STM32F4xx_HAL_Driver/Src/stm32f4xx_hal_spi.c ****   */
 437:Drivers/STM32F4xx_HAL_Driver/Src/stm32f4xx_hal_spi.c **** HAL_StatusTypeDef HAL_SPI_DeInit(SPI_HandleTypeDef *hspi)
 438:Drivers/STM32F4xx_HAL_Driver/Src/stm32f4xx_hal_spi.c **** {
 203              		.loc 1 438 1
 204              		.cfi_startproc
 205              		@ args = 0, pretend = 0, frame = 8
 206              		@ frame_needed = 1, uses_anonymous_args = 0
 207 0000 80B5     		push	{r7, lr}
 208              	.LCFI5:
 209              		.cfi_def_cfa_offset 8
 210              		.cfi_offset 7, -8
 211              		.cfi_offset 14, -4
 212 0002 82B0     		sub	sp, sp, #8
 213              	.LCFI6:
 214              		.cfi_def_cfa_offset 16
 215 0004 00AF     		add	r7, sp, #0
 216              	.LCFI7:
 217              		.cfi_def_cfa_register 7
 218 0006 7860     		str	r0, [r7, #4]
 439:Drivers/STM32F4xx_HAL_Driver/Src/stm32f4xx_hal_spi.c ****   /* Check the SPI handle allocation */
 440:Drivers/STM32F4xx_HAL_Driver/Src/stm32f4xx_hal_spi.c ****   if (hspi == NULL)
 219              		.loc 1 440 6
 220 0008 7B68     		ldr	r3, [r7, #4]
 221 000a 002B     		cmp	r3, #0
 222 000c 01D1     		bne	.L8
 441:Drivers/STM32F4xx_HAL_Driver/Src/stm32f4xx_hal_spi.c ****   {
 442:Drivers/STM32F4xx_HAL_Driver/Src/stm32f4xx_hal_spi.c ****     return HAL_ERROR;
 223              		.loc 1 442 12
 224 000e 0123     		movs	r3, #1
 225 0010 1AE0     		b	.L9
 226              	.L8:
 443:Drivers/STM32F4xx_HAL_Driver/Src/stm32f4xx_hal_spi.c ****   }
 444:Drivers/STM32F4xx_HAL_Driver/Src/stm32f4xx_hal_spi.c **** 
 445:Drivers/STM32F4xx_HAL_Driver/Src/stm32f4xx_hal_spi.c ****   /* Check SPI Instance parameter */
 446:Drivers/STM32F4xx_HAL_Driver/Src/stm32f4xx_hal_spi.c ****   assert_param(IS_SPI_ALL_INSTANCE(hspi->Instance));
 447:Drivers/STM32F4xx_HAL_Driver/Src/stm32f4xx_hal_spi.c **** 
 448:Drivers/STM32F4xx_HAL_Driver/Src/stm32f4xx_hal_spi.c ****   hspi->State = HAL_SPI_STATE_BUSY;
 227              		.loc 1 448 15
 228 0012 7B68     		ldr	r3, [r7, #4]
 229 0014 0222     		movs	r2, #2
 230 0016 83F85120 		strb	r2, [r3, #81]
 449:Drivers/STM32F4xx_HAL_Driver/Src/stm32f4xx_hal_spi.c **** 
 450:Drivers/STM32F4xx_HAL_Driver/Src/stm32f4xx_hal_spi.c ****   /* Disable the SPI Peripheral Clock */
 451:Drivers/STM32F4xx_HAL_Driver/Src/stm32f4xx_hal_spi.c ****   __HAL_SPI_DISABLE(hspi);
 231              		.loc 1 451 3
 232 001a 7B68     		ldr	r3, [r7, #4]
 233 001c 1B68     		ldr	r3, [r3]
 234 001e 1A68     		ldr	r2, [r3]
 235 0020 7B68     		ldr	r3, [r7, #4]
 236 0022 1B68     		ldr	r3, [r3]
ARM GAS  C:\Users\16323\AppData\Local\Temp\ccbQ7VoP.s 			page 13


 237 0024 22F04002 		bic	r2, r2, #64
 238 0028 1A60     		str	r2, [r3]
 452:Drivers/STM32F4xx_HAL_Driver/Src/stm32f4xx_hal_spi.c **** 
 453:Drivers/STM32F4xx_HAL_Driver/Src/stm32f4xx_hal_spi.c **** #if (USE_HAL_SPI_REGISTER_CALLBACKS == 1U)
 454:Drivers/STM32F4xx_HAL_Driver/Src/stm32f4xx_hal_spi.c ****   if (hspi->MspDeInitCallback == NULL)
 455:Drivers/STM32F4xx_HAL_Driver/Src/stm32f4xx_hal_spi.c ****   {
 456:Drivers/STM32F4xx_HAL_Driver/Src/stm32f4xx_hal_spi.c ****     hspi->MspDeInitCallback = HAL_SPI_MspDeInit; /* Legacy weak MspDeInit  */
 457:Drivers/STM32F4xx_HAL_Driver/Src/stm32f4xx_hal_spi.c ****   }
 458:Drivers/STM32F4xx_HAL_Driver/Src/stm32f4xx_hal_spi.c **** 
 459:Drivers/STM32F4xx_HAL_Driver/Src/stm32f4xx_hal_spi.c ****   /* DeInit the low level hardware: GPIO, CLOCK, NVIC... */
 460:Drivers/STM32F4xx_HAL_Driver/Src/stm32f4xx_hal_spi.c ****   hspi->MspDeInitCallback(hspi);
 461:Drivers/STM32F4xx_HAL_Driver/Src/stm32f4xx_hal_spi.c **** #else
 462:Drivers/STM32F4xx_HAL_Driver/Src/stm32f4xx_hal_spi.c ****   /* DeInit the low level hardware: GPIO, CLOCK, NVIC... */
 463:Drivers/STM32F4xx_HAL_Driver/Src/stm32f4xx_hal_spi.c ****   HAL_SPI_MspDeInit(hspi);
 239              		.loc 1 463 3
 240 002a 7868     		ldr	r0, [r7, #4]
 241 002c FFF7FEFF 		bl	HAL_SPI_MspDeInit
 464:Drivers/STM32F4xx_HAL_Driver/Src/stm32f4xx_hal_spi.c **** #endif /* USE_HAL_SPI_REGISTER_CALLBACKS */
 465:Drivers/STM32F4xx_HAL_Driver/Src/stm32f4xx_hal_spi.c **** 
 466:Drivers/STM32F4xx_HAL_Driver/Src/stm32f4xx_hal_spi.c ****   hspi->ErrorCode = HAL_SPI_ERROR_NONE;
 242              		.loc 1 466 19
 243 0030 7B68     		ldr	r3, [r7, #4]
 244 0032 0022     		movs	r2, #0
 245 0034 5A65     		str	r2, [r3, #84]
 467:Drivers/STM32F4xx_HAL_Driver/Src/stm32f4xx_hal_spi.c ****   hspi->State = HAL_SPI_STATE_RESET;
 246              		.loc 1 467 15
 247 0036 7B68     		ldr	r3, [r7, #4]
 248 0038 0022     		movs	r2, #0
 249 003a 83F85120 		strb	r2, [r3, #81]
 468:Drivers/STM32F4xx_HAL_Driver/Src/stm32f4xx_hal_spi.c **** 
 469:Drivers/STM32F4xx_HAL_Driver/Src/stm32f4xx_hal_spi.c ****   /* Release Lock */
 470:Drivers/STM32F4xx_HAL_Driver/Src/stm32f4xx_hal_spi.c ****   __HAL_UNLOCK(hspi);
 250              		.loc 1 470 3
 251 003e 7B68     		ldr	r3, [r7, #4]
 252 0040 0022     		movs	r2, #0
 253 0042 83F85020 		strb	r2, [r3, #80]
 471:Drivers/STM32F4xx_HAL_Driver/Src/stm32f4xx_hal_spi.c **** 
 472:Drivers/STM32F4xx_HAL_Driver/Src/stm32f4xx_hal_spi.c ****   return HAL_OK;
 254              		.loc 1 472 10
 255 0046 0023     		movs	r3, #0
 256              	.L9:
 473:Drivers/STM32F4xx_HAL_Driver/Src/stm32f4xx_hal_spi.c **** }
 257              		.loc 1 473 1
 258 0048 1846     		mov	r0, r3
 259 004a 0837     		adds	r7, r7, #8
 260              	.LCFI8:
 261              		.cfi_def_cfa_offset 8
 262 004c BD46     		mov	sp, r7
 263              	.LCFI9:
 264              		.cfi_def_cfa_register 13
 265              		@ sp needed
 266 004e 80BD     		pop	{r7, pc}
 267              		.cfi_endproc
 268              	.LFE240:
 270              		.section	.text.HAL_SPI_MspInit,"ax",%progbits
 271              		.align	1
 272              		.weak	HAL_SPI_MspInit
ARM GAS  C:\Users\16323\AppData\Local\Temp\ccbQ7VoP.s 			page 14


 273              		.syntax unified
 274              		.thumb
 275              		.thumb_func
 277              	HAL_SPI_MspInit:
 278              	.LFB241:
 474:Drivers/STM32F4xx_HAL_Driver/Src/stm32f4xx_hal_spi.c **** 
 475:Drivers/STM32F4xx_HAL_Driver/Src/stm32f4xx_hal_spi.c **** /**
 476:Drivers/STM32F4xx_HAL_Driver/Src/stm32f4xx_hal_spi.c ****   * @brief  Initialize the SPI MSP.
 477:Drivers/STM32F4xx_HAL_Driver/Src/stm32f4xx_hal_spi.c ****   * @param  hspi pointer to a SPI_HandleTypeDef structure that contains
 478:Drivers/STM32F4xx_HAL_Driver/Src/stm32f4xx_hal_spi.c ****   *               the configuration information for SPI module.
 479:Drivers/STM32F4xx_HAL_Driver/Src/stm32f4xx_hal_spi.c ****   * @retval None
 480:Drivers/STM32F4xx_HAL_Driver/Src/stm32f4xx_hal_spi.c ****   */
 481:Drivers/STM32F4xx_HAL_Driver/Src/stm32f4xx_hal_spi.c **** __weak void HAL_SPI_MspInit(SPI_HandleTypeDef *hspi)
 482:Drivers/STM32F4xx_HAL_Driver/Src/stm32f4xx_hal_spi.c **** {
 279              		.loc 1 482 1
 280              		.cfi_startproc
 281              		@ args = 0, pretend = 0, frame = 8
 282              		@ frame_needed = 1, uses_anonymous_args = 0
 283              		@ link register save eliminated.
 284 0000 80B4     		push	{r7}
 285              	.LCFI10:
 286              		.cfi_def_cfa_offset 4
 287              		.cfi_offset 7, -4
 288 0002 83B0     		sub	sp, sp, #12
 289              	.LCFI11:
 290              		.cfi_def_cfa_offset 16
 291 0004 00AF     		add	r7, sp, #0
 292              	.LCFI12:
 293              		.cfi_def_cfa_register 7
 294 0006 7860     		str	r0, [r7, #4]
 483:Drivers/STM32F4xx_HAL_Driver/Src/stm32f4xx_hal_spi.c ****   /* Prevent unused argument(s) compilation warning */
 484:Drivers/STM32F4xx_HAL_Driver/Src/stm32f4xx_hal_spi.c ****   UNUSED(hspi);
 485:Drivers/STM32F4xx_HAL_Driver/Src/stm32f4xx_hal_spi.c **** 
 486:Drivers/STM32F4xx_HAL_Driver/Src/stm32f4xx_hal_spi.c ****   /* NOTE : This function should not be modified, when the callback is needed,
 487:Drivers/STM32F4xx_HAL_Driver/Src/stm32f4xx_hal_spi.c ****             the HAL_SPI_MspInit should be implemented in the user file
 488:Drivers/STM32F4xx_HAL_Driver/Src/stm32f4xx_hal_spi.c ****    */
 489:Drivers/STM32F4xx_HAL_Driver/Src/stm32f4xx_hal_spi.c **** }
 295              		.loc 1 489 1
 296 0008 00BF     		nop
 297 000a 0C37     		adds	r7, r7, #12
 298              	.LCFI13:
 299              		.cfi_def_cfa_offset 4
 300 000c BD46     		mov	sp, r7
 301              	.LCFI14:
 302              		.cfi_def_cfa_register 13
 303              		@ sp needed
 304 000e 5DF8047B 		ldr	r7, [sp], #4
 305              	.LCFI15:
 306              		.cfi_restore 7
 307              		.cfi_def_cfa_offset 0
 308 0012 7047     		bx	lr
 309              		.cfi_endproc
 310              	.LFE241:
 312              		.section	.text.HAL_SPI_MspDeInit,"ax",%progbits
 313              		.align	1
 314              		.weak	HAL_SPI_MspDeInit
 315              		.syntax unified
ARM GAS  C:\Users\16323\AppData\Local\Temp\ccbQ7VoP.s 			page 15


 316              		.thumb
 317              		.thumb_func
 319              	HAL_SPI_MspDeInit:
 320              	.LFB242:
 490:Drivers/STM32F4xx_HAL_Driver/Src/stm32f4xx_hal_spi.c **** 
 491:Drivers/STM32F4xx_HAL_Driver/Src/stm32f4xx_hal_spi.c **** /**
 492:Drivers/STM32F4xx_HAL_Driver/Src/stm32f4xx_hal_spi.c ****   * @brief  De-Initialize the SPI MSP.
 493:Drivers/STM32F4xx_HAL_Driver/Src/stm32f4xx_hal_spi.c ****   * @param  hspi pointer to a SPI_HandleTypeDef structure that contains
 494:Drivers/STM32F4xx_HAL_Driver/Src/stm32f4xx_hal_spi.c ****   *               the configuration information for SPI module.
 495:Drivers/STM32F4xx_HAL_Driver/Src/stm32f4xx_hal_spi.c ****   * @retval None
 496:Drivers/STM32F4xx_HAL_Driver/Src/stm32f4xx_hal_spi.c ****   */
 497:Drivers/STM32F4xx_HAL_Driver/Src/stm32f4xx_hal_spi.c **** __weak void HAL_SPI_MspDeInit(SPI_HandleTypeDef *hspi)
 498:Drivers/STM32F4xx_HAL_Driver/Src/stm32f4xx_hal_spi.c **** {
 321              		.loc 1 498 1
 322              		.cfi_startproc
 323              		@ args = 0, pretend = 0, frame = 8
 324              		@ frame_needed = 1, uses_anonymous_args = 0
 325              		@ link register save eliminated.
 326 0000 80B4     		push	{r7}
 327              	.LCFI16:
 328              		.cfi_def_cfa_offset 4
 329              		.cfi_offset 7, -4
 330 0002 83B0     		sub	sp, sp, #12
 331              	.LCFI17:
 332              		.cfi_def_cfa_offset 16
 333 0004 00AF     		add	r7, sp, #0
 334              	.LCFI18:
 335              		.cfi_def_cfa_register 7
 336 0006 7860     		str	r0, [r7, #4]
 499:Drivers/STM32F4xx_HAL_Driver/Src/stm32f4xx_hal_spi.c ****   /* Prevent unused argument(s) compilation warning */
 500:Drivers/STM32F4xx_HAL_Driver/Src/stm32f4xx_hal_spi.c ****   UNUSED(hspi);
 501:Drivers/STM32F4xx_HAL_Driver/Src/stm32f4xx_hal_spi.c **** 
 502:Drivers/STM32F4xx_HAL_Driver/Src/stm32f4xx_hal_spi.c ****   /* NOTE : This function should not be modified, when the callback is needed,
 503:Drivers/STM32F4xx_HAL_Driver/Src/stm32f4xx_hal_spi.c ****             the HAL_SPI_MspDeInit should be implemented in the user file
 504:Drivers/STM32F4xx_HAL_Driver/Src/stm32f4xx_hal_spi.c ****    */
 505:Drivers/STM32F4xx_HAL_Driver/Src/stm32f4xx_hal_spi.c **** }
 337              		.loc 1 505 1
 338 0008 00BF     		nop
 339 000a 0C37     		adds	r7, r7, #12
 340              	.LCFI19:
 341              		.cfi_def_cfa_offset 4
 342 000c BD46     		mov	sp, r7
 343              	.LCFI20:
 344              		.cfi_def_cfa_register 13
 345              		@ sp needed
 346 000e 5DF8047B 		ldr	r7, [sp], #4
 347              	.LCFI21:
 348              		.cfi_restore 7
 349              		.cfi_def_cfa_offset 0
 350 0012 7047     		bx	lr
 351              		.cfi_endproc
 352              	.LFE242:
 354              		.section	.text.HAL_SPI_Transmit,"ax",%progbits
 355              		.align	1
 356              		.global	HAL_SPI_Transmit
 357              		.syntax unified
 358              		.thumb
ARM GAS  C:\Users\16323\AppData\Local\Temp\ccbQ7VoP.s 			page 16


 359              		.thumb_func
 361              	HAL_SPI_Transmit:
 362              	.LFB243:
 506:Drivers/STM32F4xx_HAL_Driver/Src/stm32f4xx_hal_spi.c **** 
 507:Drivers/STM32F4xx_HAL_Driver/Src/stm32f4xx_hal_spi.c **** #if (USE_HAL_SPI_REGISTER_CALLBACKS == 1U)
 508:Drivers/STM32F4xx_HAL_Driver/Src/stm32f4xx_hal_spi.c **** /**
 509:Drivers/STM32F4xx_HAL_Driver/Src/stm32f4xx_hal_spi.c ****   * @brief  Register a User SPI Callback
 510:Drivers/STM32F4xx_HAL_Driver/Src/stm32f4xx_hal_spi.c ****   *         To be used instead of the weak predefined callback
 511:Drivers/STM32F4xx_HAL_Driver/Src/stm32f4xx_hal_spi.c ****   * @param  hspi Pointer to a SPI_HandleTypeDef structure that contains
 512:Drivers/STM32F4xx_HAL_Driver/Src/stm32f4xx_hal_spi.c ****   *                the configuration information for the specified SPI.
 513:Drivers/STM32F4xx_HAL_Driver/Src/stm32f4xx_hal_spi.c ****   * @param  CallbackID ID of the callback to be registered
 514:Drivers/STM32F4xx_HAL_Driver/Src/stm32f4xx_hal_spi.c ****   * @param  pCallback pointer to the Callback function
 515:Drivers/STM32F4xx_HAL_Driver/Src/stm32f4xx_hal_spi.c ****   * @retval HAL status
 516:Drivers/STM32F4xx_HAL_Driver/Src/stm32f4xx_hal_spi.c ****   */
 517:Drivers/STM32F4xx_HAL_Driver/Src/stm32f4xx_hal_spi.c **** HAL_StatusTypeDef HAL_SPI_RegisterCallback(SPI_HandleTypeDef *hspi, HAL_SPI_CallbackIDTypeDef Callb
 518:Drivers/STM32F4xx_HAL_Driver/Src/stm32f4xx_hal_spi.c ****                                            pSPI_CallbackTypeDef pCallback)
 519:Drivers/STM32F4xx_HAL_Driver/Src/stm32f4xx_hal_spi.c **** {
 520:Drivers/STM32F4xx_HAL_Driver/Src/stm32f4xx_hal_spi.c ****   HAL_StatusTypeDef status = HAL_OK;
 521:Drivers/STM32F4xx_HAL_Driver/Src/stm32f4xx_hal_spi.c **** 
 522:Drivers/STM32F4xx_HAL_Driver/Src/stm32f4xx_hal_spi.c ****   if (pCallback == NULL)
 523:Drivers/STM32F4xx_HAL_Driver/Src/stm32f4xx_hal_spi.c ****   {
 524:Drivers/STM32F4xx_HAL_Driver/Src/stm32f4xx_hal_spi.c ****     /* Update the error code */
 525:Drivers/STM32F4xx_HAL_Driver/Src/stm32f4xx_hal_spi.c ****     hspi->ErrorCode |= HAL_SPI_ERROR_INVALID_CALLBACK;
 526:Drivers/STM32F4xx_HAL_Driver/Src/stm32f4xx_hal_spi.c **** 
 527:Drivers/STM32F4xx_HAL_Driver/Src/stm32f4xx_hal_spi.c ****     return HAL_ERROR;
 528:Drivers/STM32F4xx_HAL_Driver/Src/stm32f4xx_hal_spi.c ****   }
 529:Drivers/STM32F4xx_HAL_Driver/Src/stm32f4xx_hal_spi.c ****   /* Process locked */
 530:Drivers/STM32F4xx_HAL_Driver/Src/stm32f4xx_hal_spi.c ****   __HAL_LOCK(hspi);
 531:Drivers/STM32F4xx_HAL_Driver/Src/stm32f4xx_hal_spi.c **** 
 532:Drivers/STM32F4xx_HAL_Driver/Src/stm32f4xx_hal_spi.c ****   if (HAL_SPI_STATE_READY == hspi->State)
 533:Drivers/STM32F4xx_HAL_Driver/Src/stm32f4xx_hal_spi.c ****   {
 534:Drivers/STM32F4xx_HAL_Driver/Src/stm32f4xx_hal_spi.c ****     switch (CallbackID)
 535:Drivers/STM32F4xx_HAL_Driver/Src/stm32f4xx_hal_spi.c ****     {
 536:Drivers/STM32F4xx_HAL_Driver/Src/stm32f4xx_hal_spi.c ****       case HAL_SPI_TX_COMPLETE_CB_ID :
 537:Drivers/STM32F4xx_HAL_Driver/Src/stm32f4xx_hal_spi.c ****         hspi->TxCpltCallback = pCallback;
 538:Drivers/STM32F4xx_HAL_Driver/Src/stm32f4xx_hal_spi.c ****         break;
 539:Drivers/STM32F4xx_HAL_Driver/Src/stm32f4xx_hal_spi.c **** 
 540:Drivers/STM32F4xx_HAL_Driver/Src/stm32f4xx_hal_spi.c ****       case HAL_SPI_RX_COMPLETE_CB_ID :
 541:Drivers/STM32F4xx_HAL_Driver/Src/stm32f4xx_hal_spi.c ****         hspi->RxCpltCallback = pCallback;
 542:Drivers/STM32F4xx_HAL_Driver/Src/stm32f4xx_hal_spi.c ****         break;
 543:Drivers/STM32F4xx_HAL_Driver/Src/stm32f4xx_hal_spi.c **** 
 544:Drivers/STM32F4xx_HAL_Driver/Src/stm32f4xx_hal_spi.c ****       case HAL_SPI_TX_RX_COMPLETE_CB_ID :
 545:Drivers/STM32F4xx_HAL_Driver/Src/stm32f4xx_hal_spi.c ****         hspi->TxRxCpltCallback = pCallback;
 546:Drivers/STM32F4xx_HAL_Driver/Src/stm32f4xx_hal_spi.c ****         break;
 547:Drivers/STM32F4xx_HAL_Driver/Src/stm32f4xx_hal_spi.c **** 
 548:Drivers/STM32F4xx_HAL_Driver/Src/stm32f4xx_hal_spi.c ****       case HAL_SPI_TX_HALF_COMPLETE_CB_ID :
 549:Drivers/STM32F4xx_HAL_Driver/Src/stm32f4xx_hal_spi.c ****         hspi->TxHalfCpltCallback = pCallback;
 550:Drivers/STM32F4xx_HAL_Driver/Src/stm32f4xx_hal_spi.c ****         break;
 551:Drivers/STM32F4xx_HAL_Driver/Src/stm32f4xx_hal_spi.c **** 
 552:Drivers/STM32F4xx_HAL_Driver/Src/stm32f4xx_hal_spi.c ****       case HAL_SPI_RX_HALF_COMPLETE_CB_ID :
 553:Drivers/STM32F4xx_HAL_Driver/Src/stm32f4xx_hal_spi.c ****         hspi->RxHalfCpltCallback = pCallback;
 554:Drivers/STM32F4xx_HAL_Driver/Src/stm32f4xx_hal_spi.c ****         break;
 555:Drivers/STM32F4xx_HAL_Driver/Src/stm32f4xx_hal_spi.c **** 
 556:Drivers/STM32F4xx_HAL_Driver/Src/stm32f4xx_hal_spi.c ****       case HAL_SPI_TX_RX_HALF_COMPLETE_CB_ID :
 557:Drivers/STM32F4xx_HAL_Driver/Src/stm32f4xx_hal_spi.c ****         hspi->TxRxHalfCpltCallback = pCallback;
 558:Drivers/STM32F4xx_HAL_Driver/Src/stm32f4xx_hal_spi.c ****         break;
 559:Drivers/STM32F4xx_HAL_Driver/Src/stm32f4xx_hal_spi.c **** 
ARM GAS  C:\Users\16323\AppData\Local\Temp\ccbQ7VoP.s 			page 17


 560:Drivers/STM32F4xx_HAL_Driver/Src/stm32f4xx_hal_spi.c ****       case HAL_SPI_ERROR_CB_ID :
 561:Drivers/STM32F4xx_HAL_Driver/Src/stm32f4xx_hal_spi.c ****         hspi->ErrorCallback = pCallback;
 562:Drivers/STM32F4xx_HAL_Driver/Src/stm32f4xx_hal_spi.c ****         break;
 563:Drivers/STM32F4xx_HAL_Driver/Src/stm32f4xx_hal_spi.c **** 
 564:Drivers/STM32F4xx_HAL_Driver/Src/stm32f4xx_hal_spi.c ****       case HAL_SPI_ABORT_CB_ID :
 565:Drivers/STM32F4xx_HAL_Driver/Src/stm32f4xx_hal_spi.c ****         hspi->AbortCpltCallback = pCallback;
 566:Drivers/STM32F4xx_HAL_Driver/Src/stm32f4xx_hal_spi.c ****         break;
 567:Drivers/STM32F4xx_HAL_Driver/Src/stm32f4xx_hal_spi.c **** 
 568:Drivers/STM32F4xx_HAL_Driver/Src/stm32f4xx_hal_spi.c ****       case HAL_SPI_MSPINIT_CB_ID :
 569:Drivers/STM32F4xx_HAL_Driver/Src/stm32f4xx_hal_spi.c ****         hspi->MspInitCallback = pCallback;
 570:Drivers/STM32F4xx_HAL_Driver/Src/stm32f4xx_hal_spi.c ****         break;
 571:Drivers/STM32F4xx_HAL_Driver/Src/stm32f4xx_hal_spi.c **** 
 572:Drivers/STM32F4xx_HAL_Driver/Src/stm32f4xx_hal_spi.c ****       case HAL_SPI_MSPDEINIT_CB_ID :
 573:Drivers/STM32F4xx_HAL_Driver/Src/stm32f4xx_hal_spi.c ****         hspi->MspDeInitCallback = pCallback;
 574:Drivers/STM32F4xx_HAL_Driver/Src/stm32f4xx_hal_spi.c ****         break;
 575:Drivers/STM32F4xx_HAL_Driver/Src/stm32f4xx_hal_spi.c **** 
 576:Drivers/STM32F4xx_HAL_Driver/Src/stm32f4xx_hal_spi.c ****       default :
 577:Drivers/STM32F4xx_HAL_Driver/Src/stm32f4xx_hal_spi.c ****         /* Update the error code */
 578:Drivers/STM32F4xx_HAL_Driver/Src/stm32f4xx_hal_spi.c ****         SET_BIT(hspi->ErrorCode, HAL_SPI_ERROR_INVALID_CALLBACK);
 579:Drivers/STM32F4xx_HAL_Driver/Src/stm32f4xx_hal_spi.c **** 
 580:Drivers/STM32F4xx_HAL_Driver/Src/stm32f4xx_hal_spi.c ****         /* Return error status */
 581:Drivers/STM32F4xx_HAL_Driver/Src/stm32f4xx_hal_spi.c ****         status =  HAL_ERROR;
 582:Drivers/STM32F4xx_HAL_Driver/Src/stm32f4xx_hal_spi.c ****         break;
 583:Drivers/STM32F4xx_HAL_Driver/Src/stm32f4xx_hal_spi.c ****     }
 584:Drivers/STM32F4xx_HAL_Driver/Src/stm32f4xx_hal_spi.c ****   }
 585:Drivers/STM32F4xx_HAL_Driver/Src/stm32f4xx_hal_spi.c ****   else if (HAL_SPI_STATE_RESET == hspi->State)
 586:Drivers/STM32F4xx_HAL_Driver/Src/stm32f4xx_hal_spi.c ****   {
 587:Drivers/STM32F4xx_HAL_Driver/Src/stm32f4xx_hal_spi.c ****     switch (CallbackID)
 588:Drivers/STM32F4xx_HAL_Driver/Src/stm32f4xx_hal_spi.c ****     {
 589:Drivers/STM32F4xx_HAL_Driver/Src/stm32f4xx_hal_spi.c ****       case HAL_SPI_MSPINIT_CB_ID :
 590:Drivers/STM32F4xx_HAL_Driver/Src/stm32f4xx_hal_spi.c ****         hspi->MspInitCallback = pCallback;
 591:Drivers/STM32F4xx_HAL_Driver/Src/stm32f4xx_hal_spi.c ****         break;
 592:Drivers/STM32F4xx_HAL_Driver/Src/stm32f4xx_hal_spi.c **** 
 593:Drivers/STM32F4xx_HAL_Driver/Src/stm32f4xx_hal_spi.c ****       case HAL_SPI_MSPDEINIT_CB_ID :
 594:Drivers/STM32F4xx_HAL_Driver/Src/stm32f4xx_hal_spi.c ****         hspi->MspDeInitCallback = pCallback;
 595:Drivers/STM32F4xx_HAL_Driver/Src/stm32f4xx_hal_spi.c ****         break;
 596:Drivers/STM32F4xx_HAL_Driver/Src/stm32f4xx_hal_spi.c **** 
 597:Drivers/STM32F4xx_HAL_Driver/Src/stm32f4xx_hal_spi.c ****       default :
 598:Drivers/STM32F4xx_HAL_Driver/Src/stm32f4xx_hal_spi.c ****         /* Update the error code */
 599:Drivers/STM32F4xx_HAL_Driver/Src/stm32f4xx_hal_spi.c ****         SET_BIT(hspi->ErrorCode, HAL_SPI_ERROR_INVALID_CALLBACK);
 600:Drivers/STM32F4xx_HAL_Driver/Src/stm32f4xx_hal_spi.c **** 
 601:Drivers/STM32F4xx_HAL_Driver/Src/stm32f4xx_hal_spi.c ****         /* Return error status */
 602:Drivers/STM32F4xx_HAL_Driver/Src/stm32f4xx_hal_spi.c ****         status =  HAL_ERROR;
 603:Drivers/STM32F4xx_HAL_Driver/Src/stm32f4xx_hal_spi.c ****         break;
 604:Drivers/STM32F4xx_HAL_Driver/Src/stm32f4xx_hal_spi.c ****     }
 605:Drivers/STM32F4xx_HAL_Driver/Src/stm32f4xx_hal_spi.c ****   }
 606:Drivers/STM32F4xx_HAL_Driver/Src/stm32f4xx_hal_spi.c ****   else
 607:Drivers/STM32F4xx_HAL_Driver/Src/stm32f4xx_hal_spi.c ****   {
 608:Drivers/STM32F4xx_HAL_Driver/Src/stm32f4xx_hal_spi.c ****     /* Update the error code */
 609:Drivers/STM32F4xx_HAL_Driver/Src/stm32f4xx_hal_spi.c ****     SET_BIT(hspi->ErrorCode, HAL_SPI_ERROR_INVALID_CALLBACK);
 610:Drivers/STM32F4xx_HAL_Driver/Src/stm32f4xx_hal_spi.c **** 
 611:Drivers/STM32F4xx_HAL_Driver/Src/stm32f4xx_hal_spi.c ****     /* Return error status */
 612:Drivers/STM32F4xx_HAL_Driver/Src/stm32f4xx_hal_spi.c ****     status =  HAL_ERROR;
 613:Drivers/STM32F4xx_HAL_Driver/Src/stm32f4xx_hal_spi.c ****   }
 614:Drivers/STM32F4xx_HAL_Driver/Src/stm32f4xx_hal_spi.c **** 
 615:Drivers/STM32F4xx_HAL_Driver/Src/stm32f4xx_hal_spi.c ****   /* Release Lock */
 616:Drivers/STM32F4xx_HAL_Driver/Src/stm32f4xx_hal_spi.c ****   __HAL_UNLOCK(hspi);
ARM GAS  C:\Users\16323\AppData\Local\Temp\ccbQ7VoP.s 			page 18


 617:Drivers/STM32F4xx_HAL_Driver/Src/stm32f4xx_hal_spi.c ****   return status;
 618:Drivers/STM32F4xx_HAL_Driver/Src/stm32f4xx_hal_spi.c **** }
 619:Drivers/STM32F4xx_HAL_Driver/Src/stm32f4xx_hal_spi.c **** 
 620:Drivers/STM32F4xx_HAL_Driver/Src/stm32f4xx_hal_spi.c **** /**
 621:Drivers/STM32F4xx_HAL_Driver/Src/stm32f4xx_hal_spi.c ****   * @brief  Unregister an SPI Callback
 622:Drivers/STM32F4xx_HAL_Driver/Src/stm32f4xx_hal_spi.c ****   *         SPI callback is redirected to the weak predefined callback
 623:Drivers/STM32F4xx_HAL_Driver/Src/stm32f4xx_hal_spi.c ****   * @param  hspi Pointer to a SPI_HandleTypeDef structure that contains
 624:Drivers/STM32F4xx_HAL_Driver/Src/stm32f4xx_hal_spi.c ****   *                the configuration information for the specified SPI.
 625:Drivers/STM32F4xx_HAL_Driver/Src/stm32f4xx_hal_spi.c ****   * @param  CallbackID ID of the callback to be unregistered
 626:Drivers/STM32F4xx_HAL_Driver/Src/stm32f4xx_hal_spi.c ****   * @retval HAL status
 627:Drivers/STM32F4xx_HAL_Driver/Src/stm32f4xx_hal_spi.c ****   */
 628:Drivers/STM32F4xx_HAL_Driver/Src/stm32f4xx_hal_spi.c **** HAL_StatusTypeDef HAL_SPI_UnRegisterCallback(SPI_HandleTypeDef *hspi, HAL_SPI_CallbackIDTypeDef Cal
 629:Drivers/STM32F4xx_HAL_Driver/Src/stm32f4xx_hal_spi.c **** {
 630:Drivers/STM32F4xx_HAL_Driver/Src/stm32f4xx_hal_spi.c ****   HAL_StatusTypeDef status = HAL_OK;
 631:Drivers/STM32F4xx_HAL_Driver/Src/stm32f4xx_hal_spi.c **** 
 632:Drivers/STM32F4xx_HAL_Driver/Src/stm32f4xx_hal_spi.c ****   /* Process locked */
 633:Drivers/STM32F4xx_HAL_Driver/Src/stm32f4xx_hal_spi.c ****   __HAL_LOCK(hspi);
 634:Drivers/STM32F4xx_HAL_Driver/Src/stm32f4xx_hal_spi.c **** 
 635:Drivers/STM32F4xx_HAL_Driver/Src/stm32f4xx_hal_spi.c ****   if (HAL_SPI_STATE_READY == hspi->State)
 636:Drivers/STM32F4xx_HAL_Driver/Src/stm32f4xx_hal_spi.c ****   {
 637:Drivers/STM32F4xx_HAL_Driver/Src/stm32f4xx_hal_spi.c ****     switch (CallbackID)
 638:Drivers/STM32F4xx_HAL_Driver/Src/stm32f4xx_hal_spi.c ****     {
 639:Drivers/STM32F4xx_HAL_Driver/Src/stm32f4xx_hal_spi.c ****       case HAL_SPI_TX_COMPLETE_CB_ID :
 640:Drivers/STM32F4xx_HAL_Driver/Src/stm32f4xx_hal_spi.c ****         hspi->TxCpltCallback = HAL_SPI_TxCpltCallback;             /* Legacy weak TxCpltCallback   
 641:Drivers/STM32F4xx_HAL_Driver/Src/stm32f4xx_hal_spi.c ****         break;
 642:Drivers/STM32F4xx_HAL_Driver/Src/stm32f4xx_hal_spi.c **** 
 643:Drivers/STM32F4xx_HAL_Driver/Src/stm32f4xx_hal_spi.c ****       case HAL_SPI_RX_COMPLETE_CB_ID :
 644:Drivers/STM32F4xx_HAL_Driver/Src/stm32f4xx_hal_spi.c ****         hspi->RxCpltCallback = HAL_SPI_RxCpltCallback;             /* Legacy weak RxCpltCallback   
 645:Drivers/STM32F4xx_HAL_Driver/Src/stm32f4xx_hal_spi.c ****         break;
 646:Drivers/STM32F4xx_HAL_Driver/Src/stm32f4xx_hal_spi.c **** 
 647:Drivers/STM32F4xx_HAL_Driver/Src/stm32f4xx_hal_spi.c ****       case HAL_SPI_TX_RX_COMPLETE_CB_ID :
 648:Drivers/STM32F4xx_HAL_Driver/Src/stm32f4xx_hal_spi.c ****         hspi->TxRxCpltCallback = HAL_SPI_TxRxCpltCallback;         /* Legacy weak TxRxCpltCallback 
 649:Drivers/STM32F4xx_HAL_Driver/Src/stm32f4xx_hal_spi.c ****         break;
 650:Drivers/STM32F4xx_HAL_Driver/Src/stm32f4xx_hal_spi.c **** 
 651:Drivers/STM32F4xx_HAL_Driver/Src/stm32f4xx_hal_spi.c ****       case HAL_SPI_TX_HALF_COMPLETE_CB_ID :
 652:Drivers/STM32F4xx_HAL_Driver/Src/stm32f4xx_hal_spi.c ****         hspi->TxHalfCpltCallback = HAL_SPI_TxHalfCpltCallback;     /* Legacy weak TxHalfCpltCallbac
 653:Drivers/STM32F4xx_HAL_Driver/Src/stm32f4xx_hal_spi.c ****         break;
 654:Drivers/STM32F4xx_HAL_Driver/Src/stm32f4xx_hal_spi.c **** 
 655:Drivers/STM32F4xx_HAL_Driver/Src/stm32f4xx_hal_spi.c ****       case HAL_SPI_RX_HALF_COMPLETE_CB_ID :
 656:Drivers/STM32F4xx_HAL_Driver/Src/stm32f4xx_hal_spi.c ****         hspi->RxHalfCpltCallback = HAL_SPI_RxHalfCpltCallback;     /* Legacy weak RxHalfCpltCallbac
 657:Drivers/STM32F4xx_HAL_Driver/Src/stm32f4xx_hal_spi.c ****         break;
 658:Drivers/STM32F4xx_HAL_Driver/Src/stm32f4xx_hal_spi.c **** 
 659:Drivers/STM32F4xx_HAL_Driver/Src/stm32f4xx_hal_spi.c ****       case HAL_SPI_TX_RX_HALF_COMPLETE_CB_ID :
 660:Drivers/STM32F4xx_HAL_Driver/Src/stm32f4xx_hal_spi.c ****         hspi->TxRxHalfCpltCallback = HAL_SPI_TxRxHalfCpltCallback; /* Legacy weak TxRxHalfCpltCallb
 661:Drivers/STM32F4xx_HAL_Driver/Src/stm32f4xx_hal_spi.c ****         break;
 662:Drivers/STM32F4xx_HAL_Driver/Src/stm32f4xx_hal_spi.c **** 
 663:Drivers/STM32F4xx_HAL_Driver/Src/stm32f4xx_hal_spi.c ****       case HAL_SPI_ERROR_CB_ID :
 664:Drivers/STM32F4xx_HAL_Driver/Src/stm32f4xx_hal_spi.c ****         hspi->ErrorCallback = HAL_SPI_ErrorCallback;               /* Legacy weak ErrorCallback    
 665:Drivers/STM32F4xx_HAL_Driver/Src/stm32f4xx_hal_spi.c ****         break;
 666:Drivers/STM32F4xx_HAL_Driver/Src/stm32f4xx_hal_spi.c **** 
 667:Drivers/STM32F4xx_HAL_Driver/Src/stm32f4xx_hal_spi.c ****       case HAL_SPI_ABORT_CB_ID :
 668:Drivers/STM32F4xx_HAL_Driver/Src/stm32f4xx_hal_spi.c ****         hspi->AbortCpltCallback = HAL_SPI_AbortCpltCallback;       /* Legacy weak AbortCpltCallback
 669:Drivers/STM32F4xx_HAL_Driver/Src/stm32f4xx_hal_spi.c ****         break;
 670:Drivers/STM32F4xx_HAL_Driver/Src/stm32f4xx_hal_spi.c **** 
 671:Drivers/STM32F4xx_HAL_Driver/Src/stm32f4xx_hal_spi.c ****       case HAL_SPI_MSPINIT_CB_ID :
 672:Drivers/STM32F4xx_HAL_Driver/Src/stm32f4xx_hal_spi.c ****         hspi->MspInitCallback = HAL_SPI_MspInit;                   /* Legacy weak MspInit          
 673:Drivers/STM32F4xx_HAL_Driver/Src/stm32f4xx_hal_spi.c ****         break;
ARM GAS  C:\Users\16323\AppData\Local\Temp\ccbQ7VoP.s 			page 19


 674:Drivers/STM32F4xx_HAL_Driver/Src/stm32f4xx_hal_spi.c **** 
 675:Drivers/STM32F4xx_HAL_Driver/Src/stm32f4xx_hal_spi.c ****       case HAL_SPI_MSPDEINIT_CB_ID :
 676:Drivers/STM32F4xx_HAL_Driver/Src/stm32f4xx_hal_spi.c ****         hspi->MspDeInitCallback = HAL_SPI_MspDeInit;               /* Legacy weak MspDeInit        
 677:Drivers/STM32F4xx_HAL_Driver/Src/stm32f4xx_hal_spi.c ****         break;
 678:Drivers/STM32F4xx_HAL_Driver/Src/stm32f4xx_hal_spi.c **** 
 679:Drivers/STM32F4xx_HAL_Driver/Src/stm32f4xx_hal_spi.c ****       default :
 680:Drivers/STM32F4xx_HAL_Driver/Src/stm32f4xx_hal_spi.c ****         /* Update the error code */
 681:Drivers/STM32F4xx_HAL_Driver/Src/stm32f4xx_hal_spi.c ****         SET_BIT(hspi->ErrorCode, HAL_SPI_ERROR_INVALID_CALLBACK);
 682:Drivers/STM32F4xx_HAL_Driver/Src/stm32f4xx_hal_spi.c **** 
 683:Drivers/STM32F4xx_HAL_Driver/Src/stm32f4xx_hal_spi.c ****         /* Return error status */
 684:Drivers/STM32F4xx_HAL_Driver/Src/stm32f4xx_hal_spi.c ****         status =  HAL_ERROR;
 685:Drivers/STM32F4xx_HAL_Driver/Src/stm32f4xx_hal_spi.c ****         break;
 686:Drivers/STM32F4xx_HAL_Driver/Src/stm32f4xx_hal_spi.c ****     }
 687:Drivers/STM32F4xx_HAL_Driver/Src/stm32f4xx_hal_spi.c ****   }
 688:Drivers/STM32F4xx_HAL_Driver/Src/stm32f4xx_hal_spi.c ****   else if (HAL_SPI_STATE_RESET == hspi->State)
 689:Drivers/STM32F4xx_HAL_Driver/Src/stm32f4xx_hal_spi.c ****   {
 690:Drivers/STM32F4xx_HAL_Driver/Src/stm32f4xx_hal_spi.c ****     switch (CallbackID)
 691:Drivers/STM32F4xx_HAL_Driver/Src/stm32f4xx_hal_spi.c ****     {
 692:Drivers/STM32F4xx_HAL_Driver/Src/stm32f4xx_hal_spi.c ****       case HAL_SPI_MSPINIT_CB_ID :
 693:Drivers/STM32F4xx_HAL_Driver/Src/stm32f4xx_hal_spi.c ****         hspi->MspInitCallback = HAL_SPI_MspInit;                   /* Legacy weak MspInit          
 694:Drivers/STM32F4xx_HAL_Driver/Src/stm32f4xx_hal_spi.c ****         break;
 695:Drivers/STM32F4xx_HAL_Driver/Src/stm32f4xx_hal_spi.c **** 
 696:Drivers/STM32F4xx_HAL_Driver/Src/stm32f4xx_hal_spi.c ****       case HAL_SPI_MSPDEINIT_CB_ID :
 697:Drivers/STM32F4xx_HAL_Driver/Src/stm32f4xx_hal_spi.c ****         hspi->MspDeInitCallback = HAL_SPI_MspDeInit;               /* Legacy weak MspDeInit        
 698:Drivers/STM32F4xx_HAL_Driver/Src/stm32f4xx_hal_spi.c ****         break;
 699:Drivers/STM32F4xx_HAL_Driver/Src/stm32f4xx_hal_spi.c **** 
 700:Drivers/STM32F4xx_HAL_Driver/Src/stm32f4xx_hal_spi.c ****       default :
 701:Drivers/STM32F4xx_HAL_Driver/Src/stm32f4xx_hal_spi.c ****         /* Update the error code */
 702:Drivers/STM32F4xx_HAL_Driver/Src/stm32f4xx_hal_spi.c ****         SET_BIT(hspi->ErrorCode, HAL_SPI_ERROR_INVALID_CALLBACK);
 703:Drivers/STM32F4xx_HAL_Driver/Src/stm32f4xx_hal_spi.c **** 
 704:Drivers/STM32F4xx_HAL_Driver/Src/stm32f4xx_hal_spi.c ****         /* Return error status */
 705:Drivers/STM32F4xx_HAL_Driver/Src/stm32f4xx_hal_spi.c ****         status =  HAL_ERROR;
 706:Drivers/STM32F4xx_HAL_Driver/Src/stm32f4xx_hal_spi.c ****         break;
 707:Drivers/STM32F4xx_HAL_Driver/Src/stm32f4xx_hal_spi.c ****     }
 708:Drivers/STM32F4xx_HAL_Driver/Src/stm32f4xx_hal_spi.c ****   }
 709:Drivers/STM32F4xx_HAL_Driver/Src/stm32f4xx_hal_spi.c ****   else
 710:Drivers/STM32F4xx_HAL_Driver/Src/stm32f4xx_hal_spi.c ****   {
 711:Drivers/STM32F4xx_HAL_Driver/Src/stm32f4xx_hal_spi.c ****     /* Update the error code */
 712:Drivers/STM32F4xx_HAL_Driver/Src/stm32f4xx_hal_spi.c ****     SET_BIT(hspi->ErrorCode, HAL_SPI_ERROR_INVALID_CALLBACK);
 713:Drivers/STM32F4xx_HAL_Driver/Src/stm32f4xx_hal_spi.c **** 
 714:Drivers/STM32F4xx_HAL_Driver/Src/stm32f4xx_hal_spi.c ****     /* Return error status */
 715:Drivers/STM32F4xx_HAL_Driver/Src/stm32f4xx_hal_spi.c ****     status =  HAL_ERROR;
 716:Drivers/STM32F4xx_HAL_Driver/Src/stm32f4xx_hal_spi.c ****   }
 717:Drivers/STM32F4xx_HAL_Driver/Src/stm32f4xx_hal_spi.c **** 
 718:Drivers/STM32F4xx_HAL_Driver/Src/stm32f4xx_hal_spi.c ****   /* Release Lock */
 719:Drivers/STM32F4xx_HAL_Driver/Src/stm32f4xx_hal_spi.c ****   __HAL_UNLOCK(hspi);
 720:Drivers/STM32F4xx_HAL_Driver/Src/stm32f4xx_hal_spi.c ****   return status;
 721:Drivers/STM32F4xx_HAL_Driver/Src/stm32f4xx_hal_spi.c **** }
 722:Drivers/STM32F4xx_HAL_Driver/Src/stm32f4xx_hal_spi.c **** #endif /* USE_HAL_SPI_REGISTER_CALLBACKS */
 723:Drivers/STM32F4xx_HAL_Driver/Src/stm32f4xx_hal_spi.c **** /**
 724:Drivers/STM32F4xx_HAL_Driver/Src/stm32f4xx_hal_spi.c ****   * @}
 725:Drivers/STM32F4xx_HAL_Driver/Src/stm32f4xx_hal_spi.c ****   */
 726:Drivers/STM32F4xx_HAL_Driver/Src/stm32f4xx_hal_spi.c **** 
 727:Drivers/STM32F4xx_HAL_Driver/Src/stm32f4xx_hal_spi.c **** /** @defgroup SPI_Exported_Functions_Group2 IO operation functions
 728:Drivers/STM32F4xx_HAL_Driver/Src/stm32f4xx_hal_spi.c ****   *  @brief   Data transfers functions
 729:Drivers/STM32F4xx_HAL_Driver/Src/stm32f4xx_hal_spi.c ****   *
 730:Drivers/STM32F4xx_HAL_Driver/Src/stm32f4xx_hal_spi.c **** @verbatim
ARM GAS  C:\Users\16323\AppData\Local\Temp\ccbQ7VoP.s 			page 20


 731:Drivers/STM32F4xx_HAL_Driver/Src/stm32f4xx_hal_spi.c ****   ==============================================================================
 732:Drivers/STM32F4xx_HAL_Driver/Src/stm32f4xx_hal_spi.c ****                       ##### IO operation functions #####
 733:Drivers/STM32F4xx_HAL_Driver/Src/stm32f4xx_hal_spi.c ****  ===============================================================================
 734:Drivers/STM32F4xx_HAL_Driver/Src/stm32f4xx_hal_spi.c ****  [..]
 735:Drivers/STM32F4xx_HAL_Driver/Src/stm32f4xx_hal_spi.c ****     This subsection provides a set of functions allowing to manage the SPI
 736:Drivers/STM32F4xx_HAL_Driver/Src/stm32f4xx_hal_spi.c ****     data transfers.
 737:Drivers/STM32F4xx_HAL_Driver/Src/stm32f4xx_hal_spi.c **** 
 738:Drivers/STM32F4xx_HAL_Driver/Src/stm32f4xx_hal_spi.c ****     [..] The SPI supports master and slave mode :
 739:Drivers/STM32F4xx_HAL_Driver/Src/stm32f4xx_hal_spi.c **** 
 740:Drivers/STM32F4xx_HAL_Driver/Src/stm32f4xx_hal_spi.c ****     (#) There are two modes of transfer:
 741:Drivers/STM32F4xx_HAL_Driver/Src/stm32f4xx_hal_spi.c ****        (++) Blocking mode: The communication is performed in polling mode.
 742:Drivers/STM32F4xx_HAL_Driver/Src/stm32f4xx_hal_spi.c ****             The HAL status of all data processing is returned by the same function
 743:Drivers/STM32F4xx_HAL_Driver/Src/stm32f4xx_hal_spi.c ****             after finishing transfer.
 744:Drivers/STM32F4xx_HAL_Driver/Src/stm32f4xx_hal_spi.c ****        (++) No-Blocking mode: The communication is performed using Interrupts
 745:Drivers/STM32F4xx_HAL_Driver/Src/stm32f4xx_hal_spi.c ****             or DMA, These APIs return the HAL status.
 746:Drivers/STM32F4xx_HAL_Driver/Src/stm32f4xx_hal_spi.c ****             The end of the data processing will be indicated through the
 747:Drivers/STM32F4xx_HAL_Driver/Src/stm32f4xx_hal_spi.c ****             dedicated SPI IRQ when using Interrupt mode or the DMA IRQ when
 748:Drivers/STM32F4xx_HAL_Driver/Src/stm32f4xx_hal_spi.c ****             using DMA mode.
 749:Drivers/STM32F4xx_HAL_Driver/Src/stm32f4xx_hal_spi.c ****             The HAL_SPI_TxCpltCallback(), HAL_SPI_RxCpltCallback() and HAL_SPI_TxRxCpltCallback() u
 750:Drivers/STM32F4xx_HAL_Driver/Src/stm32f4xx_hal_spi.c ****             will be executed respectively at the end of the transmit or Receive process
 751:Drivers/STM32F4xx_HAL_Driver/Src/stm32f4xx_hal_spi.c ****             The HAL_SPI_ErrorCallback()user callback will be executed when a communication error is
 752:Drivers/STM32F4xx_HAL_Driver/Src/stm32f4xx_hal_spi.c **** 
 753:Drivers/STM32F4xx_HAL_Driver/Src/stm32f4xx_hal_spi.c ****     (#) APIs provided for these 2 transfer modes (Blocking mode or Non blocking mode using either I
 754:Drivers/STM32F4xx_HAL_Driver/Src/stm32f4xx_hal_spi.c ****         exist for 1Line (simplex) and 2Lines (full duplex) modes.
 755:Drivers/STM32F4xx_HAL_Driver/Src/stm32f4xx_hal_spi.c **** 
 756:Drivers/STM32F4xx_HAL_Driver/Src/stm32f4xx_hal_spi.c **** @endverbatim
 757:Drivers/STM32F4xx_HAL_Driver/Src/stm32f4xx_hal_spi.c ****   * @{
 758:Drivers/STM32F4xx_HAL_Driver/Src/stm32f4xx_hal_spi.c ****   */
 759:Drivers/STM32F4xx_HAL_Driver/Src/stm32f4xx_hal_spi.c **** 
 760:Drivers/STM32F4xx_HAL_Driver/Src/stm32f4xx_hal_spi.c **** /**
 761:Drivers/STM32F4xx_HAL_Driver/Src/stm32f4xx_hal_spi.c ****   * @brief  Transmit an amount of data in blocking mode.
 762:Drivers/STM32F4xx_HAL_Driver/Src/stm32f4xx_hal_spi.c ****   * @param  hspi pointer to a SPI_HandleTypeDef structure that contains
 763:Drivers/STM32F4xx_HAL_Driver/Src/stm32f4xx_hal_spi.c ****   *               the configuration information for SPI module.
 764:Drivers/STM32F4xx_HAL_Driver/Src/stm32f4xx_hal_spi.c ****   * @param  pData pointer to data buffer
 765:Drivers/STM32F4xx_HAL_Driver/Src/stm32f4xx_hal_spi.c ****   * @param  Size amount of data to be sent
 766:Drivers/STM32F4xx_HAL_Driver/Src/stm32f4xx_hal_spi.c ****   * @param  Timeout Timeout duration
 767:Drivers/STM32F4xx_HAL_Driver/Src/stm32f4xx_hal_spi.c ****   * @retval HAL status
 768:Drivers/STM32F4xx_HAL_Driver/Src/stm32f4xx_hal_spi.c ****   */
 769:Drivers/STM32F4xx_HAL_Driver/Src/stm32f4xx_hal_spi.c **** HAL_StatusTypeDef HAL_SPI_Transmit(SPI_HandleTypeDef *hspi, const uint8_t *pData, uint16_t Size, ui
 770:Drivers/STM32F4xx_HAL_Driver/Src/stm32f4xx_hal_spi.c **** {
 363              		.loc 1 770 1
 364              		.cfi_startproc
 365              		@ args = 0, pretend = 0, frame = 32
 366              		@ frame_needed = 1, uses_anonymous_args = 0
 367 0000 80B5     		push	{r7, lr}
 368              	.LCFI22:
 369              		.cfi_def_cfa_offset 8
 370              		.cfi_offset 7, -8
 371              		.cfi_offset 14, -4
 372 0002 88B0     		sub	sp, sp, #32
 373              	.LCFI23:
 374              		.cfi_def_cfa_offset 40
 375 0004 00AF     		add	r7, sp, #0
 376              	.LCFI24:
 377              		.cfi_def_cfa_register 7
 378 0006 F860     		str	r0, [r7, #12]
 379 0008 B960     		str	r1, [r7, #8]
ARM GAS  C:\Users\16323\AppData\Local\Temp\ccbQ7VoP.s 			page 21


 380 000a 3B60     		str	r3, [r7]
 381 000c 1346     		mov	r3, r2	@ movhi
 382 000e FB80     		strh	r3, [r7, #6]	@ movhi
 771:Drivers/STM32F4xx_HAL_Driver/Src/stm32f4xx_hal_spi.c ****   uint32_t tickstart;
 772:Drivers/STM32F4xx_HAL_Driver/Src/stm32f4xx_hal_spi.c ****   uint16_t initial_TxXferCount;
 773:Drivers/STM32F4xx_HAL_Driver/Src/stm32f4xx_hal_spi.c **** 
 774:Drivers/STM32F4xx_HAL_Driver/Src/stm32f4xx_hal_spi.c ****   /* Check Direction parameter */
 775:Drivers/STM32F4xx_HAL_Driver/Src/stm32f4xx_hal_spi.c ****   assert_param(IS_SPI_DIRECTION_2LINES_OR_1LINE(hspi->Init.Direction));
 776:Drivers/STM32F4xx_HAL_Driver/Src/stm32f4xx_hal_spi.c **** 
 777:Drivers/STM32F4xx_HAL_Driver/Src/stm32f4xx_hal_spi.c ****   /* Init tickstart for timeout management*/
 778:Drivers/STM32F4xx_HAL_Driver/Src/stm32f4xx_hal_spi.c ****   tickstart = HAL_GetTick();
 383              		.loc 1 778 15
 384 0010 FFF7FEFF 		bl	HAL_GetTick
 385 0014 F861     		str	r0, [r7, #28]
 779:Drivers/STM32F4xx_HAL_Driver/Src/stm32f4xx_hal_spi.c ****   initial_TxXferCount = Size;
 386              		.loc 1 779 23
 387 0016 FB88     		ldrh	r3, [r7, #6]	@ movhi
 388 0018 7B83     		strh	r3, [r7, #26]	@ movhi
 780:Drivers/STM32F4xx_HAL_Driver/Src/stm32f4xx_hal_spi.c **** 
 781:Drivers/STM32F4xx_HAL_Driver/Src/stm32f4xx_hal_spi.c ****   if (hspi->State != HAL_SPI_STATE_READY)
 389              		.loc 1 781 11
 390 001a FB68     		ldr	r3, [r7, #12]
 391 001c 93F85130 		ldrb	r3, [r3, #81]
 392 0020 DBB2     		uxtb	r3, r3
 393              		.loc 1 781 6
 394 0022 012B     		cmp	r3, #1
 395 0024 01D0     		beq	.L13
 782:Drivers/STM32F4xx_HAL_Driver/Src/stm32f4xx_hal_spi.c ****   {
 783:Drivers/STM32F4xx_HAL_Driver/Src/stm32f4xx_hal_spi.c ****     return HAL_BUSY;
 396              		.loc 1 783 12
 397 0026 0223     		movs	r3, #2
 398 0028 2AE1     		b	.L14
 399              	.L13:
 784:Drivers/STM32F4xx_HAL_Driver/Src/stm32f4xx_hal_spi.c ****   }
 785:Drivers/STM32F4xx_HAL_Driver/Src/stm32f4xx_hal_spi.c **** 
 786:Drivers/STM32F4xx_HAL_Driver/Src/stm32f4xx_hal_spi.c ****   if ((pData == NULL) || (Size == 0U))
 400              		.loc 1 786 6
 401 002a BB68     		ldr	r3, [r7, #8]
 402 002c 002B     		cmp	r3, #0
 403 002e 02D0     		beq	.L15
 404              		.loc 1 786 23 discriminator 1
 405 0030 FB88     		ldrh	r3, [r7, #6]
 406 0032 002B     		cmp	r3, #0
 407 0034 01D1     		bne	.L16
 408              	.L15:
 787:Drivers/STM32F4xx_HAL_Driver/Src/stm32f4xx_hal_spi.c ****   {
 788:Drivers/STM32F4xx_HAL_Driver/Src/stm32f4xx_hal_spi.c ****     return HAL_ERROR;
 409              		.loc 1 788 12
 410 0036 0123     		movs	r3, #1
 411 0038 22E1     		b	.L14
 412              	.L16:
 789:Drivers/STM32F4xx_HAL_Driver/Src/stm32f4xx_hal_spi.c ****   }
 790:Drivers/STM32F4xx_HAL_Driver/Src/stm32f4xx_hal_spi.c **** 
 791:Drivers/STM32F4xx_HAL_Driver/Src/stm32f4xx_hal_spi.c ****   /* Process Locked */
 792:Drivers/STM32F4xx_HAL_Driver/Src/stm32f4xx_hal_spi.c ****   __HAL_LOCK(hspi);
 413              		.loc 1 792 3
 414 003a FB68     		ldr	r3, [r7, #12]
ARM GAS  C:\Users\16323\AppData\Local\Temp\ccbQ7VoP.s 			page 22


 415 003c 93F85030 		ldrb	r3, [r3, #80]	@ zero_extendqisi2
 416 0040 012B     		cmp	r3, #1
 417 0042 01D1     		bne	.L17
 418              		.loc 1 792 3 is_stmt 0 discriminator 1
 419 0044 0223     		movs	r3, #2
 420 0046 1BE1     		b	.L14
 421              	.L17:
 422              		.loc 1 792 3 discriminator 2
 423 0048 FB68     		ldr	r3, [r7, #12]
 424 004a 0122     		movs	r2, #1
 425 004c 83F85020 		strb	r2, [r3, #80]
 793:Drivers/STM32F4xx_HAL_Driver/Src/stm32f4xx_hal_spi.c **** 
 794:Drivers/STM32F4xx_HAL_Driver/Src/stm32f4xx_hal_spi.c ****   /* Set the transaction information */
 795:Drivers/STM32F4xx_HAL_Driver/Src/stm32f4xx_hal_spi.c ****   hspi->State       = HAL_SPI_STATE_BUSY_TX;
 426              		.loc 1 795 21 is_stmt 1 discriminator 2
 427 0050 FB68     		ldr	r3, [r7, #12]
 428 0052 0322     		movs	r2, #3
 429 0054 83F85120 		strb	r2, [r3, #81]
 796:Drivers/STM32F4xx_HAL_Driver/Src/stm32f4xx_hal_spi.c ****   hspi->ErrorCode   = HAL_SPI_ERROR_NONE;
 430              		.loc 1 796 21 discriminator 2
 431 0058 FB68     		ldr	r3, [r7, #12]
 432 005a 0022     		movs	r2, #0
 433 005c 5A65     		str	r2, [r3, #84]
 797:Drivers/STM32F4xx_HAL_Driver/Src/stm32f4xx_hal_spi.c ****   hspi->pTxBuffPtr  = (const uint8_t *)pData;
 434              		.loc 1 797 21 discriminator 2
 435 005e FB68     		ldr	r3, [r7, #12]
 436 0060 BA68     		ldr	r2, [r7, #8]
 437 0062 1A63     		str	r2, [r3, #48]
 798:Drivers/STM32F4xx_HAL_Driver/Src/stm32f4xx_hal_spi.c ****   hspi->TxXferSize  = Size;
 438              		.loc 1 798 21 discriminator 2
 439 0064 FB68     		ldr	r3, [r7, #12]
 440 0066 FA88     		ldrh	r2, [r7, #6]	@ movhi
 441 0068 9A86     		strh	r2, [r3, #52]	@ movhi
 799:Drivers/STM32F4xx_HAL_Driver/Src/stm32f4xx_hal_spi.c ****   hspi->TxXferCount = Size;
 442              		.loc 1 799 21 discriminator 2
 443 006a FB68     		ldr	r3, [r7, #12]
 444 006c FA88     		ldrh	r2, [r7, #6]	@ movhi
 445 006e DA86     		strh	r2, [r3, #54]	@ movhi
 800:Drivers/STM32F4xx_HAL_Driver/Src/stm32f4xx_hal_spi.c **** 
 801:Drivers/STM32F4xx_HAL_Driver/Src/stm32f4xx_hal_spi.c ****   /*Init field not used in handle to zero */
 802:Drivers/STM32F4xx_HAL_Driver/Src/stm32f4xx_hal_spi.c ****   hspi->pRxBuffPtr  = (uint8_t *)NULL;
 446              		.loc 1 802 21 discriminator 2
 447 0070 FB68     		ldr	r3, [r7, #12]
 448 0072 0022     		movs	r2, #0
 449 0074 9A63     		str	r2, [r3, #56]
 803:Drivers/STM32F4xx_HAL_Driver/Src/stm32f4xx_hal_spi.c ****   hspi->RxXferSize  = 0U;
 450              		.loc 1 803 21 discriminator 2
 451 0076 FB68     		ldr	r3, [r7, #12]
 452 0078 0022     		movs	r2, #0
 453 007a 9A87     		strh	r2, [r3, #60]	@ movhi
 804:Drivers/STM32F4xx_HAL_Driver/Src/stm32f4xx_hal_spi.c ****   hspi->RxXferCount = 0U;
 454              		.loc 1 804 21 discriminator 2
 455 007c FB68     		ldr	r3, [r7, #12]
 456 007e 0022     		movs	r2, #0
 457 0080 DA87     		strh	r2, [r3, #62]	@ movhi
 805:Drivers/STM32F4xx_HAL_Driver/Src/stm32f4xx_hal_spi.c ****   hspi->TxISR       = NULL;
 458              		.loc 1 805 21 discriminator 2
ARM GAS  C:\Users\16323\AppData\Local\Temp\ccbQ7VoP.s 			page 23


 459 0082 FB68     		ldr	r3, [r7, #12]
 460 0084 0022     		movs	r2, #0
 461 0086 5A64     		str	r2, [r3, #68]
 806:Drivers/STM32F4xx_HAL_Driver/Src/stm32f4xx_hal_spi.c ****   hspi->RxISR       = NULL;
 462              		.loc 1 806 21 discriminator 2
 463 0088 FB68     		ldr	r3, [r7, #12]
 464 008a 0022     		movs	r2, #0
 465 008c 1A64     		str	r2, [r3, #64]
 807:Drivers/STM32F4xx_HAL_Driver/Src/stm32f4xx_hal_spi.c **** 
 808:Drivers/STM32F4xx_HAL_Driver/Src/stm32f4xx_hal_spi.c ****   /* Configure communication direction : 1Line */
 809:Drivers/STM32F4xx_HAL_Driver/Src/stm32f4xx_hal_spi.c ****   if (hspi->Init.Direction == SPI_DIRECTION_1LINE)
 466              		.loc 1 809 17 discriminator 2
 467 008e FB68     		ldr	r3, [r7, #12]
 468 0090 9B68     		ldr	r3, [r3, #8]
 469              		.loc 1 809 6 discriminator 2
 470 0092 B3F5004F 		cmp	r3, #32768
 471 0096 0FD1     		bne	.L18
 810:Drivers/STM32F4xx_HAL_Driver/Src/stm32f4xx_hal_spi.c ****   {
 811:Drivers/STM32F4xx_HAL_Driver/Src/stm32f4xx_hal_spi.c ****     /* Disable SPI Peripheral before set 1Line direction (BIDIOE bit) */
 812:Drivers/STM32F4xx_HAL_Driver/Src/stm32f4xx_hal_spi.c ****     __HAL_SPI_DISABLE(hspi);
 472              		.loc 1 812 5
 473 0098 FB68     		ldr	r3, [r7, #12]
 474 009a 1B68     		ldr	r3, [r3]
 475 009c 1A68     		ldr	r2, [r3]
 476 009e FB68     		ldr	r3, [r7, #12]
 477 00a0 1B68     		ldr	r3, [r3]
 478 00a2 22F04002 		bic	r2, r2, #64
 479 00a6 1A60     		str	r2, [r3]
 813:Drivers/STM32F4xx_HAL_Driver/Src/stm32f4xx_hal_spi.c ****     SPI_1LINE_TX(hspi);
 480              		.loc 1 813 5
 481 00a8 FB68     		ldr	r3, [r7, #12]
 482 00aa 1B68     		ldr	r3, [r3]
 483 00ac 1A68     		ldr	r2, [r3]
 484 00ae FB68     		ldr	r3, [r7, #12]
 485 00b0 1B68     		ldr	r3, [r3]
 486 00b2 42F48042 		orr	r2, r2, #16384
 487 00b6 1A60     		str	r2, [r3]
 488              	.L18:
 814:Drivers/STM32F4xx_HAL_Driver/Src/stm32f4xx_hal_spi.c ****   }
 815:Drivers/STM32F4xx_HAL_Driver/Src/stm32f4xx_hal_spi.c **** 
 816:Drivers/STM32F4xx_HAL_Driver/Src/stm32f4xx_hal_spi.c **** #if (USE_SPI_CRC != 0U)
 817:Drivers/STM32F4xx_HAL_Driver/Src/stm32f4xx_hal_spi.c ****   /* Reset CRC Calculation */
 818:Drivers/STM32F4xx_HAL_Driver/Src/stm32f4xx_hal_spi.c ****   if (hspi->Init.CRCCalculation == SPI_CRCCALCULATION_ENABLE)
 819:Drivers/STM32F4xx_HAL_Driver/Src/stm32f4xx_hal_spi.c ****   {
 820:Drivers/STM32F4xx_HAL_Driver/Src/stm32f4xx_hal_spi.c ****     SPI_RESET_CRC(hspi);
 821:Drivers/STM32F4xx_HAL_Driver/Src/stm32f4xx_hal_spi.c ****   }
 822:Drivers/STM32F4xx_HAL_Driver/Src/stm32f4xx_hal_spi.c **** #endif /* USE_SPI_CRC */
 823:Drivers/STM32F4xx_HAL_Driver/Src/stm32f4xx_hal_spi.c **** 
 824:Drivers/STM32F4xx_HAL_Driver/Src/stm32f4xx_hal_spi.c ****   /* Check if the SPI is already enabled */
 825:Drivers/STM32F4xx_HAL_Driver/Src/stm32f4xx_hal_spi.c ****   if ((hspi->Instance->CR1 & SPI_CR1_SPE) != SPI_CR1_SPE)
 489              		.loc 1 825 12
 490 00b8 FB68     		ldr	r3, [r7, #12]
 491 00ba 1B68     		ldr	r3, [r3]
 492              		.loc 1 825 22
 493 00bc 1B68     		ldr	r3, [r3]
 494              		.loc 1 825 28
 495 00be 03F04003 		and	r3, r3, #64
ARM GAS  C:\Users\16323\AppData\Local\Temp\ccbQ7VoP.s 			page 24


 496              		.loc 1 825 6
 497 00c2 402B     		cmp	r3, #64
 498 00c4 07D0     		beq	.L19
 826:Drivers/STM32F4xx_HAL_Driver/Src/stm32f4xx_hal_spi.c ****   {
 827:Drivers/STM32F4xx_HAL_Driver/Src/stm32f4xx_hal_spi.c ****     /* Enable SPI peripheral */
 828:Drivers/STM32F4xx_HAL_Driver/Src/stm32f4xx_hal_spi.c ****     __HAL_SPI_ENABLE(hspi);
 499              		.loc 1 828 5
 500 00c6 FB68     		ldr	r3, [r7, #12]
 501 00c8 1B68     		ldr	r3, [r3]
 502 00ca 1A68     		ldr	r2, [r3]
 503 00cc FB68     		ldr	r3, [r7, #12]
 504 00ce 1B68     		ldr	r3, [r3]
 505 00d0 42F04002 		orr	r2, r2, #64
 506 00d4 1A60     		str	r2, [r3]
 507              	.L19:
 829:Drivers/STM32F4xx_HAL_Driver/Src/stm32f4xx_hal_spi.c ****   }
 830:Drivers/STM32F4xx_HAL_Driver/Src/stm32f4xx_hal_spi.c **** 
 831:Drivers/STM32F4xx_HAL_Driver/Src/stm32f4xx_hal_spi.c ****   /* Transmit data in 16 Bit mode */
 832:Drivers/STM32F4xx_HAL_Driver/Src/stm32f4xx_hal_spi.c ****   if (hspi->Init.DataSize == SPI_DATASIZE_16BIT)
 508              		.loc 1 832 17
 509 00d6 FB68     		ldr	r3, [r7, #12]
 510 00d8 DB68     		ldr	r3, [r3, #12]
 511              		.loc 1 832 6
 512 00da B3F5006F 		cmp	r3, #2048
 513 00de 52D1     		bne	.L20
 833:Drivers/STM32F4xx_HAL_Driver/Src/stm32f4xx_hal_spi.c ****   {
 834:Drivers/STM32F4xx_HAL_Driver/Src/stm32f4xx_hal_spi.c ****     if ((hspi->Init.Mode == SPI_MODE_SLAVE) || (initial_TxXferCount == 0x01U))
 514              		.loc 1 834 20
 515 00e0 FB68     		ldr	r3, [r7, #12]
 516 00e2 5B68     		ldr	r3, [r3, #4]
 517              		.loc 1 834 8
 518 00e4 002B     		cmp	r3, #0
 519 00e6 02D0     		beq	.L21
 520              		.loc 1 834 45 discriminator 1
 521 00e8 7B8B     		ldrh	r3, [r7, #26]
 522 00ea 012B     		cmp	r3, #1
 523 00ec 45D1     		bne	.L23
 524              	.L21:
 835:Drivers/STM32F4xx_HAL_Driver/Src/stm32f4xx_hal_spi.c ****     {
 836:Drivers/STM32F4xx_HAL_Driver/Src/stm32f4xx_hal_spi.c ****       hspi->Instance->DR = *((const uint16_t *)hspi->pTxBuffPtr);
 525              		.loc 1 836 52
 526 00ee FB68     		ldr	r3, [r7, #12]
 527 00f0 1B6B     		ldr	r3, [r3, #48]
 528              		.loc 1 836 28
 529 00f2 1A88     		ldrh	r2, [r3]
 530              		.loc 1 836 11
 531 00f4 FB68     		ldr	r3, [r7, #12]
 532 00f6 1B68     		ldr	r3, [r3]
 533              		.loc 1 836 26
 534 00f8 DA60     		str	r2, [r3, #12]
 837:Drivers/STM32F4xx_HAL_Driver/Src/stm32f4xx_hal_spi.c ****       hspi->pTxBuffPtr += sizeof(uint16_t);
 535              		.loc 1 837 24
 536 00fa FB68     		ldr	r3, [r7, #12]
 537 00fc 1B6B     		ldr	r3, [r3, #48]
 538 00fe 9A1C     		adds	r2, r3, #2
 539 0100 FB68     		ldr	r3, [r7, #12]
 540 0102 1A63     		str	r2, [r3, #48]
ARM GAS  C:\Users\16323\AppData\Local\Temp\ccbQ7VoP.s 			page 25


 838:Drivers/STM32F4xx_HAL_Driver/Src/stm32f4xx_hal_spi.c ****       hspi->TxXferCount--;
 541              		.loc 1 838 11
 542 0104 FB68     		ldr	r3, [r7, #12]
 543 0106 DB8E     		ldrh	r3, [r3, #54]	@ movhi
 544 0108 9BB2     		uxth	r3, r3
 545              		.loc 1 838 24
 546 010a 013B     		subs	r3, r3, #1
 547 010c 9AB2     		uxth	r2, r3
 548 010e FB68     		ldr	r3, [r7, #12]
 549 0110 DA86     		strh	r2, [r3, #54]	@ movhi
 839:Drivers/STM32F4xx_HAL_Driver/Src/stm32f4xx_hal_spi.c ****     }
 840:Drivers/STM32F4xx_HAL_Driver/Src/stm32f4xx_hal_spi.c ****     /* Transmit data in 16 Bit mode */
 841:Drivers/STM32F4xx_HAL_Driver/Src/stm32f4xx_hal_spi.c ****     while (hspi->TxXferCount > 0U)
 550              		.loc 1 841 11
 551 0112 32E0     		b	.L23
 552              	.L27:
 842:Drivers/STM32F4xx_HAL_Driver/Src/stm32f4xx_hal_spi.c ****     {
 843:Drivers/STM32F4xx_HAL_Driver/Src/stm32f4xx_hal_spi.c ****       /* Wait until TXE flag is set to send data */
 844:Drivers/STM32F4xx_HAL_Driver/Src/stm32f4xx_hal_spi.c ****       if (__HAL_SPI_GET_FLAG(hspi, SPI_FLAG_TXE))
 553              		.loc 1 844 11
 554 0114 FB68     		ldr	r3, [r7, #12]
 555 0116 1B68     		ldr	r3, [r3]
 556 0118 9B68     		ldr	r3, [r3, #8]
 557 011a 03F00203 		and	r3, r3, #2
 558              		.loc 1 844 10
 559 011e 022B     		cmp	r3, #2
 560 0120 12D1     		bne	.L24
 845:Drivers/STM32F4xx_HAL_Driver/Src/stm32f4xx_hal_spi.c ****       {
 846:Drivers/STM32F4xx_HAL_Driver/Src/stm32f4xx_hal_spi.c ****         hspi->Instance->DR = *((const uint16_t *)hspi->pTxBuffPtr);
 561              		.loc 1 846 54
 562 0122 FB68     		ldr	r3, [r7, #12]
 563 0124 1B6B     		ldr	r3, [r3, #48]
 564              		.loc 1 846 30
 565 0126 1A88     		ldrh	r2, [r3]
 566              		.loc 1 846 13
 567 0128 FB68     		ldr	r3, [r7, #12]
 568 012a 1B68     		ldr	r3, [r3]
 569              		.loc 1 846 28
 570 012c DA60     		str	r2, [r3, #12]
 847:Drivers/STM32F4xx_HAL_Driver/Src/stm32f4xx_hal_spi.c ****         hspi->pTxBuffPtr += sizeof(uint16_t);
 571              		.loc 1 847 26
 572 012e FB68     		ldr	r3, [r7, #12]
 573 0130 1B6B     		ldr	r3, [r3, #48]
 574 0132 9A1C     		adds	r2, r3, #2
 575 0134 FB68     		ldr	r3, [r7, #12]
 576 0136 1A63     		str	r2, [r3, #48]
 848:Drivers/STM32F4xx_HAL_Driver/Src/stm32f4xx_hal_spi.c ****         hspi->TxXferCount--;
 577              		.loc 1 848 13
 578 0138 FB68     		ldr	r3, [r7, #12]
 579 013a DB8E     		ldrh	r3, [r3, #54]	@ movhi
 580 013c 9BB2     		uxth	r3, r3
 581              		.loc 1 848 26
 582 013e 013B     		subs	r3, r3, #1
 583 0140 9AB2     		uxth	r2, r3
 584 0142 FB68     		ldr	r3, [r7, #12]
 585 0144 DA86     		strh	r2, [r3, #54]	@ movhi
 586 0146 18E0     		b	.L23
ARM GAS  C:\Users\16323\AppData\Local\Temp\ccbQ7VoP.s 			page 26


 587              	.L24:
 849:Drivers/STM32F4xx_HAL_Driver/Src/stm32f4xx_hal_spi.c ****       }
 850:Drivers/STM32F4xx_HAL_Driver/Src/stm32f4xx_hal_spi.c ****       else
 851:Drivers/STM32F4xx_HAL_Driver/Src/stm32f4xx_hal_spi.c ****       {
 852:Drivers/STM32F4xx_HAL_Driver/Src/stm32f4xx_hal_spi.c ****         /* Timeout management */
 853:Drivers/STM32F4xx_HAL_Driver/Src/stm32f4xx_hal_spi.c ****         if ((((HAL_GetTick() - tickstart) >=  Timeout) && (Timeout != HAL_MAX_DELAY)) || (Timeout =
 588              		.loc 1 853 16
 589 0148 FFF7FEFF 		bl	HAL_GetTick
 590 014c 0246     		mov	r2, r0
 591              		.loc 1 853 30
 592 014e FB69     		ldr	r3, [r7, #28]
 593 0150 D31A     		subs	r3, r2, r3
 594              		.loc 1 853 12
 595 0152 3A68     		ldr	r2, [r7]
 596 0154 9A42     		cmp	r2, r3
 597 0156 03D8     		bhi	.L25
 598              		.loc 1 853 56 discriminator 1
 599 0158 3B68     		ldr	r3, [r7]
 600 015a B3F1FF3F 		cmp	r3, #-1
 601 015e 02D1     		bne	.L26
 602              	.L25:
 603              		.loc 1 853 87 discriminator 3
 604 0160 3B68     		ldr	r3, [r7]
 605 0162 002B     		cmp	r3, #0
 606 0164 09D1     		bne	.L23
 607              	.L26:
 854:Drivers/STM32F4xx_HAL_Driver/Src/stm32f4xx_hal_spi.c ****         {
 855:Drivers/STM32F4xx_HAL_Driver/Src/stm32f4xx_hal_spi.c ****           hspi->State = HAL_SPI_STATE_READY;
 608              		.loc 1 855 23
 609 0166 FB68     		ldr	r3, [r7, #12]
 610 0168 0122     		movs	r2, #1
 611 016a 83F85120 		strb	r2, [r3, #81]
 856:Drivers/STM32F4xx_HAL_Driver/Src/stm32f4xx_hal_spi.c ****           __HAL_UNLOCK(hspi);
 612              		.loc 1 856 11
 613 016e FB68     		ldr	r3, [r7, #12]
 614 0170 0022     		movs	r2, #0
 615 0172 83F85020 		strb	r2, [r3, #80]
 857:Drivers/STM32F4xx_HAL_Driver/Src/stm32f4xx_hal_spi.c ****           return HAL_TIMEOUT;
 616              		.loc 1 857 18
 617 0176 0323     		movs	r3, #3
 618 0178 82E0     		b	.L14
 619              	.L23:
 841:Drivers/STM32F4xx_HAL_Driver/Src/stm32f4xx_hal_spi.c ****     {
 620              		.loc 1 841 16
 621 017a FB68     		ldr	r3, [r7, #12]
 622 017c DB8E     		ldrh	r3, [r3, #54]	@ movhi
 623 017e 9BB2     		uxth	r3, r3
 841:Drivers/STM32F4xx_HAL_Driver/Src/stm32f4xx_hal_spi.c ****     {
 624              		.loc 1 841 11
 625 0180 002B     		cmp	r3, #0
 626 0182 C7D1     		bne	.L27
 627 0184 53E0     		b	.L28
 628              	.L20:
 858:Drivers/STM32F4xx_HAL_Driver/Src/stm32f4xx_hal_spi.c ****         }
 859:Drivers/STM32F4xx_HAL_Driver/Src/stm32f4xx_hal_spi.c ****       }
 860:Drivers/STM32F4xx_HAL_Driver/Src/stm32f4xx_hal_spi.c ****     }
 861:Drivers/STM32F4xx_HAL_Driver/Src/stm32f4xx_hal_spi.c ****   }
ARM GAS  C:\Users\16323\AppData\Local\Temp\ccbQ7VoP.s 			page 27


 862:Drivers/STM32F4xx_HAL_Driver/Src/stm32f4xx_hal_spi.c ****   /* Transmit data in 8 Bit mode */
 863:Drivers/STM32F4xx_HAL_Driver/Src/stm32f4xx_hal_spi.c ****   else
 864:Drivers/STM32F4xx_HAL_Driver/Src/stm32f4xx_hal_spi.c ****   {
 865:Drivers/STM32F4xx_HAL_Driver/Src/stm32f4xx_hal_spi.c ****     if ((hspi->Init.Mode == SPI_MODE_SLAVE) || (initial_TxXferCount == 0x01U))
 629              		.loc 1 865 20
 630 0186 FB68     		ldr	r3, [r7, #12]
 631 0188 5B68     		ldr	r3, [r3, #4]
 632              		.loc 1 865 8
 633 018a 002B     		cmp	r3, #0
 634 018c 02D0     		beq	.L29
 635              		.loc 1 865 45 discriminator 1
 636 018e 7B8B     		ldrh	r3, [r7, #26]
 637 0190 012B     		cmp	r3, #1
 638 0192 47D1     		bne	.L31
 639              	.L29:
 866:Drivers/STM32F4xx_HAL_Driver/Src/stm32f4xx_hal_spi.c ****     {
 867:Drivers/STM32F4xx_HAL_Driver/Src/stm32f4xx_hal_spi.c ****       *((__IO uint8_t *)&hspi->Instance->DR) = *((const uint8_t *)hspi->pTxBuffPtr);
 640              		.loc 1 867 71
 641 0194 FB68     		ldr	r3, [r7, #12]
 642 0196 1A6B     		ldr	r2, [r3, #48]
 643              		.loc 1 867 30
 644 0198 FB68     		ldr	r3, [r7, #12]
 645 019a 1B68     		ldr	r3, [r3]
 646              		.loc 1 867 25
 647 019c 0C33     		adds	r3, r3, #12
 648              		.loc 1 867 48
 649 019e 1278     		ldrb	r2, [r2]	@ zero_extendqisi2
 650              		.loc 1 867 46
 651 01a0 1A70     		strb	r2, [r3]
 868:Drivers/STM32F4xx_HAL_Driver/Src/stm32f4xx_hal_spi.c ****       hspi->pTxBuffPtr += sizeof(uint8_t);
 652              		.loc 1 868 24
 653 01a2 FB68     		ldr	r3, [r7, #12]
 654 01a4 1B6B     		ldr	r3, [r3, #48]
 655 01a6 5A1C     		adds	r2, r3, #1
 656 01a8 FB68     		ldr	r3, [r7, #12]
 657 01aa 1A63     		str	r2, [r3, #48]
 869:Drivers/STM32F4xx_HAL_Driver/Src/stm32f4xx_hal_spi.c ****       hspi->TxXferCount--;
 658              		.loc 1 869 11
 659 01ac FB68     		ldr	r3, [r7, #12]
 660 01ae DB8E     		ldrh	r3, [r3, #54]	@ movhi
 661 01b0 9BB2     		uxth	r3, r3
 662              		.loc 1 869 24
 663 01b2 013B     		subs	r3, r3, #1
 664 01b4 9AB2     		uxth	r2, r3
 665 01b6 FB68     		ldr	r3, [r7, #12]
 666 01b8 DA86     		strh	r2, [r3, #54]	@ movhi
 870:Drivers/STM32F4xx_HAL_Driver/Src/stm32f4xx_hal_spi.c ****     }
 871:Drivers/STM32F4xx_HAL_Driver/Src/stm32f4xx_hal_spi.c ****     while (hspi->TxXferCount > 0U)
 667              		.loc 1 871 11
 668 01ba 33E0     		b	.L31
 669              	.L35:
 872:Drivers/STM32F4xx_HAL_Driver/Src/stm32f4xx_hal_spi.c ****     {
 873:Drivers/STM32F4xx_HAL_Driver/Src/stm32f4xx_hal_spi.c ****       /* Wait until TXE flag is set to send data */
 874:Drivers/STM32F4xx_HAL_Driver/Src/stm32f4xx_hal_spi.c ****       if (__HAL_SPI_GET_FLAG(hspi, SPI_FLAG_TXE))
 670              		.loc 1 874 11
 671 01bc FB68     		ldr	r3, [r7, #12]
 672 01be 1B68     		ldr	r3, [r3]
ARM GAS  C:\Users\16323\AppData\Local\Temp\ccbQ7VoP.s 			page 28


 673 01c0 9B68     		ldr	r3, [r3, #8]
 674 01c2 03F00203 		and	r3, r3, #2
 675              		.loc 1 874 10
 676 01c6 022B     		cmp	r3, #2
 677 01c8 13D1     		bne	.L32
 875:Drivers/STM32F4xx_HAL_Driver/Src/stm32f4xx_hal_spi.c ****       {
 876:Drivers/STM32F4xx_HAL_Driver/Src/stm32f4xx_hal_spi.c ****         *((__IO uint8_t *)&hspi->Instance->DR) = *((const uint8_t *)hspi->pTxBuffPtr);
 678              		.loc 1 876 73
 679 01ca FB68     		ldr	r3, [r7, #12]
 680 01cc 1A6B     		ldr	r2, [r3, #48]
 681              		.loc 1 876 32
 682 01ce FB68     		ldr	r3, [r7, #12]
 683 01d0 1B68     		ldr	r3, [r3]
 684              		.loc 1 876 27
 685 01d2 0C33     		adds	r3, r3, #12
 686              		.loc 1 876 50
 687 01d4 1278     		ldrb	r2, [r2]	@ zero_extendqisi2
 688              		.loc 1 876 48
 689 01d6 1A70     		strb	r2, [r3]
 877:Drivers/STM32F4xx_HAL_Driver/Src/stm32f4xx_hal_spi.c ****         hspi->pTxBuffPtr += sizeof(uint8_t);
 690              		.loc 1 877 26
 691 01d8 FB68     		ldr	r3, [r7, #12]
 692 01da 1B6B     		ldr	r3, [r3, #48]
 693 01dc 5A1C     		adds	r2, r3, #1
 694 01de FB68     		ldr	r3, [r7, #12]
 695 01e0 1A63     		str	r2, [r3, #48]
 878:Drivers/STM32F4xx_HAL_Driver/Src/stm32f4xx_hal_spi.c ****         hspi->TxXferCount--;
 696              		.loc 1 878 13
 697 01e2 FB68     		ldr	r3, [r7, #12]
 698 01e4 DB8E     		ldrh	r3, [r3, #54]	@ movhi
 699 01e6 9BB2     		uxth	r3, r3
 700              		.loc 1 878 26
 701 01e8 013B     		subs	r3, r3, #1
 702 01ea 9AB2     		uxth	r2, r3
 703 01ec FB68     		ldr	r3, [r7, #12]
 704 01ee DA86     		strh	r2, [r3, #54]	@ movhi
 705 01f0 18E0     		b	.L31
 706              	.L32:
 879:Drivers/STM32F4xx_HAL_Driver/Src/stm32f4xx_hal_spi.c ****       }
 880:Drivers/STM32F4xx_HAL_Driver/Src/stm32f4xx_hal_spi.c ****       else
 881:Drivers/STM32F4xx_HAL_Driver/Src/stm32f4xx_hal_spi.c ****       {
 882:Drivers/STM32F4xx_HAL_Driver/Src/stm32f4xx_hal_spi.c ****         /* Timeout management */
 883:Drivers/STM32F4xx_HAL_Driver/Src/stm32f4xx_hal_spi.c ****         if ((((HAL_GetTick() - tickstart) >=  Timeout) && (Timeout != HAL_MAX_DELAY)) || (Timeout =
 707              		.loc 1 883 16
 708 01f2 FFF7FEFF 		bl	HAL_GetTick
 709 01f6 0246     		mov	r2, r0
 710              		.loc 1 883 30
 711 01f8 FB69     		ldr	r3, [r7, #28]
 712 01fa D31A     		subs	r3, r2, r3
 713              		.loc 1 883 12
 714 01fc 3A68     		ldr	r2, [r7]
 715 01fe 9A42     		cmp	r2, r3
 716 0200 03D8     		bhi	.L33
 717              		.loc 1 883 56 discriminator 1
 718 0202 3B68     		ldr	r3, [r7]
 719 0204 B3F1FF3F 		cmp	r3, #-1
 720 0208 02D1     		bne	.L34
ARM GAS  C:\Users\16323\AppData\Local\Temp\ccbQ7VoP.s 			page 29


 721              	.L33:
 722              		.loc 1 883 87 discriminator 3
 723 020a 3B68     		ldr	r3, [r7]
 724 020c 002B     		cmp	r3, #0
 725 020e 09D1     		bne	.L31
 726              	.L34:
 884:Drivers/STM32F4xx_HAL_Driver/Src/stm32f4xx_hal_spi.c ****         {
 885:Drivers/STM32F4xx_HAL_Driver/Src/stm32f4xx_hal_spi.c ****           hspi->State = HAL_SPI_STATE_READY;
 727              		.loc 1 885 23
 728 0210 FB68     		ldr	r3, [r7, #12]
 729 0212 0122     		movs	r2, #1
 730 0214 83F85120 		strb	r2, [r3, #81]
 886:Drivers/STM32F4xx_HAL_Driver/Src/stm32f4xx_hal_spi.c ****           __HAL_UNLOCK(hspi);
 731              		.loc 1 886 11
 732 0218 FB68     		ldr	r3, [r7, #12]
 733 021a 0022     		movs	r2, #0
 734 021c 83F85020 		strb	r2, [r3, #80]
 887:Drivers/STM32F4xx_HAL_Driver/Src/stm32f4xx_hal_spi.c ****           return HAL_TIMEOUT;
 735              		.loc 1 887 18
 736 0220 0323     		movs	r3, #3
 737 0222 2DE0     		b	.L14
 738              	.L31:
 871:Drivers/STM32F4xx_HAL_Driver/Src/stm32f4xx_hal_spi.c ****     {
 739              		.loc 1 871 16
 740 0224 FB68     		ldr	r3, [r7, #12]
 741 0226 DB8E     		ldrh	r3, [r3, #54]	@ movhi
 742 0228 9BB2     		uxth	r3, r3
 871:Drivers/STM32F4xx_HAL_Driver/Src/stm32f4xx_hal_spi.c ****     {
 743              		.loc 1 871 11
 744 022a 002B     		cmp	r3, #0
 745 022c C6D1     		bne	.L35
 746              	.L28:
 888:Drivers/STM32F4xx_HAL_Driver/Src/stm32f4xx_hal_spi.c ****         }
 889:Drivers/STM32F4xx_HAL_Driver/Src/stm32f4xx_hal_spi.c ****       }
 890:Drivers/STM32F4xx_HAL_Driver/Src/stm32f4xx_hal_spi.c ****     }
 891:Drivers/STM32F4xx_HAL_Driver/Src/stm32f4xx_hal_spi.c ****   }
 892:Drivers/STM32F4xx_HAL_Driver/Src/stm32f4xx_hal_spi.c **** #if (USE_SPI_CRC != 0U)
 893:Drivers/STM32F4xx_HAL_Driver/Src/stm32f4xx_hal_spi.c ****   /* Enable CRC Transmission */
 894:Drivers/STM32F4xx_HAL_Driver/Src/stm32f4xx_hal_spi.c ****   if (hspi->Init.CRCCalculation == SPI_CRCCALCULATION_ENABLE)
 895:Drivers/STM32F4xx_HAL_Driver/Src/stm32f4xx_hal_spi.c ****   {
 896:Drivers/STM32F4xx_HAL_Driver/Src/stm32f4xx_hal_spi.c ****     SET_BIT(hspi->Instance->CR1, SPI_CR1_CRCNEXT);
 897:Drivers/STM32F4xx_HAL_Driver/Src/stm32f4xx_hal_spi.c ****   }
 898:Drivers/STM32F4xx_HAL_Driver/Src/stm32f4xx_hal_spi.c **** #endif /* USE_SPI_CRC */
 899:Drivers/STM32F4xx_HAL_Driver/Src/stm32f4xx_hal_spi.c **** 
 900:Drivers/STM32F4xx_HAL_Driver/Src/stm32f4xx_hal_spi.c ****   /* Check the end of the transaction */
 901:Drivers/STM32F4xx_HAL_Driver/Src/stm32f4xx_hal_spi.c ****   if (SPI_EndRxTxTransaction(hspi, Timeout, tickstart) != HAL_OK)
 747              		.loc 1 901 7
 748 022e FA69     		ldr	r2, [r7, #28]
 749 0230 3968     		ldr	r1, [r7]
 750 0232 F868     		ldr	r0, [r7, #12]
 751 0234 FFF7FEFF 		bl	SPI_EndRxTxTransaction
 752 0238 0346     		mov	r3, r0
 753              		.loc 1 901 6
 754 023a 002B     		cmp	r3, #0
 755 023c 02D0     		beq	.L36
 902:Drivers/STM32F4xx_HAL_Driver/Src/stm32f4xx_hal_spi.c ****   {
 903:Drivers/STM32F4xx_HAL_Driver/Src/stm32f4xx_hal_spi.c ****     hspi->ErrorCode = HAL_SPI_ERROR_FLAG;
ARM GAS  C:\Users\16323\AppData\Local\Temp\ccbQ7VoP.s 			page 30


 756              		.loc 1 903 21
 757 023e FB68     		ldr	r3, [r7, #12]
 758 0240 2022     		movs	r2, #32
 759 0242 5A65     		str	r2, [r3, #84]
 760              	.L36:
 904:Drivers/STM32F4xx_HAL_Driver/Src/stm32f4xx_hal_spi.c ****   }
 905:Drivers/STM32F4xx_HAL_Driver/Src/stm32f4xx_hal_spi.c **** 
 906:Drivers/STM32F4xx_HAL_Driver/Src/stm32f4xx_hal_spi.c ****   /* Clear overrun flag in 2 Lines communication mode because received is not read */
 907:Drivers/STM32F4xx_HAL_Driver/Src/stm32f4xx_hal_spi.c ****   if (hspi->Init.Direction == SPI_DIRECTION_2LINES)
 761              		.loc 1 907 17
 762 0244 FB68     		ldr	r3, [r7, #12]
 763 0246 9B68     		ldr	r3, [r3, #8]
 764              		.loc 1 907 6
 765 0248 002B     		cmp	r3, #0
 766 024a 0AD1     		bne	.L37
 767              	.LBB2:
 908:Drivers/STM32F4xx_HAL_Driver/Src/stm32f4xx_hal_spi.c ****   {
 909:Drivers/STM32F4xx_HAL_Driver/Src/stm32f4xx_hal_spi.c ****     __HAL_SPI_CLEAR_OVRFLAG(hspi);
 768              		.loc 1 909 5
 769 024c 0023     		movs	r3, #0
 770 024e 7B61     		str	r3, [r7, #20]
 771 0250 FB68     		ldr	r3, [r7, #12]
 772 0252 1B68     		ldr	r3, [r3]
 773 0254 DB68     		ldr	r3, [r3, #12]
 774 0256 7B61     		str	r3, [r7, #20]
 775 0258 FB68     		ldr	r3, [r7, #12]
 776 025a 1B68     		ldr	r3, [r3]
 777 025c 9B68     		ldr	r3, [r3, #8]
 778 025e 7B61     		str	r3, [r7, #20]
 779 0260 7B69     		ldr	r3, [r7, #20]
 780              	.L37:
 781              	.LBE2:
 910:Drivers/STM32F4xx_HAL_Driver/Src/stm32f4xx_hal_spi.c ****   }
 911:Drivers/STM32F4xx_HAL_Driver/Src/stm32f4xx_hal_spi.c **** 
 912:Drivers/STM32F4xx_HAL_Driver/Src/stm32f4xx_hal_spi.c ****   hspi->State = HAL_SPI_STATE_READY;
 782              		.loc 1 912 15
 783 0262 FB68     		ldr	r3, [r7, #12]
 784 0264 0122     		movs	r2, #1
 785 0266 83F85120 		strb	r2, [r3, #81]
 913:Drivers/STM32F4xx_HAL_Driver/Src/stm32f4xx_hal_spi.c ****   /* Process Unlocked */
 914:Drivers/STM32F4xx_HAL_Driver/Src/stm32f4xx_hal_spi.c ****   __HAL_UNLOCK(hspi);
 786              		.loc 1 914 3
 787 026a FB68     		ldr	r3, [r7, #12]
 788 026c 0022     		movs	r2, #0
 789 026e 83F85020 		strb	r2, [r3, #80]
 915:Drivers/STM32F4xx_HAL_Driver/Src/stm32f4xx_hal_spi.c **** 
 916:Drivers/STM32F4xx_HAL_Driver/Src/stm32f4xx_hal_spi.c ****   if (hspi->ErrorCode != HAL_SPI_ERROR_NONE)
 790              		.loc 1 916 11
 791 0272 FB68     		ldr	r3, [r7, #12]
 792 0274 5B6D     		ldr	r3, [r3, #84]
 793              		.loc 1 916 6
 794 0276 002B     		cmp	r3, #0
 795 0278 01D0     		beq	.L38
 917:Drivers/STM32F4xx_HAL_Driver/Src/stm32f4xx_hal_spi.c ****   {
 918:Drivers/STM32F4xx_HAL_Driver/Src/stm32f4xx_hal_spi.c ****     return HAL_ERROR;
 796              		.loc 1 918 12
 797 027a 0123     		movs	r3, #1
ARM GAS  C:\Users\16323\AppData\Local\Temp\ccbQ7VoP.s 			page 31


 798 027c 00E0     		b	.L14
 799              	.L38:
 919:Drivers/STM32F4xx_HAL_Driver/Src/stm32f4xx_hal_spi.c ****   }
 920:Drivers/STM32F4xx_HAL_Driver/Src/stm32f4xx_hal_spi.c ****   else
 921:Drivers/STM32F4xx_HAL_Driver/Src/stm32f4xx_hal_spi.c ****   {
 922:Drivers/STM32F4xx_HAL_Driver/Src/stm32f4xx_hal_spi.c ****     return HAL_OK;
 800              		.loc 1 922 12
 801 027e 0023     		movs	r3, #0
 802              	.L14:
 923:Drivers/STM32F4xx_HAL_Driver/Src/stm32f4xx_hal_spi.c ****   }
 924:Drivers/STM32F4xx_HAL_Driver/Src/stm32f4xx_hal_spi.c **** }
 803              		.loc 1 924 1
 804 0280 1846     		mov	r0, r3
 805 0282 2037     		adds	r7, r7, #32
 806              	.LCFI25:
 807              		.cfi_def_cfa_offset 8
 808 0284 BD46     		mov	sp, r7
 809              	.LCFI26:
 810              		.cfi_def_cfa_register 13
 811              		@ sp needed
 812 0286 80BD     		pop	{r7, pc}
 813              		.cfi_endproc
 814              	.LFE243:
 816              		.section	.text.HAL_SPI_Receive,"ax",%progbits
 817              		.align	1
 818              		.global	HAL_SPI_Receive
 819              		.syntax unified
 820              		.thumb
 821              		.thumb_func
 823              	HAL_SPI_Receive:
 824              	.LFB244:
 925:Drivers/STM32F4xx_HAL_Driver/Src/stm32f4xx_hal_spi.c **** 
 926:Drivers/STM32F4xx_HAL_Driver/Src/stm32f4xx_hal_spi.c **** /**
 927:Drivers/STM32F4xx_HAL_Driver/Src/stm32f4xx_hal_spi.c ****   * @brief  Receive an amount of data in blocking mode.
 928:Drivers/STM32F4xx_HAL_Driver/Src/stm32f4xx_hal_spi.c ****   * @param  hspi pointer to a SPI_HandleTypeDef structure that contains
 929:Drivers/STM32F4xx_HAL_Driver/Src/stm32f4xx_hal_spi.c ****   *               the configuration information for SPI module.
 930:Drivers/STM32F4xx_HAL_Driver/Src/stm32f4xx_hal_spi.c ****   * @param  pData pointer to data buffer
 931:Drivers/STM32F4xx_HAL_Driver/Src/stm32f4xx_hal_spi.c ****   * @param  Size amount of data to be received
 932:Drivers/STM32F4xx_HAL_Driver/Src/stm32f4xx_hal_spi.c ****   * @param  Timeout Timeout duration
 933:Drivers/STM32F4xx_HAL_Driver/Src/stm32f4xx_hal_spi.c ****   * @retval HAL status
 934:Drivers/STM32F4xx_HAL_Driver/Src/stm32f4xx_hal_spi.c ****   */
 935:Drivers/STM32F4xx_HAL_Driver/Src/stm32f4xx_hal_spi.c **** HAL_StatusTypeDef HAL_SPI_Receive(SPI_HandleTypeDef *hspi, uint8_t *pData, uint16_t Size, uint32_t 
 936:Drivers/STM32F4xx_HAL_Driver/Src/stm32f4xx_hal_spi.c **** {
 825              		.loc 1 936 1
 826              		.cfi_startproc
 827              		@ args = 0, pretend = 0, frame = 24
 828              		@ frame_needed = 1, uses_anonymous_args = 0
 829 0000 80B5     		push	{r7, lr}
 830              	.LCFI27:
 831              		.cfi_def_cfa_offset 8
 832              		.cfi_offset 7, -8
 833              		.cfi_offset 14, -4
 834 0002 88B0     		sub	sp, sp, #32
 835              	.LCFI28:
 836              		.cfi_def_cfa_offset 40
 837 0004 02AF     		add	r7, sp, #8
 838              	.LCFI29:
ARM GAS  C:\Users\16323\AppData\Local\Temp\ccbQ7VoP.s 			page 32


 839              		.cfi_def_cfa 7, 32
 840 0006 F860     		str	r0, [r7, #12]
 841 0008 B960     		str	r1, [r7, #8]
 842 000a 3B60     		str	r3, [r7]
 843 000c 1346     		mov	r3, r2	@ movhi
 844 000e FB80     		strh	r3, [r7, #6]	@ movhi
 937:Drivers/STM32F4xx_HAL_Driver/Src/stm32f4xx_hal_spi.c **** #if (USE_SPI_CRC != 0U)
 938:Drivers/STM32F4xx_HAL_Driver/Src/stm32f4xx_hal_spi.c ****   __IO uint32_t tmpreg = 0U;
 939:Drivers/STM32F4xx_HAL_Driver/Src/stm32f4xx_hal_spi.c **** #endif /* USE_SPI_CRC */
 940:Drivers/STM32F4xx_HAL_Driver/Src/stm32f4xx_hal_spi.c ****   uint32_t tickstart;
 941:Drivers/STM32F4xx_HAL_Driver/Src/stm32f4xx_hal_spi.c **** 
 942:Drivers/STM32F4xx_HAL_Driver/Src/stm32f4xx_hal_spi.c ****   if (hspi->State != HAL_SPI_STATE_READY)
 845              		.loc 1 942 11
 846 0010 FB68     		ldr	r3, [r7, #12]
 847 0012 93F85130 		ldrb	r3, [r3, #81]
 848 0016 DBB2     		uxtb	r3, r3
 849              		.loc 1 942 6
 850 0018 012B     		cmp	r3, #1
 851 001a 01D0     		beq	.L40
 943:Drivers/STM32F4xx_HAL_Driver/Src/stm32f4xx_hal_spi.c ****   {
 944:Drivers/STM32F4xx_HAL_Driver/Src/stm32f4xx_hal_spi.c ****     return HAL_BUSY;
 852              		.loc 1 944 12
 853 001c 0223     		movs	r3, #2
 854 001e 04E1     		b	.L41
 855              	.L40:
 945:Drivers/STM32F4xx_HAL_Driver/Src/stm32f4xx_hal_spi.c ****   }
 946:Drivers/STM32F4xx_HAL_Driver/Src/stm32f4xx_hal_spi.c **** 
 947:Drivers/STM32F4xx_HAL_Driver/Src/stm32f4xx_hal_spi.c ****   if ((hspi->Init.Mode == SPI_MODE_MASTER) && (hspi->Init.Direction == SPI_DIRECTION_2LINES))
 856              		.loc 1 947 18
 857 0020 FB68     		ldr	r3, [r7, #12]
 858 0022 5B68     		ldr	r3, [r3, #4]
 859              		.loc 1 947 6
 860 0024 B3F5827F 		cmp	r3, #260
 861 0028 12D1     		bne	.L42
 862              		.loc 1 947 58 discriminator 1
 863 002a FB68     		ldr	r3, [r7, #12]
 864 002c 9B68     		ldr	r3, [r3, #8]
 865              		.loc 1 947 44 discriminator 1
 866 002e 002B     		cmp	r3, #0
 867 0030 0ED1     		bne	.L42
 948:Drivers/STM32F4xx_HAL_Driver/Src/stm32f4xx_hal_spi.c ****   {
 949:Drivers/STM32F4xx_HAL_Driver/Src/stm32f4xx_hal_spi.c ****     hspi->State = HAL_SPI_STATE_BUSY_RX;
 868              		.loc 1 949 17
 869 0032 FB68     		ldr	r3, [r7, #12]
 870 0034 0422     		movs	r2, #4
 871 0036 83F85120 		strb	r2, [r3, #81]
 950:Drivers/STM32F4xx_HAL_Driver/Src/stm32f4xx_hal_spi.c ****     /* Call transmit-receive function to send Dummy data on Tx line and generate clock on CLK line 
 951:Drivers/STM32F4xx_HAL_Driver/Src/stm32f4xx_hal_spi.c ****     return HAL_SPI_TransmitReceive(hspi, pData, pData, Size, Timeout);
 872              		.loc 1 951 12
 873 003a FA88     		ldrh	r2, [r7, #6]
 874 003c 3B68     		ldr	r3, [r7]
 875 003e 0093     		str	r3, [sp]
 876 0040 1346     		mov	r3, r2
 877 0042 BA68     		ldr	r2, [r7, #8]
 878 0044 B968     		ldr	r1, [r7, #8]
 879 0046 F868     		ldr	r0, [r7, #12]
 880 0048 FFF7FEFF 		bl	HAL_SPI_TransmitReceive
ARM GAS  C:\Users\16323\AppData\Local\Temp\ccbQ7VoP.s 			page 33


 881 004c 0346     		mov	r3, r0
 882 004e ECE0     		b	.L41
 883              	.L42:
 952:Drivers/STM32F4xx_HAL_Driver/Src/stm32f4xx_hal_spi.c ****   }
 953:Drivers/STM32F4xx_HAL_Driver/Src/stm32f4xx_hal_spi.c **** 
 954:Drivers/STM32F4xx_HAL_Driver/Src/stm32f4xx_hal_spi.c ****   /* Init tickstart for timeout management*/
 955:Drivers/STM32F4xx_HAL_Driver/Src/stm32f4xx_hal_spi.c ****   tickstart = HAL_GetTick();
 884              		.loc 1 955 15
 885 0050 FFF7FEFF 		bl	HAL_GetTick
 886 0054 7861     		str	r0, [r7, #20]
 956:Drivers/STM32F4xx_HAL_Driver/Src/stm32f4xx_hal_spi.c **** 
 957:Drivers/STM32F4xx_HAL_Driver/Src/stm32f4xx_hal_spi.c ****   if ((pData == NULL) || (Size == 0U))
 887              		.loc 1 957 6
 888 0056 BB68     		ldr	r3, [r7, #8]
 889 0058 002B     		cmp	r3, #0
 890 005a 02D0     		beq	.L43
 891              		.loc 1 957 23 discriminator 1
 892 005c FB88     		ldrh	r3, [r7, #6]
 893 005e 002B     		cmp	r3, #0
 894 0060 01D1     		bne	.L44
 895              	.L43:
 958:Drivers/STM32F4xx_HAL_Driver/Src/stm32f4xx_hal_spi.c ****   {
 959:Drivers/STM32F4xx_HAL_Driver/Src/stm32f4xx_hal_spi.c ****     return HAL_ERROR;
 896              		.loc 1 959 12
 897 0062 0123     		movs	r3, #1
 898 0064 E1E0     		b	.L41
 899              	.L44:
 960:Drivers/STM32F4xx_HAL_Driver/Src/stm32f4xx_hal_spi.c ****   }
 961:Drivers/STM32F4xx_HAL_Driver/Src/stm32f4xx_hal_spi.c **** 
 962:Drivers/STM32F4xx_HAL_Driver/Src/stm32f4xx_hal_spi.c ****   /* Process Locked */
 963:Drivers/STM32F4xx_HAL_Driver/Src/stm32f4xx_hal_spi.c ****   __HAL_LOCK(hspi);
 900              		.loc 1 963 3
 901 0066 FB68     		ldr	r3, [r7, #12]
 902 0068 93F85030 		ldrb	r3, [r3, #80]	@ zero_extendqisi2
 903 006c 012B     		cmp	r3, #1
 904 006e 01D1     		bne	.L45
 905              		.loc 1 963 3 is_stmt 0 discriminator 1
 906 0070 0223     		movs	r3, #2
 907 0072 DAE0     		b	.L41
 908              	.L45:
 909              		.loc 1 963 3 discriminator 2
 910 0074 FB68     		ldr	r3, [r7, #12]
 911 0076 0122     		movs	r2, #1
 912 0078 83F85020 		strb	r2, [r3, #80]
 964:Drivers/STM32F4xx_HAL_Driver/Src/stm32f4xx_hal_spi.c **** 
 965:Drivers/STM32F4xx_HAL_Driver/Src/stm32f4xx_hal_spi.c ****   /* Set the transaction information */
 966:Drivers/STM32F4xx_HAL_Driver/Src/stm32f4xx_hal_spi.c ****   hspi->State       = HAL_SPI_STATE_BUSY_RX;
 913              		.loc 1 966 21 is_stmt 1 discriminator 2
 914 007c FB68     		ldr	r3, [r7, #12]
 915 007e 0422     		movs	r2, #4
 916 0080 83F85120 		strb	r2, [r3, #81]
 967:Drivers/STM32F4xx_HAL_Driver/Src/stm32f4xx_hal_spi.c ****   hspi->ErrorCode   = HAL_SPI_ERROR_NONE;
 917              		.loc 1 967 21 discriminator 2
 918 0084 FB68     		ldr	r3, [r7, #12]
 919 0086 0022     		movs	r2, #0
 920 0088 5A65     		str	r2, [r3, #84]
 968:Drivers/STM32F4xx_HAL_Driver/Src/stm32f4xx_hal_spi.c ****   hspi->pRxBuffPtr  = (uint8_t *)pData;
ARM GAS  C:\Users\16323\AppData\Local\Temp\ccbQ7VoP.s 			page 34


 921              		.loc 1 968 21 discriminator 2
 922 008a FB68     		ldr	r3, [r7, #12]
 923 008c BA68     		ldr	r2, [r7, #8]
 924 008e 9A63     		str	r2, [r3, #56]
 969:Drivers/STM32F4xx_HAL_Driver/Src/stm32f4xx_hal_spi.c ****   hspi->RxXferSize  = Size;
 925              		.loc 1 969 21 discriminator 2
 926 0090 FB68     		ldr	r3, [r7, #12]
 927 0092 FA88     		ldrh	r2, [r7, #6]	@ movhi
 928 0094 9A87     		strh	r2, [r3, #60]	@ movhi
 970:Drivers/STM32F4xx_HAL_Driver/Src/stm32f4xx_hal_spi.c ****   hspi->RxXferCount = Size;
 929              		.loc 1 970 21 discriminator 2
 930 0096 FB68     		ldr	r3, [r7, #12]
 931 0098 FA88     		ldrh	r2, [r7, #6]	@ movhi
 932 009a DA87     		strh	r2, [r3, #62]	@ movhi
 971:Drivers/STM32F4xx_HAL_Driver/Src/stm32f4xx_hal_spi.c **** 
 972:Drivers/STM32F4xx_HAL_Driver/Src/stm32f4xx_hal_spi.c ****   /*Init field not used in handle to zero */
 973:Drivers/STM32F4xx_HAL_Driver/Src/stm32f4xx_hal_spi.c ****   hspi->pTxBuffPtr  = (uint8_t *)NULL;
 933              		.loc 1 973 21 discriminator 2
 934 009c FB68     		ldr	r3, [r7, #12]
 935 009e 0022     		movs	r2, #0
 936 00a0 1A63     		str	r2, [r3, #48]
 974:Drivers/STM32F4xx_HAL_Driver/Src/stm32f4xx_hal_spi.c ****   hspi->TxXferSize  = 0U;
 937              		.loc 1 974 21 discriminator 2
 938 00a2 FB68     		ldr	r3, [r7, #12]
 939 00a4 0022     		movs	r2, #0
 940 00a6 9A86     		strh	r2, [r3, #52]	@ movhi
 975:Drivers/STM32F4xx_HAL_Driver/Src/stm32f4xx_hal_spi.c ****   hspi->TxXferCount = 0U;
 941              		.loc 1 975 21 discriminator 2
 942 00a8 FB68     		ldr	r3, [r7, #12]
 943 00aa 0022     		movs	r2, #0
 944 00ac DA86     		strh	r2, [r3, #54]	@ movhi
 976:Drivers/STM32F4xx_HAL_Driver/Src/stm32f4xx_hal_spi.c ****   hspi->RxISR       = NULL;
 945              		.loc 1 976 21 discriminator 2
 946 00ae FB68     		ldr	r3, [r7, #12]
 947 00b0 0022     		movs	r2, #0
 948 00b2 1A64     		str	r2, [r3, #64]
 977:Drivers/STM32F4xx_HAL_Driver/Src/stm32f4xx_hal_spi.c ****   hspi->TxISR       = NULL;
 949              		.loc 1 977 21 discriminator 2
 950 00b4 FB68     		ldr	r3, [r7, #12]
 951 00b6 0022     		movs	r2, #0
 952 00b8 5A64     		str	r2, [r3, #68]
 978:Drivers/STM32F4xx_HAL_Driver/Src/stm32f4xx_hal_spi.c **** 
 979:Drivers/STM32F4xx_HAL_Driver/Src/stm32f4xx_hal_spi.c **** #if (USE_SPI_CRC != 0U)
 980:Drivers/STM32F4xx_HAL_Driver/Src/stm32f4xx_hal_spi.c ****   /* Reset CRC Calculation */
 981:Drivers/STM32F4xx_HAL_Driver/Src/stm32f4xx_hal_spi.c ****   if (hspi->Init.CRCCalculation == SPI_CRCCALCULATION_ENABLE)
 982:Drivers/STM32F4xx_HAL_Driver/Src/stm32f4xx_hal_spi.c ****   {
 983:Drivers/STM32F4xx_HAL_Driver/Src/stm32f4xx_hal_spi.c ****     SPI_RESET_CRC(hspi);
 984:Drivers/STM32F4xx_HAL_Driver/Src/stm32f4xx_hal_spi.c ****     /* this is done to handle the CRCNEXT before the latest data */
 985:Drivers/STM32F4xx_HAL_Driver/Src/stm32f4xx_hal_spi.c ****     hspi->RxXferCount--;
 986:Drivers/STM32F4xx_HAL_Driver/Src/stm32f4xx_hal_spi.c ****   }
 987:Drivers/STM32F4xx_HAL_Driver/Src/stm32f4xx_hal_spi.c **** #endif /* USE_SPI_CRC */
 988:Drivers/STM32F4xx_HAL_Driver/Src/stm32f4xx_hal_spi.c **** 
 989:Drivers/STM32F4xx_HAL_Driver/Src/stm32f4xx_hal_spi.c ****   /* Configure communication direction: 1Line */
 990:Drivers/STM32F4xx_HAL_Driver/Src/stm32f4xx_hal_spi.c ****   if (hspi->Init.Direction == SPI_DIRECTION_1LINE)
 953              		.loc 1 990 17 discriminator 2
 954 00ba FB68     		ldr	r3, [r7, #12]
 955 00bc 9B68     		ldr	r3, [r3, #8]
ARM GAS  C:\Users\16323\AppData\Local\Temp\ccbQ7VoP.s 			page 35


 956              		.loc 1 990 6 discriminator 2
 957 00be B3F5004F 		cmp	r3, #32768
 958 00c2 0FD1     		bne	.L46
 991:Drivers/STM32F4xx_HAL_Driver/Src/stm32f4xx_hal_spi.c ****   {
 992:Drivers/STM32F4xx_HAL_Driver/Src/stm32f4xx_hal_spi.c ****     /* Disable SPI Peripheral before set 1Line direction (BIDIOE bit) */
 993:Drivers/STM32F4xx_HAL_Driver/Src/stm32f4xx_hal_spi.c ****     __HAL_SPI_DISABLE(hspi);
 959              		.loc 1 993 5
 960 00c4 FB68     		ldr	r3, [r7, #12]
 961 00c6 1B68     		ldr	r3, [r3]
 962 00c8 1A68     		ldr	r2, [r3]
 963 00ca FB68     		ldr	r3, [r7, #12]
 964 00cc 1B68     		ldr	r3, [r3]
 965 00ce 22F04002 		bic	r2, r2, #64
 966 00d2 1A60     		str	r2, [r3]
 994:Drivers/STM32F4xx_HAL_Driver/Src/stm32f4xx_hal_spi.c ****     SPI_1LINE_RX(hspi);
 967              		.loc 1 994 5
 968 00d4 FB68     		ldr	r3, [r7, #12]
 969 00d6 1B68     		ldr	r3, [r3]
 970 00d8 1A68     		ldr	r2, [r3]
 971 00da FB68     		ldr	r3, [r7, #12]
 972 00dc 1B68     		ldr	r3, [r3]
 973 00de 22F48042 		bic	r2, r2, #16384
 974 00e2 1A60     		str	r2, [r3]
 975              	.L46:
 995:Drivers/STM32F4xx_HAL_Driver/Src/stm32f4xx_hal_spi.c ****   }
 996:Drivers/STM32F4xx_HAL_Driver/Src/stm32f4xx_hal_spi.c **** 
 997:Drivers/STM32F4xx_HAL_Driver/Src/stm32f4xx_hal_spi.c ****   /* Check if the SPI is already enabled */
 998:Drivers/STM32F4xx_HAL_Driver/Src/stm32f4xx_hal_spi.c ****   if ((hspi->Instance->CR1 & SPI_CR1_SPE) != SPI_CR1_SPE)
 976              		.loc 1 998 12
 977 00e4 FB68     		ldr	r3, [r7, #12]
 978 00e6 1B68     		ldr	r3, [r3]
 979              		.loc 1 998 22
 980 00e8 1B68     		ldr	r3, [r3]
 981              		.loc 1 998 28
 982 00ea 03F04003 		and	r3, r3, #64
 983              		.loc 1 998 6
 984 00ee 402B     		cmp	r3, #64
 985 00f0 07D0     		beq	.L47
 999:Drivers/STM32F4xx_HAL_Driver/Src/stm32f4xx_hal_spi.c ****   {
1000:Drivers/STM32F4xx_HAL_Driver/Src/stm32f4xx_hal_spi.c ****     /* Enable SPI peripheral */
1001:Drivers/STM32F4xx_HAL_Driver/Src/stm32f4xx_hal_spi.c ****     __HAL_SPI_ENABLE(hspi);
 986              		.loc 1 1001 5
 987 00f2 FB68     		ldr	r3, [r7, #12]
 988 00f4 1B68     		ldr	r3, [r3]
 989 00f6 1A68     		ldr	r2, [r3]
 990 00f8 FB68     		ldr	r3, [r7, #12]
 991 00fa 1B68     		ldr	r3, [r3]
 992 00fc 42F04002 		orr	r2, r2, #64
 993 0100 1A60     		str	r2, [r3]
 994              	.L47:
1002:Drivers/STM32F4xx_HAL_Driver/Src/stm32f4xx_hal_spi.c ****   }
1003:Drivers/STM32F4xx_HAL_Driver/Src/stm32f4xx_hal_spi.c **** 
1004:Drivers/STM32F4xx_HAL_Driver/Src/stm32f4xx_hal_spi.c ****   /* Receive data in 8 Bit mode */
1005:Drivers/STM32F4xx_HAL_Driver/Src/stm32f4xx_hal_spi.c ****   if (hspi->Init.DataSize == SPI_DATASIZE_8BIT)
 995              		.loc 1 1005 17
 996 0102 FB68     		ldr	r3, [r7, #12]
 997 0104 DB68     		ldr	r3, [r3, #12]
ARM GAS  C:\Users\16323\AppData\Local\Temp\ccbQ7VoP.s 			page 36


 998              		.loc 1 1005 6
 999 0106 002B     		cmp	r3, #0
 1000 0108 70D1     		bne	.L55
1006:Drivers/STM32F4xx_HAL_Driver/Src/stm32f4xx_hal_spi.c ****   {
1007:Drivers/STM32F4xx_HAL_Driver/Src/stm32f4xx_hal_spi.c ****     /* Transfer loop */
1008:Drivers/STM32F4xx_HAL_Driver/Src/stm32f4xx_hal_spi.c ****     while (hspi->RxXferCount > 0U)
 1001              		.loc 1 1008 11
 1002 010a 35E0     		b	.L49
 1003              	.L53:
1009:Drivers/STM32F4xx_HAL_Driver/Src/stm32f4xx_hal_spi.c ****     {
1010:Drivers/STM32F4xx_HAL_Driver/Src/stm32f4xx_hal_spi.c ****       /* Check the RXNE flag */
1011:Drivers/STM32F4xx_HAL_Driver/Src/stm32f4xx_hal_spi.c ****       if (__HAL_SPI_GET_FLAG(hspi, SPI_FLAG_RXNE))
 1004              		.loc 1 1011 11
 1005 010c FB68     		ldr	r3, [r7, #12]
 1006 010e 1B68     		ldr	r3, [r3]
 1007 0110 9B68     		ldr	r3, [r3, #8]
 1008 0112 03F00103 		and	r3, r3, #1
 1009              		.loc 1 1011 10
 1010 0116 012B     		cmp	r3, #1
 1011 0118 15D1     		bne	.L50
1012:Drivers/STM32F4xx_HAL_Driver/Src/stm32f4xx_hal_spi.c ****       {
1013:Drivers/STM32F4xx_HAL_Driver/Src/stm32f4xx_hal_spi.c ****         /* read the received data */
1014:Drivers/STM32F4xx_HAL_Driver/Src/stm32f4xx_hal_spi.c ****         (* (uint8_t *)hspi->pRxBuffPtr) = *(__IO uint8_t *)&hspi->Instance->DR;
 1012              		.loc 1 1014 65
 1013 011a FB68     		ldr	r3, [r7, #12]
 1014 011c 1B68     		ldr	r3, [r3]
 1015              		.loc 1 1014 60
 1016 011e 03F10C02 		add	r2, r3, #12
 1017              		.loc 1 1014 27
 1018 0122 FB68     		ldr	r3, [r7, #12]
 1019 0124 9B6B     		ldr	r3, [r3, #56]
 1020              		.loc 1 1014 43
 1021 0126 1278     		ldrb	r2, [r2]
 1022 0128 D2B2     		uxtb	r2, r2
 1023              		.loc 1 1014 41
 1024 012a 1A70     		strb	r2, [r3]
1015:Drivers/STM32F4xx_HAL_Driver/Src/stm32f4xx_hal_spi.c ****         hspi->pRxBuffPtr += sizeof(uint8_t);
 1025              		.loc 1 1015 26
 1026 012c FB68     		ldr	r3, [r7, #12]
 1027 012e 9B6B     		ldr	r3, [r3, #56]
 1028 0130 5A1C     		adds	r2, r3, #1
 1029 0132 FB68     		ldr	r3, [r7, #12]
 1030 0134 9A63     		str	r2, [r3, #56]
1016:Drivers/STM32F4xx_HAL_Driver/Src/stm32f4xx_hal_spi.c ****         hspi->RxXferCount--;
 1031              		.loc 1 1016 13
 1032 0136 FB68     		ldr	r3, [r7, #12]
 1033 0138 DB8F     		ldrh	r3, [r3, #62]	@ movhi
 1034 013a 9BB2     		uxth	r3, r3
 1035              		.loc 1 1016 26
 1036 013c 013B     		subs	r3, r3, #1
 1037 013e 9AB2     		uxth	r2, r3
 1038 0140 FB68     		ldr	r3, [r7, #12]
 1039 0142 DA87     		strh	r2, [r3, #62]	@ movhi
 1040 0144 18E0     		b	.L49
 1041              	.L50:
1017:Drivers/STM32F4xx_HAL_Driver/Src/stm32f4xx_hal_spi.c ****       }
1018:Drivers/STM32F4xx_HAL_Driver/Src/stm32f4xx_hal_spi.c ****       else
ARM GAS  C:\Users\16323\AppData\Local\Temp\ccbQ7VoP.s 			page 37


1019:Drivers/STM32F4xx_HAL_Driver/Src/stm32f4xx_hal_spi.c ****       {
1020:Drivers/STM32F4xx_HAL_Driver/Src/stm32f4xx_hal_spi.c ****         /* Timeout management */
1021:Drivers/STM32F4xx_HAL_Driver/Src/stm32f4xx_hal_spi.c ****         if ((((HAL_GetTick() - tickstart) >=  Timeout) && (Timeout != HAL_MAX_DELAY)) || (Timeout =
 1042              		.loc 1 1021 16
 1043 0146 FFF7FEFF 		bl	HAL_GetTick
 1044 014a 0246     		mov	r2, r0
 1045              		.loc 1 1021 30
 1046 014c 7B69     		ldr	r3, [r7, #20]
 1047 014e D31A     		subs	r3, r2, r3
 1048              		.loc 1 1021 12
 1049 0150 3A68     		ldr	r2, [r7]
 1050 0152 9A42     		cmp	r2, r3
 1051 0154 03D8     		bhi	.L51
 1052              		.loc 1 1021 56 discriminator 1
 1053 0156 3B68     		ldr	r3, [r7]
 1054 0158 B3F1FF3F 		cmp	r3, #-1
 1055 015c 02D1     		bne	.L52
 1056              	.L51:
 1057              		.loc 1 1021 87 discriminator 3
 1058 015e 3B68     		ldr	r3, [r7]
 1059 0160 002B     		cmp	r3, #0
 1060 0162 09D1     		bne	.L49
 1061              	.L52:
1022:Drivers/STM32F4xx_HAL_Driver/Src/stm32f4xx_hal_spi.c ****         {
1023:Drivers/STM32F4xx_HAL_Driver/Src/stm32f4xx_hal_spi.c ****           hspi->State = HAL_SPI_STATE_READY;
 1062              		.loc 1 1023 23
 1063 0164 FB68     		ldr	r3, [r7, #12]
 1064 0166 0122     		movs	r2, #1
 1065 0168 83F85120 		strb	r2, [r3, #81]
1024:Drivers/STM32F4xx_HAL_Driver/Src/stm32f4xx_hal_spi.c ****           __HAL_UNLOCK(hspi);
 1066              		.loc 1 1024 11
 1067 016c FB68     		ldr	r3, [r7, #12]
 1068 016e 0022     		movs	r2, #0
 1069 0170 83F85020 		strb	r2, [r3, #80]
1025:Drivers/STM32F4xx_HAL_Driver/Src/stm32f4xx_hal_spi.c ****           return HAL_TIMEOUT;
 1070              		.loc 1 1025 18
 1071 0174 0323     		movs	r3, #3
 1072 0176 58E0     		b	.L41
 1073              	.L49:
1008:Drivers/STM32F4xx_HAL_Driver/Src/stm32f4xx_hal_spi.c ****     {
 1074              		.loc 1 1008 16
 1075 0178 FB68     		ldr	r3, [r7, #12]
 1076 017a DB8F     		ldrh	r3, [r3, #62]	@ movhi
 1077 017c 9BB2     		uxth	r3, r3
1008:Drivers/STM32F4xx_HAL_Driver/Src/stm32f4xx_hal_spi.c ****     {
 1078              		.loc 1 1008 11
 1079 017e 002B     		cmp	r3, #0
 1080 0180 C4D1     		bne	.L53
 1081 0182 38E0     		b	.L54
 1082              	.L59:
1026:Drivers/STM32F4xx_HAL_Driver/Src/stm32f4xx_hal_spi.c ****         }
1027:Drivers/STM32F4xx_HAL_Driver/Src/stm32f4xx_hal_spi.c ****       }
1028:Drivers/STM32F4xx_HAL_Driver/Src/stm32f4xx_hal_spi.c ****     }
1029:Drivers/STM32F4xx_HAL_Driver/Src/stm32f4xx_hal_spi.c ****   }
1030:Drivers/STM32F4xx_HAL_Driver/Src/stm32f4xx_hal_spi.c ****   else
1031:Drivers/STM32F4xx_HAL_Driver/Src/stm32f4xx_hal_spi.c ****   {
1032:Drivers/STM32F4xx_HAL_Driver/Src/stm32f4xx_hal_spi.c ****     /* Transfer loop */
ARM GAS  C:\Users\16323\AppData\Local\Temp\ccbQ7VoP.s 			page 38


1033:Drivers/STM32F4xx_HAL_Driver/Src/stm32f4xx_hal_spi.c ****     while (hspi->RxXferCount > 0U)
1034:Drivers/STM32F4xx_HAL_Driver/Src/stm32f4xx_hal_spi.c ****     {
1035:Drivers/STM32F4xx_HAL_Driver/Src/stm32f4xx_hal_spi.c ****       /* Check the RXNE flag */
1036:Drivers/STM32F4xx_HAL_Driver/Src/stm32f4xx_hal_spi.c ****       if (__HAL_SPI_GET_FLAG(hspi, SPI_FLAG_RXNE))
 1083              		.loc 1 1036 11
 1084 0184 FB68     		ldr	r3, [r7, #12]
 1085 0186 1B68     		ldr	r3, [r3]
 1086 0188 9B68     		ldr	r3, [r3, #8]
 1087 018a 03F00103 		and	r3, r3, #1
 1088              		.loc 1 1036 10
 1089 018e 012B     		cmp	r3, #1
 1090 0190 13D1     		bne	.L56
1037:Drivers/STM32F4xx_HAL_Driver/Src/stm32f4xx_hal_spi.c ****       {
1038:Drivers/STM32F4xx_HAL_Driver/Src/stm32f4xx_hal_spi.c ****         *((uint16_t *)hspi->pRxBuffPtr) = (uint16_t)hspi->Instance->DR;
 1091              		.loc 1 1038 57
 1092 0192 FB68     		ldr	r3, [r7, #12]
 1093 0194 1B68     		ldr	r3, [r3]
 1094              		.loc 1 1038 67
 1095 0196 DA68     		ldr	r2, [r3, #12]
 1096              		.loc 1 1038 27
 1097 0198 FB68     		ldr	r3, [r7, #12]
 1098 019a 9B6B     		ldr	r3, [r3, #56]
 1099              		.loc 1 1038 43
 1100 019c 92B2     		uxth	r2, r2
 1101              		.loc 1 1038 41
 1102 019e 1A80     		strh	r2, [r3]	@ movhi
1039:Drivers/STM32F4xx_HAL_Driver/Src/stm32f4xx_hal_spi.c ****         hspi->pRxBuffPtr += sizeof(uint16_t);
 1103              		.loc 1 1039 26
 1104 01a0 FB68     		ldr	r3, [r7, #12]
 1105 01a2 9B6B     		ldr	r3, [r3, #56]
 1106 01a4 9A1C     		adds	r2, r3, #2
 1107 01a6 FB68     		ldr	r3, [r7, #12]
 1108 01a8 9A63     		str	r2, [r3, #56]
1040:Drivers/STM32F4xx_HAL_Driver/Src/stm32f4xx_hal_spi.c ****         hspi->RxXferCount--;
 1109              		.loc 1 1040 13
 1110 01aa FB68     		ldr	r3, [r7, #12]
 1111 01ac DB8F     		ldrh	r3, [r3, #62]	@ movhi
 1112 01ae 9BB2     		uxth	r3, r3
 1113              		.loc 1 1040 26
 1114 01b0 013B     		subs	r3, r3, #1
 1115 01b2 9AB2     		uxth	r2, r3
 1116 01b4 FB68     		ldr	r3, [r7, #12]
 1117 01b6 DA87     		strh	r2, [r3, #62]	@ movhi
 1118 01b8 18E0     		b	.L55
 1119              	.L56:
1041:Drivers/STM32F4xx_HAL_Driver/Src/stm32f4xx_hal_spi.c ****       }
1042:Drivers/STM32F4xx_HAL_Driver/Src/stm32f4xx_hal_spi.c ****       else
1043:Drivers/STM32F4xx_HAL_Driver/Src/stm32f4xx_hal_spi.c ****       {
1044:Drivers/STM32F4xx_HAL_Driver/Src/stm32f4xx_hal_spi.c ****         /* Timeout management */
1045:Drivers/STM32F4xx_HAL_Driver/Src/stm32f4xx_hal_spi.c ****         if ((((HAL_GetTick() - tickstart) >=  Timeout) && (Timeout != HAL_MAX_DELAY)) || (Timeout =
 1120              		.loc 1 1045 16
 1121 01ba FFF7FEFF 		bl	HAL_GetTick
 1122 01be 0246     		mov	r2, r0
 1123              		.loc 1 1045 30
 1124 01c0 7B69     		ldr	r3, [r7, #20]
 1125 01c2 D31A     		subs	r3, r2, r3
 1126              		.loc 1 1045 12
ARM GAS  C:\Users\16323\AppData\Local\Temp\ccbQ7VoP.s 			page 39


 1127 01c4 3A68     		ldr	r2, [r7]
 1128 01c6 9A42     		cmp	r2, r3
 1129 01c8 03D8     		bhi	.L57
 1130              		.loc 1 1045 56 discriminator 1
 1131 01ca 3B68     		ldr	r3, [r7]
 1132 01cc B3F1FF3F 		cmp	r3, #-1
 1133 01d0 02D1     		bne	.L58
 1134              	.L57:
 1135              		.loc 1 1045 87 discriminator 3
 1136 01d2 3B68     		ldr	r3, [r7]
 1137 01d4 002B     		cmp	r3, #0
 1138 01d6 09D1     		bne	.L55
 1139              	.L58:
1046:Drivers/STM32F4xx_HAL_Driver/Src/stm32f4xx_hal_spi.c ****         {
1047:Drivers/STM32F4xx_HAL_Driver/Src/stm32f4xx_hal_spi.c ****           hspi->State = HAL_SPI_STATE_READY;
 1140              		.loc 1 1047 23
 1141 01d8 FB68     		ldr	r3, [r7, #12]
 1142 01da 0122     		movs	r2, #1
 1143 01dc 83F85120 		strb	r2, [r3, #81]
1048:Drivers/STM32F4xx_HAL_Driver/Src/stm32f4xx_hal_spi.c ****           __HAL_UNLOCK(hspi);
 1144              		.loc 1 1048 11
 1145 01e0 FB68     		ldr	r3, [r7, #12]
 1146 01e2 0022     		movs	r2, #0
 1147 01e4 83F85020 		strb	r2, [r3, #80]
1049:Drivers/STM32F4xx_HAL_Driver/Src/stm32f4xx_hal_spi.c ****           return HAL_TIMEOUT;
 1148              		.loc 1 1049 18
 1149 01e8 0323     		movs	r3, #3
 1150 01ea 1EE0     		b	.L41
 1151              	.L55:
1033:Drivers/STM32F4xx_HAL_Driver/Src/stm32f4xx_hal_spi.c ****     {
 1152              		.loc 1 1033 16
 1153 01ec FB68     		ldr	r3, [r7, #12]
 1154 01ee DB8F     		ldrh	r3, [r3, #62]	@ movhi
 1155 01f0 9BB2     		uxth	r3, r3
1033:Drivers/STM32F4xx_HAL_Driver/Src/stm32f4xx_hal_spi.c ****     {
 1156              		.loc 1 1033 11
 1157 01f2 002B     		cmp	r3, #0
 1158 01f4 C6D1     		bne	.L59
 1159              	.L54:
1050:Drivers/STM32F4xx_HAL_Driver/Src/stm32f4xx_hal_spi.c ****         }
1051:Drivers/STM32F4xx_HAL_Driver/Src/stm32f4xx_hal_spi.c ****       }
1052:Drivers/STM32F4xx_HAL_Driver/Src/stm32f4xx_hal_spi.c ****     }
1053:Drivers/STM32F4xx_HAL_Driver/Src/stm32f4xx_hal_spi.c ****   }
1054:Drivers/STM32F4xx_HAL_Driver/Src/stm32f4xx_hal_spi.c **** 
1055:Drivers/STM32F4xx_HAL_Driver/Src/stm32f4xx_hal_spi.c **** #if (USE_SPI_CRC != 0U)
1056:Drivers/STM32F4xx_HAL_Driver/Src/stm32f4xx_hal_spi.c ****   /* Handle the CRC Transmission */
1057:Drivers/STM32F4xx_HAL_Driver/Src/stm32f4xx_hal_spi.c ****   if (hspi->Init.CRCCalculation == SPI_CRCCALCULATION_ENABLE)
1058:Drivers/STM32F4xx_HAL_Driver/Src/stm32f4xx_hal_spi.c ****   {
1059:Drivers/STM32F4xx_HAL_Driver/Src/stm32f4xx_hal_spi.c ****     /* freeze the CRC before the latest data */
1060:Drivers/STM32F4xx_HAL_Driver/Src/stm32f4xx_hal_spi.c ****     SET_BIT(hspi->Instance->CR1, SPI_CR1_CRCNEXT);
1061:Drivers/STM32F4xx_HAL_Driver/Src/stm32f4xx_hal_spi.c **** 
1062:Drivers/STM32F4xx_HAL_Driver/Src/stm32f4xx_hal_spi.c ****     /* Read the latest data */
1063:Drivers/STM32F4xx_HAL_Driver/Src/stm32f4xx_hal_spi.c ****     if (SPI_WaitFlagStateUntilTimeout(hspi, SPI_FLAG_RXNE, SET, Timeout, tickstart) != HAL_OK)
1064:Drivers/STM32F4xx_HAL_Driver/Src/stm32f4xx_hal_spi.c ****     {
1065:Drivers/STM32F4xx_HAL_Driver/Src/stm32f4xx_hal_spi.c ****       /* the latest data has not been received */
1066:Drivers/STM32F4xx_HAL_Driver/Src/stm32f4xx_hal_spi.c ****       __HAL_UNLOCK(hspi);
1067:Drivers/STM32F4xx_HAL_Driver/Src/stm32f4xx_hal_spi.c ****       return HAL_TIMEOUT;
ARM GAS  C:\Users\16323\AppData\Local\Temp\ccbQ7VoP.s 			page 40


1068:Drivers/STM32F4xx_HAL_Driver/Src/stm32f4xx_hal_spi.c ****     }
1069:Drivers/STM32F4xx_HAL_Driver/Src/stm32f4xx_hal_spi.c **** 
1070:Drivers/STM32F4xx_HAL_Driver/Src/stm32f4xx_hal_spi.c ****     /* Receive last data in 16 Bit mode */
1071:Drivers/STM32F4xx_HAL_Driver/Src/stm32f4xx_hal_spi.c ****     if (hspi->Init.DataSize == SPI_DATASIZE_16BIT)
1072:Drivers/STM32F4xx_HAL_Driver/Src/stm32f4xx_hal_spi.c ****     {
1073:Drivers/STM32F4xx_HAL_Driver/Src/stm32f4xx_hal_spi.c ****       *((uint16_t *)hspi->pRxBuffPtr) = (uint16_t)hspi->Instance->DR;
1074:Drivers/STM32F4xx_HAL_Driver/Src/stm32f4xx_hal_spi.c ****     }
1075:Drivers/STM32F4xx_HAL_Driver/Src/stm32f4xx_hal_spi.c ****     /* Receive last data in 8 Bit mode */
1076:Drivers/STM32F4xx_HAL_Driver/Src/stm32f4xx_hal_spi.c ****     else
1077:Drivers/STM32F4xx_HAL_Driver/Src/stm32f4xx_hal_spi.c ****     {
1078:Drivers/STM32F4xx_HAL_Driver/Src/stm32f4xx_hal_spi.c ****       (*(uint8_t *)hspi->pRxBuffPtr) = *(__IO uint8_t *)&hspi->Instance->DR;
1079:Drivers/STM32F4xx_HAL_Driver/Src/stm32f4xx_hal_spi.c ****     }
1080:Drivers/STM32F4xx_HAL_Driver/Src/stm32f4xx_hal_spi.c **** 
1081:Drivers/STM32F4xx_HAL_Driver/Src/stm32f4xx_hal_spi.c ****     /* Wait the CRC data */
1082:Drivers/STM32F4xx_HAL_Driver/Src/stm32f4xx_hal_spi.c ****     if (SPI_WaitFlagStateUntilTimeout(hspi, SPI_FLAG_RXNE, SET, Timeout, tickstart) != HAL_OK)
1083:Drivers/STM32F4xx_HAL_Driver/Src/stm32f4xx_hal_spi.c ****     {
1084:Drivers/STM32F4xx_HAL_Driver/Src/stm32f4xx_hal_spi.c ****       SET_BIT(hspi->ErrorCode, HAL_SPI_ERROR_CRC);
1085:Drivers/STM32F4xx_HAL_Driver/Src/stm32f4xx_hal_spi.c ****       hspi->State = HAL_SPI_STATE_READY;
1086:Drivers/STM32F4xx_HAL_Driver/Src/stm32f4xx_hal_spi.c ****       __HAL_UNLOCK(hspi);
1087:Drivers/STM32F4xx_HAL_Driver/Src/stm32f4xx_hal_spi.c ****       return HAL_TIMEOUT;
1088:Drivers/STM32F4xx_HAL_Driver/Src/stm32f4xx_hal_spi.c ****     }
1089:Drivers/STM32F4xx_HAL_Driver/Src/stm32f4xx_hal_spi.c **** 
1090:Drivers/STM32F4xx_HAL_Driver/Src/stm32f4xx_hal_spi.c ****     /* Read CRC to Flush DR and RXNE flag */
1091:Drivers/STM32F4xx_HAL_Driver/Src/stm32f4xx_hal_spi.c ****     tmpreg = READ_REG(hspi->Instance->DR);
1092:Drivers/STM32F4xx_HAL_Driver/Src/stm32f4xx_hal_spi.c ****     /* To avoid GCC warning */
1093:Drivers/STM32F4xx_HAL_Driver/Src/stm32f4xx_hal_spi.c ****     UNUSED(tmpreg);
1094:Drivers/STM32F4xx_HAL_Driver/Src/stm32f4xx_hal_spi.c ****   }
1095:Drivers/STM32F4xx_HAL_Driver/Src/stm32f4xx_hal_spi.c **** #endif /* USE_SPI_CRC */
1096:Drivers/STM32F4xx_HAL_Driver/Src/stm32f4xx_hal_spi.c **** 
1097:Drivers/STM32F4xx_HAL_Driver/Src/stm32f4xx_hal_spi.c ****   /* Check the end of the transaction */
1098:Drivers/STM32F4xx_HAL_Driver/Src/stm32f4xx_hal_spi.c ****   if (SPI_EndRxTransaction(hspi, Timeout, tickstart) != HAL_OK)
 1160              		.loc 1 1098 7
 1161 01f6 7A69     		ldr	r2, [r7, #20]
 1162 01f8 3968     		ldr	r1, [r7]
 1163 01fa F868     		ldr	r0, [r7, #12]
 1164 01fc FFF7FEFF 		bl	SPI_EndRxTransaction
 1165 0200 0346     		mov	r3, r0
 1166              		.loc 1 1098 6
 1167 0202 002B     		cmp	r3, #0
 1168 0204 02D0     		beq	.L60
1099:Drivers/STM32F4xx_HAL_Driver/Src/stm32f4xx_hal_spi.c ****   {
1100:Drivers/STM32F4xx_HAL_Driver/Src/stm32f4xx_hal_spi.c ****     hspi->ErrorCode = HAL_SPI_ERROR_FLAG;
 1169              		.loc 1 1100 21
 1170 0206 FB68     		ldr	r3, [r7, #12]
 1171 0208 2022     		movs	r2, #32
 1172 020a 5A65     		str	r2, [r3, #84]
 1173              	.L60:
1101:Drivers/STM32F4xx_HAL_Driver/Src/stm32f4xx_hal_spi.c ****   }
1102:Drivers/STM32F4xx_HAL_Driver/Src/stm32f4xx_hal_spi.c **** 
1103:Drivers/STM32F4xx_HAL_Driver/Src/stm32f4xx_hal_spi.c **** #if (USE_SPI_CRC != 0U)
1104:Drivers/STM32F4xx_HAL_Driver/Src/stm32f4xx_hal_spi.c ****   /* Check if CRC error occurred */
1105:Drivers/STM32F4xx_HAL_Driver/Src/stm32f4xx_hal_spi.c ****   if (__HAL_SPI_GET_FLAG(hspi, SPI_FLAG_CRCERR))
1106:Drivers/STM32F4xx_HAL_Driver/Src/stm32f4xx_hal_spi.c ****   {
1107:Drivers/STM32F4xx_HAL_Driver/Src/stm32f4xx_hal_spi.c ****     SET_BIT(hspi->ErrorCode, HAL_SPI_ERROR_CRC);
1108:Drivers/STM32F4xx_HAL_Driver/Src/stm32f4xx_hal_spi.c ****     __HAL_SPI_CLEAR_CRCERRFLAG(hspi);
1109:Drivers/STM32F4xx_HAL_Driver/Src/stm32f4xx_hal_spi.c ****   }
1110:Drivers/STM32F4xx_HAL_Driver/Src/stm32f4xx_hal_spi.c **** #endif /* USE_SPI_CRC */
ARM GAS  C:\Users\16323\AppData\Local\Temp\ccbQ7VoP.s 			page 41


1111:Drivers/STM32F4xx_HAL_Driver/Src/stm32f4xx_hal_spi.c **** 
1112:Drivers/STM32F4xx_HAL_Driver/Src/stm32f4xx_hal_spi.c ****   hspi->State = HAL_SPI_STATE_READY;
 1174              		.loc 1 1112 15
 1175 020c FB68     		ldr	r3, [r7, #12]
 1176 020e 0122     		movs	r2, #1
 1177 0210 83F85120 		strb	r2, [r3, #81]
1113:Drivers/STM32F4xx_HAL_Driver/Src/stm32f4xx_hal_spi.c ****   /* Unlock the process */
1114:Drivers/STM32F4xx_HAL_Driver/Src/stm32f4xx_hal_spi.c ****   __HAL_UNLOCK(hspi);
 1178              		.loc 1 1114 3
 1179 0214 FB68     		ldr	r3, [r7, #12]
 1180 0216 0022     		movs	r2, #0
 1181 0218 83F85020 		strb	r2, [r3, #80]
1115:Drivers/STM32F4xx_HAL_Driver/Src/stm32f4xx_hal_spi.c ****   if (hspi->ErrorCode != HAL_SPI_ERROR_NONE)
 1182              		.loc 1 1115 11
 1183 021c FB68     		ldr	r3, [r7, #12]
 1184 021e 5B6D     		ldr	r3, [r3, #84]
 1185              		.loc 1 1115 6
 1186 0220 002B     		cmp	r3, #0
 1187 0222 01D0     		beq	.L61
1116:Drivers/STM32F4xx_HAL_Driver/Src/stm32f4xx_hal_spi.c ****   {
1117:Drivers/STM32F4xx_HAL_Driver/Src/stm32f4xx_hal_spi.c ****     return HAL_ERROR;
 1188              		.loc 1 1117 12
 1189 0224 0123     		movs	r3, #1
 1190 0226 00E0     		b	.L41
 1191              	.L61:
1118:Drivers/STM32F4xx_HAL_Driver/Src/stm32f4xx_hal_spi.c ****   }
1119:Drivers/STM32F4xx_HAL_Driver/Src/stm32f4xx_hal_spi.c ****   else
1120:Drivers/STM32F4xx_HAL_Driver/Src/stm32f4xx_hal_spi.c ****   {
1121:Drivers/STM32F4xx_HAL_Driver/Src/stm32f4xx_hal_spi.c ****     return HAL_OK;
 1192              		.loc 1 1121 12
 1193 0228 0023     		movs	r3, #0
 1194              	.L41:
1122:Drivers/STM32F4xx_HAL_Driver/Src/stm32f4xx_hal_spi.c ****   }
1123:Drivers/STM32F4xx_HAL_Driver/Src/stm32f4xx_hal_spi.c **** }
 1195              		.loc 1 1123 1
 1196 022a 1846     		mov	r0, r3
 1197 022c 1837     		adds	r7, r7, #24
 1198              	.LCFI30:
 1199              		.cfi_def_cfa_offset 8
 1200 022e BD46     		mov	sp, r7
 1201              	.LCFI31:
 1202              		.cfi_def_cfa_register 13
 1203              		@ sp needed
 1204 0230 80BD     		pop	{r7, pc}
 1205              		.cfi_endproc
 1206              	.LFE244:
 1208              		.section	.text.HAL_SPI_TransmitReceive,"ax",%progbits
 1209              		.align	1
 1210              		.global	HAL_SPI_TransmitReceive
 1211              		.syntax unified
 1212              		.thumb
 1213              		.thumb_func
 1215              	HAL_SPI_TransmitReceive:
 1216              	.LFB245:
1124:Drivers/STM32F4xx_HAL_Driver/Src/stm32f4xx_hal_spi.c **** 
1125:Drivers/STM32F4xx_HAL_Driver/Src/stm32f4xx_hal_spi.c **** /**
1126:Drivers/STM32F4xx_HAL_Driver/Src/stm32f4xx_hal_spi.c ****   * @brief  Transmit and Receive an amount of data in blocking mode.
ARM GAS  C:\Users\16323\AppData\Local\Temp\ccbQ7VoP.s 			page 42


1127:Drivers/STM32F4xx_HAL_Driver/Src/stm32f4xx_hal_spi.c ****   * @param  hspi pointer to a SPI_HandleTypeDef structure that contains
1128:Drivers/STM32F4xx_HAL_Driver/Src/stm32f4xx_hal_spi.c ****   *               the configuration information for SPI module.
1129:Drivers/STM32F4xx_HAL_Driver/Src/stm32f4xx_hal_spi.c ****   * @param  pTxData pointer to transmission data buffer
1130:Drivers/STM32F4xx_HAL_Driver/Src/stm32f4xx_hal_spi.c ****   * @param  pRxData pointer to reception data buffer
1131:Drivers/STM32F4xx_HAL_Driver/Src/stm32f4xx_hal_spi.c ****   * @param  Size amount of data to be sent and received
1132:Drivers/STM32F4xx_HAL_Driver/Src/stm32f4xx_hal_spi.c ****   * @param  Timeout Timeout duration
1133:Drivers/STM32F4xx_HAL_Driver/Src/stm32f4xx_hal_spi.c ****   * @retval HAL status
1134:Drivers/STM32F4xx_HAL_Driver/Src/stm32f4xx_hal_spi.c ****   */
1135:Drivers/STM32F4xx_HAL_Driver/Src/stm32f4xx_hal_spi.c **** HAL_StatusTypeDef HAL_SPI_TransmitReceive(SPI_HandleTypeDef *hspi, const uint8_t *pTxData, uint8_t 
1136:Drivers/STM32F4xx_HAL_Driver/Src/stm32f4xx_hal_spi.c ****                                           uint16_t Size, uint32_t Timeout)
1137:Drivers/STM32F4xx_HAL_Driver/Src/stm32f4xx_hal_spi.c **** {
 1217              		.loc 1 1137 1
 1218              		.cfi_startproc
 1219              		@ args = 4, pretend = 0, frame = 40
 1220              		@ frame_needed = 1, uses_anonymous_args = 0
 1221 0000 80B5     		push	{r7, lr}
 1222              	.LCFI32:
 1223              		.cfi_def_cfa_offset 8
 1224              		.cfi_offset 7, -8
 1225              		.cfi_offset 14, -4
 1226 0002 8AB0     		sub	sp, sp, #40
 1227              	.LCFI33:
 1228              		.cfi_def_cfa_offset 48
 1229 0004 00AF     		add	r7, sp, #0
 1230              	.LCFI34:
 1231              		.cfi_def_cfa_register 7
 1232 0006 F860     		str	r0, [r7, #12]
 1233 0008 B960     		str	r1, [r7, #8]
 1234 000a 7A60     		str	r2, [r7, #4]
 1235 000c 7B80     		strh	r3, [r7, #2]	@ movhi
1138:Drivers/STM32F4xx_HAL_Driver/Src/stm32f4xx_hal_spi.c ****   uint16_t             initial_TxXferCount;
1139:Drivers/STM32F4xx_HAL_Driver/Src/stm32f4xx_hal_spi.c ****   uint32_t             tmp_mode;
1140:Drivers/STM32F4xx_HAL_Driver/Src/stm32f4xx_hal_spi.c ****   HAL_SPI_StateTypeDef tmp_state;
1141:Drivers/STM32F4xx_HAL_Driver/Src/stm32f4xx_hal_spi.c ****   uint32_t             tickstart;
1142:Drivers/STM32F4xx_HAL_Driver/Src/stm32f4xx_hal_spi.c **** #if (USE_SPI_CRC != 0U)
1143:Drivers/STM32F4xx_HAL_Driver/Src/stm32f4xx_hal_spi.c ****   __IO uint32_t tmpreg = 0U;
1144:Drivers/STM32F4xx_HAL_Driver/Src/stm32f4xx_hal_spi.c **** #endif /* USE_SPI_CRC */
1145:Drivers/STM32F4xx_HAL_Driver/Src/stm32f4xx_hal_spi.c **** 
1146:Drivers/STM32F4xx_HAL_Driver/Src/stm32f4xx_hal_spi.c ****   /* Variable used to alternate Rx and Tx during transfer */
1147:Drivers/STM32F4xx_HAL_Driver/Src/stm32f4xx_hal_spi.c ****   uint32_t             txallowed = 1U;
 1236              		.loc 1 1147 24
 1237 000e 0123     		movs	r3, #1
 1238 0010 7B62     		str	r3, [r7, #36]
1148:Drivers/STM32F4xx_HAL_Driver/Src/stm32f4xx_hal_spi.c **** 
1149:Drivers/STM32F4xx_HAL_Driver/Src/stm32f4xx_hal_spi.c ****   /* Check Direction parameter */
1150:Drivers/STM32F4xx_HAL_Driver/Src/stm32f4xx_hal_spi.c ****   assert_param(IS_SPI_DIRECTION_2LINES(hspi->Init.Direction));
1151:Drivers/STM32F4xx_HAL_Driver/Src/stm32f4xx_hal_spi.c **** 
1152:Drivers/STM32F4xx_HAL_Driver/Src/stm32f4xx_hal_spi.c ****   /* Init tickstart for timeout management*/
1153:Drivers/STM32F4xx_HAL_Driver/Src/stm32f4xx_hal_spi.c ****   tickstart = HAL_GetTick();
 1239              		.loc 1 1153 15
 1240 0012 FFF7FEFF 		bl	HAL_GetTick
 1241 0016 3862     		str	r0, [r7, #32]
1154:Drivers/STM32F4xx_HAL_Driver/Src/stm32f4xx_hal_spi.c **** 
1155:Drivers/STM32F4xx_HAL_Driver/Src/stm32f4xx_hal_spi.c ****   /* Init temporary variables */
1156:Drivers/STM32F4xx_HAL_Driver/Src/stm32f4xx_hal_spi.c ****   tmp_state           = hspi->State;
 1242              		.loc 1 1156 23
 1243 0018 FB68     		ldr	r3, [r7, #12]
ARM GAS  C:\Users\16323\AppData\Local\Temp\ccbQ7VoP.s 			page 43


 1244 001a 93F85130 		ldrb	r3, [r3, #81]
 1245 001e FB77     		strb	r3, [r7, #31]
1157:Drivers/STM32F4xx_HAL_Driver/Src/stm32f4xx_hal_spi.c ****   tmp_mode            = hspi->Init.Mode;
 1246              		.loc 1 1157 23
 1247 0020 FB68     		ldr	r3, [r7, #12]
 1248 0022 5B68     		ldr	r3, [r3, #4]
 1249 0024 BB61     		str	r3, [r7, #24]
1158:Drivers/STM32F4xx_HAL_Driver/Src/stm32f4xx_hal_spi.c ****   initial_TxXferCount = Size;
 1250              		.loc 1 1158 23
 1251 0026 7B88     		ldrh	r3, [r7, #2]	@ movhi
 1252 0028 FB82     		strh	r3, [r7, #22]	@ movhi
1159:Drivers/STM32F4xx_HAL_Driver/Src/stm32f4xx_hal_spi.c **** 
1160:Drivers/STM32F4xx_HAL_Driver/Src/stm32f4xx_hal_spi.c ****   if (!((tmp_state == HAL_SPI_STATE_READY) || \
 1253              		.loc 1 1160 6
 1254 002a FB7F     		ldrb	r3, [r7, #31]	@ zero_extendqisi2
 1255 002c 012B     		cmp	r3, #1
 1256 002e 0CD0     		beq	.L63
 1257              		.loc 1 1160 7 discriminator 1
 1258 0030 BB69     		ldr	r3, [r7, #24]
 1259 0032 B3F5827F 		cmp	r3, #260
 1260 0036 06D1     		bne	.L64
1161:Drivers/STM32F4xx_HAL_Driver/Src/stm32f4xx_hal_spi.c ****         ((tmp_mode == SPI_MODE_MASTER) && (hspi->Init.Direction == SPI_DIRECTION_2LINES) && (tmp_st
 1261              		.loc 1 1161 54
 1262 0038 FB68     		ldr	r3, [r7, #12]
 1263 003a 9B68     		ldr	r3, [r3, #8]
 1264              		.loc 1 1161 40
 1265 003c 002B     		cmp	r3, #0
 1266 003e 02D1     		bne	.L64
 1267              		.loc 1 1161 90 discriminator 1
 1268 0040 FB7F     		ldrb	r3, [r7, #31]	@ zero_extendqisi2
 1269 0042 042B     		cmp	r3, #4
 1270 0044 01D0     		beq	.L63
 1271              	.L64:
1162:Drivers/STM32F4xx_HAL_Driver/Src/stm32f4xx_hal_spi.c ****   {
1163:Drivers/STM32F4xx_HAL_Driver/Src/stm32f4xx_hal_spi.c ****     return HAL_BUSY;
 1272              		.loc 1 1163 12
 1273 0046 0223     		movs	r3, #2
 1274 0048 7FE1     		b	.L65
 1275              	.L63:
1164:Drivers/STM32F4xx_HAL_Driver/Src/stm32f4xx_hal_spi.c ****   }
1165:Drivers/STM32F4xx_HAL_Driver/Src/stm32f4xx_hal_spi.c **** 
1166:Drivers/STM32F4xx_HAL_Driver/Src/stm32f4xx_hal_spi.c ****   if ((pTxData == NULL) || (pRxData == NULL) || (Size == 0U))
 1276              		.loc 1 1166 6
 1277 004a BB68     		ldr	r3, [r7, #8]
 1278 004c 002B     		cmp	r3, #0
 1279 004e 05D0     		beq	.L66
 1280              		.loc 1 1166 25 discriminator 1
 1281 0050 7B68     		ldr	r3, [r7, #4]
 1282 0052 002B     		cmp	r3, #0
 1283 0054 02D0     		beq	.L66
 1284              		.loc 1 1166 46 discriminator 2
 1285 0056 7B88     		ldrh	r3, [r7, #2]
 1286 0058 002B     		cmp	r3, #0
 1287 005a 01D1     		bne	.L67
 1288              	.L66:
1167:Drivers/STM32F4xx_HAL_Driver/Src/stm32f4xx_hal_spi.c ****   {
1168:Drivers/STM32F4xx_HAL_Driver/Src/stm32f4xx_hal_spi.c ****     return HAL_ERROR;
ARM GAS  C:\Users\16323\AppData\Local\Temp\ccbQ7VoP.s 			page 44


 1289              		.loc 1 1168 12
 1290 005c 0123     		movs	r3, #1
 1291 005e 74E1     		b	.L65
 1292              	.L67:
1169:Drivers/STM32F4xx_HAL_Driver/Src/stm32f4xx_hal_spi.c ****   }
1170:Drivers/STM32F4xx_HAL_Driver/Src/stm32f4xx_hal_spi.c **** 
1171:Drivers/STM32F4xx_HAL_Driver/Src/stm32f4xx_hal_spi.c ****   /* Process Locked */
1172:Drivers/STM32F4xx_HAL_Driver/Src/stm32f4xx_hal_spi.c ****   __HAL_LOCK(hspi);
 1293              		.loc 1 1172 3
 1294 0060 FB68     		ldr	r3, [r7, #12]
 1295 0062 93F85030 		ldrb	r3, [r3, #80]	@ zero_extendqisi2
 1296 0066 012B     		cmp	r3, #1
 1297 0068 01D1     		bne	.L68
 1298              		.loc 1 1172 3 is_stmt 0 discriminator 1
 1299 006a 0223     		movs	r3, #2
 1300 006c 6DE1     		b	.L65
 1301              	.L68:
 1302              		.loc 1 1172 3 discriminator 2
 1303 006e FB68     		ldr	r3, [r7, #12]
 1304 0070 0122     		movs	r2, #1
 1305 0072 83F85020 		strb	r2, [r3, #80]
1173:Drivers/STM32F4xx_HAL_Driver/Src/stm32f4xx_hal_spi.c **** 
1174:Drivers/STM32F4xx_HAL_Driver/Src/stm32f4xx_hal_spi.c ****   /* Don't overwrite in case of HAL_SPI_STATE_BUSY_RX */
1175:Drivers/STM32F4xx_HAL_Driver/Src/stm32f4xx_hal_spi.c ****   if (hspi->State != HAL_SPI_STATE_BUSY_RX)
 1306              		.loc 1 1175 11 is_stmt 1 discriminator 2
 1307 0076 FB68     		ldr	r3, [r7, #12]
 1308 0078 93F85130 		ldrb	r3, [r3, #81]
 1309 007c DBB2     		uxtb	r3, r3
 1310              		.loc 1 1175 6 discriminator 2
 1311 007e 042B     		cmp	r3, #4
 1312 0080 03D0     		beq	.L69
1176:Drivers/STM32F4xx_HAL_Driver/Src/stm32f4xx_hal_spi.c ****   {
1177:Drivers/STM32F4xx_HAL_Driver/Src/stm32f4xx_hal_spi.c ****     hspi->State = HAL_SPI_STATE_BUSY_TX_RX;
 1313              		.loc 1 1177 17
 1314 0082 FB68     		ldr	r3, [r7, #12]
 1315 0084 0522     		movs	r2, #5
 1316 0086 83F85120 		strb	r2, [r3, #81]
 1317              	.L69:
1178:Drivers/STM32F4xx_HAL_Driver/Src/stm32f4xx_hal_spi.c ****   }
1179:Drivers/STM32F4xx_HAL_Driver/Src/stm32f4xx_hal_spi.c **** 
1180:Drivers/STM32F4xx_HAL_Driver/Src/stm32f4xx_hal_spi.c ****   /* Set the transaction information */
1181:Drivers/STM32F4xx_HAL_Driver/Src/stm32f4xx_hal_spi.c ****   hspi->ErrorCode   = HAL_SPI_ERROR_NONE;
 1318              		.loc 1 1181 21
 1319 008a FB68     		ldr	r3, [r7, #12]
 1320 008c 0022     		movs	r2, #0
 1321 008e 5A65     		str	r2, [r3, #84]
1182:Drivers/STM32F4xx_HAL_Driver/Src/stm32f4xx_hal_spi.c ****   hspi->pRxBuffPtr  = (uint8_t *)pRxData;
 1322              		.loc 1 1182 21
 1323 0090 FB68     		ldr	r3, [r7, #12]
 1324 0092 7A68     		ldr	r2, [r7, #4]
 1325 0094 9A63     		str	r2, [r3, #56]
1183:Drivers/STM32F4xx_HAL_Driver/Src/stm32f4xx_hal_spi.c ****   hspi->RxXferCount = Size;
 1326              		.loc 1 1183 21
 1327 0096 FB68     		ldr	r3, [r7, #12]
 1328 0098 7A88     		ldrh	r2, [r7, #2]	@ movhi
 1329 009a DA87     		strh	r2, [r3, #62]	@ movhi
1184:Drivers/STM32F4xx_HAL_Driver/Src/stm32f4xx_hal_spi.c ****   hspi->RxXferSize  = Size;
ARM GAS  C:\Users\16323\AppData\Local\Temp\ccbQ7VoP.s 			page 45


 1330              		.loc 1 1184 21
 1331 009c FB68     		ldr	r3, [r7, #12]
 1332 009e 7A88     		ldrh	r2, [r7, #2]	@ movhi
 1333 00a0 9A87     		strh	r2, [r3, #60]	@ movhi
1185:Drivers/STM32F4xx_HAL_Driver/Src/stm32f4xx_hal_spi.c ****   hspi->pTxBuffPtr  = (const uint8_t *)pTxData;
 1334              		.loc 1 1185 21
 1335 00a2 FB68     		ldr	r3, [r7, #12]
 1336 00a4 BA68     		ldr	r2, [r7, #8]
 1337 00a6 1A63     		str	r2, [r3, #48]
1186:Drivers/STM32F4xx_HAL_Driver/Src/stm32f4xx_hal_spi.c ****   hspi->TxXferCount = Size;
 1338              		.loc 1 1186 21
 1339 00a8 FB68     		ldr	r3, [r7, #12]
 1340 00aa 7A88     		ldrh	r2, [r7, #2]	@ movhi
 1341 00ac DA86     		strh	r2, [r3, #54]	@ movhi
1187:Drivers/STM32F4xx_HAL_Driver/Src/stm32f4xx_hal_spi.c ****   hspi->TxXferSize  = Size;
 1342              		.loc 1 1187 21
 1343 00ae FB68     		ldr	r3, [r7, #12]
 1344 00b0 7A88     		ldrh	r2, [r7, #2]	@ movhi
 1345 00b2 9A86     		strh	r2, [r3, #52]	@ movhi
1188:Drivers/STM32F4xx_HAL_Driver/Src/stm32f4xx_hal_spi.c **** 
1189:Drivers/STM32F4xx_HAL_Driver/Src/stm32f4xx_hal_spi.c ****   /*Init field not used in handle to zero */
1190:Drivers/STM32F4xx_HAL_Driver/Src/stm32f4xx_hal_spi.c ****   hspi->RxISR       = NULL;
 1346              		.loc 1 1190 21
 1347 00b4 FB68     		ldr	r3, [r7, #12]
 1348 00b6 0022     		movs	r2, #0
 1349 00b8 1A64     		str	r2, [r3, #64]
1191:Drivers/STM32F4xx_HAL_Driver/Src/stm32f4xx_hal_spi.c ****   hspi->TxISR       = NULL;
 1350              		.loc 1 1191 21
 1351 00ba FB68     		ldr	r3, [r7, #12]
 1352 00bc 0022     		movs	r2, #0
 1353 00be 5A64     		str	r2, [r3, #68]
1192:Drivers/STM32F4xx_HAL_Driver/Src/stm32f4xx_hal_spi.c **** 
1193:Drivers/STM32F4xx_HAL_Driver/Src/stm32f4xx_hal_spi.c **** #if (USE_SPI_CRC != 0U)
1194:Drivers/STM32F4xx_HAL_Driver/Src/stm32f4xx_hal_spi.c ****   /* Reset CRC Calculation */
1195:Drivers/STM32F4xx_HAL_Driver/Src/stm32f4xx_hal_spi.c ****   if (hspi->Init.CRCCalculation == SPI_CRCCALCULATION_ENABLE)
1196:Drivers/STM32F4xx_HAL_Driver/Src/stm32f4xx_hal_spi.c ****   {
1197:Drivers/STM32F4xx_HAL_Driver/Src/stm32f4xx_hal_spi.c ****     SPI_RESET_CRC(hspi);
1198:Drivers/STM32F4xx_HAL_Driver/Src/stm32f4xx_hal_spi.c ****   }
1199:Drivers/STM32F4xx_HAL_Driver/Src/stm32f4xx_hal_spi.c **** #endif /* USE_SPI_CRC */
1200:Drivers/STM32F4xx_HAL_Driver/Src/stm32f4xx_hal_spi.c **** 
1201:Drivers/STM32F4xx_HAL_Driver/Src/stm32f4xx_hal_spi.c ****   /* Check if the SPI is already enabled */
1202:Drivers/STM32F4xx_HAL_Driver/Src/stm32f4xx_hal_spi.c ****   if ((hspi->Instance->CR1 & SPI_CR1_SPE) != SPI_CR1_SPE)
 1354              		.loc 1 1202 12
 1355 00c0 FB68     		ldr	r3, [r7, #12]
 1356 00c2 1B68     		ldr	r3, [r3]
 1357              		.loc 1 1202 22
 1358 00c4 1B68     		ldr	r3, [r3]
 1359              		.loc 1 1202 28
 1360 00c6 03F04003 		and	r3, r3, #64
 1361              		.loc 1 1202 6
 1362 00ca 402B     		cmp	r3, #64
 1363 00cc 07D0     		beq	.L70
1203:Drivers/STM32F4xx_HAL_Driver/Src/stm32f4xx_hal_spi.c ****   {
1204:Drivers/STM32F4xx_HAL_Driver/Src/stm32f4xx_hal_spi.c ****     /* Enable SPI peripheral */
1205:Drivers/STM32F4xx_HAL_Driver/Src/stm32f4xx_hal_spi.c ****     __HAL_SPI_ENABLE(hspi);
 1364              		.loc 1 1205 5
 1365 00ce FB68     		ldr	r3, [r7, #12]
ARM GAS  C:\Users\16323\AppData\Local\Temp\ccbQ7VoP.s 			page 46


 1366 00d0 1B68     		ldr	r3, [r3]
 1367 00d2 1A68     		ldr	r2, [r3]
 1368 00d4 FB68     		ldr	r3, [r7, #12]
 1369 00d6 1B68     		ldr	r3, [r3]
 1370 00d8 42F04002 		orr	r2, r2, #64
 1371 00dc 1A60     		str	r2, [r3]
 1372              	.L70:
1206:Drivers/STM32F4xx_HAL_Driver/Src/stm32f4xx_hal_spi.c ****   }
1207:Drivers/STM32F4xx_HAL_Driver/Src/stm32f4xx_hal_spi.c **** 
1208:Drivers/STM32F4xx_HAL_Driver/Src/stm32f4xx_hal_spi.c ****   /* Transmit and Receive data in 16 Bit mode */
1209:Drivers/STM32F4xx_HAL_Driver/Src/stm32f4xx_hal_spi.c ****   if (hspi->Init.DataSize == SPI_DATASIZE_16BIT)
 1373              		.loc 1 1209 17
 1374 00de FB68     		ldr	r3, [r7, #12]
 1375 00e0 DB68     		ldr	r3, [r3, #12]
 1376              		.loc 1 1209 6
 1377 00e2 B3F5006F 		cmp	r3, #2048
 1378 00e6 7ED1     		bne	.L71
1210:Drivers/STM32F4xx_HAL_Driver/Src/stm32f4xx_hal_spi.c ****   {
1211:Drivers/STM32F4xx_HAL_Driver/Src/stm32f4xx_hal_spi.c ****     if ((hspi->Init.Mode == SPI_MODE_SLAVE) || (initial_TxXferCount == 0x01U))
 1379              		.loc 1 1211 20
 1380 00e8 FB68     		ldr	r3, [r7, #12]
 1381 00ea 5B68     		ldr	r3, [r3, #4]
 1382              		.loc 1 1211 8
 1383 00ec 002B     		cmp	r3, #0
 1384 00ee 02D0     		beq	.L72
 1385              		.loc 1 1211 45 discriminator 1
 1386 00f0 FB8A     		ldrh	r3, [r7, #22]
 1387 00f2 012B     		cmp	r3, #1
 1388 00f4 6CD1     		bne	.L74
 1389              	.L72:
1212:Drivers/STM32F4xx_HAL_Driver/Src/stm32f4xx_hal_spi.c ****     {
1213:Drivers/STM32F4xx_HAL_Driver/Src/stm32f4xx_hal_spi.c ****       hspi->Instance->DR = *((const uint16_t *)hspi->pTxBuffPtr);
 1390              		.loc 1 1213 52
 1391 00f6 FB68     		ldr	r3, [r7, #12]
 1392 00f8 1B6B     		ldr	r3, [r3, #48]
 1393              		.loc 1 1213 28
 1394 00fa 1A88     		ldrh	r2, [r3]
 1395              		.loc 1 1213 11
 1396 00fc FB68     		ldr	r3, [r7, #12]
 1397 00fe 1B68     		ldr	r3, [r3]
 1398              		.loc 1 1213 26
 1399 0100 DA60     		str	r2, [r3, #12]
1214:Drivers/STM32F4xx_HAL_Driver/Src/stm32f4xx_hal_spi.c ****       hspi->pTxBuffPtr += sizeof(uint16_t);
 1400              		.loc 1 1214 24
 1401 0102 FB68     		ldr	r3, [r7, #12]
 1402 0104 1B6B     		ldr	r3, [r3, #48]
 1403 0106 9A1C     		adds	r2, r3, #2
 1404 0108 FB68     		ldr	r3, [r7, #12]
 1405 010a 1A63     		str	r2, [r3, #48]
1215:Drivers/STM32F4xx_HAL_Driver/Src/stm32f4xx_hal_spi.c ****       hspi->TxXferCount--;
 1406              		.loc 1 1215 11
 1407 010c FB68     		ldr	r3, [r7, #12]
 1408 010e DB8E     		ldrh	r3, [r3, #54]	@ movhi
 1409 0110 9BB2     		uxth	r3, r3
 1410              		.loc 1 1215 24
 1411 0112 013B     		subs	r3, r3, #1
 1412 0114 9AB2     		uxth	r2, r3
ARM GAS  C:\Users\16323\AppData\Local\Temp\ccbQ7VoP.s 			page 47


 1413 0116 FB68     		ldr	r3, [r7, #12]
 1414 0118 DA86     		strh	r2, [r3, #54]	@ movhi
1216:Drivers/STM32F4xx_HAL_Driver/Src/stm32f4xx_hal_spi.c **** 
1217:Drivers/STM32F4xx_HAL_Driver/Src/stm32f4xx_hal_spi.c **** #if (USE_SPI_CRC != 0U)
1218:Drivers/STM32F4xx_HAL_Driver/Src/stm32f4xx_hal_spi.c ****       /* Enable CRC Transmission */
1219:Drivers/STM32F4xx_HAL_Driver/Src/stm32f4xx_hal_spi.c ****       if ((hspi->TxXferCount == 0U) && (hspi->Init.CRCCalculation == SPI_CRCCALCULATION_ENABLE))
1220:Drivers/STM32F4xx_HAL_Driver/Src/stm32f4xx_hal_spi.c ****       {
1221:Drivers/STM32F4xx_HAL_Driver/Src/stm32f4xx_hal_spi.c ****         SET_BIT(hspi->Instance->CR1, SPI_CR1_CRCNEXT);
1222:Drivers/STM32F4xx_HAL_Driver/Src/stm32f4xx_hal_spi.c ****       }
1223:Drivers/STM32F4xx_HAL_Driver/Src/stm32f4xx_hal_spi.c **** #endif /* USE_SPI_CRC */
1224:Drivers/STM32F4xx_HAL_Driver/Src/stm32f4xx_hal_spi.c **** 
1225:Drivers/STM32F4xx_HAL_Driver/Src/stm32f4xx_hal_spi.c ****     }
1226:Drivers/STM32F4xx_HAL_Driver/Src/stm32f4xx_hal_spi.c ****     while ((hspi->TxXferCount > 0U) || (hspi->RxXferCount > 0U))
 1415              		.loc 1 1226 11
 1416 011a 59E0     		b	.L74
 1417              	.L77:
1227:Drivers/STM32F4xx_HAL_Driver/Src/stm32f4xx_hal_spi.c ****     {
1228:Drivers/STM32F4xx_HAL_Driver/Src/stm32f4xx_hal_spi.c ****       /* Check TXE flag */
1229:Drivers/STM32F4xx_HAL_Driver/Src/stm32f4xx_hal_spi.c ****       if ((__HAL_SPI_GET_FLAG(hspi, SPI_FLAG_TXE)) && (hspi->TxXferCount > 0U) && (txallowed == 1U)
 1418              		.loc 1 1229 12
 1419 011c FB68     		ldr	r3, [r7, #12]
 1420 011e 1B68     		ldr	r3, [r3]
 1421 0120 9B68     		ldr	r3, [r3, #8]
 1422 0122 03F00203 		and	r3, r3, #2
 1423              		.loc 1 1229 10
 1424 0126 022B     		cmp	r3, #2
 1425 0128 1BD1     		bne	.L75
 1426              		.loc 1 1229 60 discriminator 1
 1427 012a FB68     		ldr	r3, [r7, #12]
 1428 012c DB8E     		ldrh	r3, [r3, #54]	@ movhi
 1429 012e 9BB2     		uxth	r3, r3
 1430              		.loc 1 1229 52 discriminator 1
 1431 0130 002B     		cmp	r3, #0
 1432 0132 16D0     		beq	.L75
 1433              		.loc 1 1229 80 discriminator 2
 1434 0134 7B6A     		ldr	r3, [r7, #36]
 1435 0136 012B     		cmp	r3, #1
 1436 0138 13D1     		bne	.L75
1230:Drivers/STM32F4xx_HAL_Driver/Src/stm32f4xx_hal_spi.c ****       {
1231:Drivers/STM32F4xx_HAL_Driver/Src/stm32f4xx_hal_spi.c ****         hspi->Instance->DR = *((const uint16_t *)hspi->pTxBuffPtr);
 1437              		.loc 1 1231 54
 1438 013a FB68     		ldr	r3, [r7, #12]
 1439 013c 1B6B     		ldr	r3, [r3, #48]
 1440              		.loc 1 1231 30
 1441 013e 1A88     		ldrh	r2, [r3]
 1442              		.loc 1 1231 13
 1443 0140 FB68     		ldr	r3, [r7, #12]
 1444 0142 1B68     		ldr	r3, [r3]
 1445              		.loc 1 1231 28
 1446 0144 DA60     		str	r2, [r3, #12]
1232:Drivers/STM32F4xx_HAL_Driver/Src/stm32f4xx_hal_spi.c ****         hspi->pTxBuffPtr += sizeof(uint16_t);
 1447              		.loc 1 1232 26
 1448 0146 FB68     		ldr	r3, [r7, #12]
 1449 0148 1B6B     		ldr	r3, [r3, #48]
 1450 014a 9A1C     		adds	r2, r3, #2
 1451 014c FB68     		ldr	r3, [r7, #12]
 1452 014e 1A63     		str	r2, [r3, #48]
ARM GAS  C:\Users\16323\AppData\Local\Temp\ccbQ7VoP.s 			page 48


1233:Drivers/STM32F4xx_HAL_Driver/Src/stm32f4xx_hal_spi.c ****         hspi->TxXferCount--;
 1453              		.loc 1 1233 13
 1454 0150 FB68     		ldr	r3, [r7, #12]
 1455 0152 DB8E     		ldrh	r3, [r3, #54]	@ movhi
 1456 0154 9BB2     		uxth	r3, r3
 1457              		.loc 1 1233 26
 1458 0156 013B     		subs	r3, r3, #1
 1459 0158 9AB2     		uxth	r2, r3
 1460 015a FB68     		ldr	r3, [r7, #12]
 1461 015c DA86     		strh	r2, [r3, #54]	@ movhi
1234:Drivers/STM32F4xx_HAL_Driver/Src/stm32f4xx_hal_spi.c ****         /* Next Data is a reception (Rx). Tx not allowed */
1235:Drivers/STM32F4xx_HAL_Driver/Src/stm32f4xx_hal_spi.c ****         txallowed = 0U;
 1462              		.loc 1 1235 19
 1463 015e 0023     		movs	r3, #0
 1464 0160 7B62     		str	r3, [r7, #36]
 1465              	.L75:
1236:Drivers/STM32F4xx_HAL_Driver/Src/stm32f4xx_hal_spi.c **** 
1237:Drivers/STM32F4xx_HAL_Driver/Src/stm32f4xx_hal_spi.c **** #if (USE_SPI_CRC != 0U)
1238:Drivers/STM32F4xx_HAL_Driver/Src/stm32f4xx_hal_spi.c ****         /* Enable CRC Transmission */
1239:Drivers/STM32F4xx_HAL_Driver/Src/stm32f4xx_hal_spi.c ****         if ((hspi->TxXferCount == 0U) && (hspi->Init.CRCCalculation == SPI_CRCCALCULATION_ENABLE))
1240:Drivers/STM32F4xx_HAL_Driver/Src/stm32f4xx_hal_spi.c ****         {
1241:Drivers/STM32F4xx_HAL_Driver/Src/stm32f4xx_hal_spi.c ****           SET_BIT(hspi->Instance->CR1, SPI_CR1_CRCNEXT);
1242:Drivers/STM32F4xx_HAL_Driver/Src/stm32f4xx_hal_spi.c ****         }
1243:Drivers/STM32F4xx_HAL_Driver/Src/stm32f4xx_hal_spi.c **** #endif /* USE_SPI_CRC */
1244:Drivers/STM32F4xx_HAL_Driver/Src/stm32f4xx_hal_spi.c ****       }
1245:Drivers/STM32F4xx_HAL_Driver/Src/stm32f4xx_hal_spi.c **** 
1246:Drivers/STM32F4xx_HAL_Driver/Src/stm32f4xx_hal_spi.c ****       /* Check RXNE flag */
1247:Drivers/STM32F4xx_HAL_Driver/Src/stm32f4xx_hal_spi.c ****       if ((__HAL_SPI_GET_FLAG(hspi, SPI_FLAG_RXNE)) && (hspi->RxXferCount > 0U))
 1466              		.loc 1 1247 12
 1467 0162 FB68     		ldr	r3, [r7, #12]
 1468 0164 1B68     		ldr	r3, [r3]
 1469 0166 9B68     		ldr	r3, [r3, #8]
 1470 0168 03F00103 		and	r3, r3, #1
 1471              		.loc 1 1247 10
 1472 016c 012B     		cmp	r3, #1
 1473 016e 19D1     		bne	.L76
 1474              		.loc 1 1247 61 discriminator 1
 1475 0170 FB68     		ldr	r3, [r7, #12]
 1476 0172 DB8F     		ldrh	r3, [r3, #62]	@ movhi
 1477 0174 9BB2     		uxth	r3, r3
 1478              		.loc 1 1247 53 discriminator 1
 1479 0176 002B     		cmp	r3, #0
 1480 0178 14D0     		beq	.L76
1248:Drivers/STM32F4xx_HAL_Driver/Src/stm32f4xx_hal_spi.c ****       {
1249:Drivers/STM32F4xx_HAL_Driver/Src/stm32f4xx_hal_spi.c ****         *((uint16_t *)hspi->pRxBuffPtr) = (uint16_t)hspi->Instance->DR;
 1481              		.loc 1 1249 57
 1482 017a FB68     		ldr	r3, [r7, #12]
 1483 017c 1B68     		ldr	r3, [r3]
 1484              		.loc 1 1249 67
 1485 017e DA68     		ldr	r2, [r3, #12]
 1486              		.loc 1 1249 27
 1487 0180 FB68     		ldr	r3, [r7, #12]
 1488 0182 9B6B     		ldr	r3, [r3, #56]
 1489              		.loc 1 1249 43
 1490 0184 92B2     		uxth	r2, r2
 1491              		.loc 1 1249 41
 1492 0186 1A80     		strh	r2, [r3]	@ movhi
ARM GAS  C:\Users\16323\AppData\Local\Temp\ccbQ7VoP.s 			page 49


1250:Drivers/STM32F4xx_HAL_Driver/Src/stm32f4xx_hal_spi.c ****         hspi->pRxBuffPtr += sizeof(uint16_t);
 1493              		.loc 1 1250 26
 1494 0188 FB68     		ldr	r3, [r7, #12]
 1495 018a 9B6B     		ldr	r3, [r3, #56]
 1496 018c 9A1C     		adds	r2, r3, #2
 1497 018e FB68     		ldr	r3, [r7, #12]
 1498 0190 9A63     		str	r2, [r3, #56]
1251:Drivers/STM32F4xx_HAL_Driver/Src/stm32f4xx_hal_spi.c ****         hspi->RxXferCount--;
 1499              		.loc 1 1251 13
 1500 0192 FB68     		ldr	r3, [r7, #12]
 1501 0194 DB8F     		ldrh	r3, [r3, #62]	@ movhi
 1502 0196 9BB2     		uxth	r3, r3
 1503              		.loc 1 1251 26
 1504 0198 013B     		subs	r3, r3, #1
 1505 019a 9AB2     		uxth	r2, r3
 1506 019c FB68     		ldr	r3, [r7, #12]
 1507 019e DA87     		strh	r2, [r3, #62]	@ movhi
1252:Drivers/STM32F4xx_HAL_Driver/Src/stm32f4xx_hal_spi.c ****         /* Next Data is a Transmission (Tx). Tx is allowed */
1253:Drivers/STM32F4xx_HAL_Driver/Src/stm32f4xx_hal_spi.c ****         txallowed = 1U;
 1508              		.loc 1 1253 19
 1509 01a0 0123     		movs	r3, #1
 1510 01a2 7B62     		str	r3, [r7, #36]
 1511              	.L76:
1254:Drivers/STM32F4xx_HAL_Driver/Src/stm32f4xx_hal_spi.c ****       }
1255:Drivers/STM32F4xx_HAL_Driver/Src/stm32f4xx_hal_spi.c ****       if (((HAL_GetTick() - tickstart) >=  Timeout) && (Timeout != HAL_MAX_DELAY))
 1512              		.loc 1 1255 13
 1513 01a4 FFF7FEFF 		bl	HAL_GetTick
 1514 01a8 0246     		mov	r2, r0
 1515              		.loc 1 1255 27
 1516 01aa 3B6A     		ldr	r3, [r7, #32]
 1517 01ac D31A     		subs	r3, r2, r3
 1518              		.loc 1 1255 10
 1519 01ae 3A6B     		ldr	r2, [r7, #48]
 1520 01b0 9A42     		cmp	r2, r3
 1521 01b2 0DD8     		bhi	.L74
 1522              		.loc 1 1255 53 discriminator 1
 1523 01b4 3B6B     		ldr	r3, [r7, #48]
 1524 01b6 B3F1FF3F 		cmp	r3, #-1
 1525 01ba 09D0     		beq	.L74
1256:Drivers/STM32F4xx_HAL_Driver/Src/stm32f4xx_hal_spi.c ****       {
1257:Drivers/STM32F4xx_HAL_Driver/Src/stm32f4xx_hal_spi.c ****         hspi->State = HAL_SPI_STATE_READY;
 1526              		.loc 1 1257 21
 1527 01bc FB68     		ldr	r3, [r7, #12]
 1528 01be 0122     		movs	r2, #1
 1529 01c0 83F85120 		strb	r2, [r3, #81]
1258:Drivers/STM32F4xx_HAL_Driver/Src/stm32f4xx_hal_spi.c ****         __HAL_UNLOCK(hspi);
 1530              		.loc 1 1258 9
 1531 01c4 FB68     		ldr	r3, [r7, #12]
 1532 01c6 0022     		movs	r2, #0
 1533 01c8 83F85020 		strb	r2, [r3, #80]
1259:Drivers/STM32F4xx_HAL_Driver/Src/stm32f4xx_hal_spi.c ****         return HAL_TIMEOUT;
 1534              		.loc 1 1259 16
 1535 01cc 0323     		movs	r3, #3
 1536 01ce BCE0     		b	.L65
 1537              	.L74:
1226:Drivers/STM32F4xx_HAL_Driver/Src/stm32f4xx_hal_spi.c ****     {
 1538              		.loc 1 1226 17
ARM GAS  C:\Users\16323\AppData\Local\Temp\ccbQ7VoP.s 			page 50


 1539 01d0 FB68     		ldr	r3, [r7, #12]
 1540 01d2 DB8E     		ldrh	r3, [r3, #54]	@ movhi
 1541 01d4 9BB2     		uxth	r3, r3
1226:Drivers/STM32F4xx_HAL_Driver/Src/stm32f4xx_hal_spi.c ****     {
 1542              		.loc 1 1226 11
 1543 01d6 002B     		cmp	r3, #0
 1544 01d8 A0D1     		bne	.L77
1226:Drivers/STM32F4xx_HAL_Driver/Src/stm32f4xx_hal_spi.c ****     {
 1545              		.loc 1 1226 45 discriminator 1
 1546 01da FB68     		ldr	r3, [r7, #12]
 1547 01dc DB8F     		ldrh	r3, [r3, #62]	@ movhi
 1548 01de 9BB2     		uxth	r3, r3
1226:Drivers/STM32F4xx_HAL_Driver/Src/stm32f4xx_hal_spi.c ****     {
 1549              		.loc 1 1226 37 discriminator 1
 1550 01e0 002B     		cmp	r3, #0
 1551 01e2 9BD1     		bne	.L77
 1552 01e4 82E0     		b	.L78
 1553              	.L71:
1260:Drivers/STM32F4xx_HAL_Driver/Src/stm32f4xx_hal_spi.c ****       }
1261:Drivers/STM32F4xx_HAL_Driver/Src/stm32f4xx_hal_spi.c ****     }
1262:Drivers/STM32F4xx_HAL_Driver/Src/stm32f4xx_hal_spi.c ****   }
1263:Drivers/STM32F4xx_HAL_Driver/Src/stm32f4xx_hal_spi.c ****   /* Transmit and Receive data in 8 Bit mode */
1264:Drivers/STM32F4xx_HAL_Driver/Src/stm32f4xx_hal_spi.c ****   else
1265:Drivers/STM32F4xx_HAL_Driver/Src/stm32f4xx_hal_spi.c ****   {
1266:Drivers/STM32F4xx_HAL_Driver/Src/stm32f4xx_hal_spi.c ****     if ((hspi->Init.Mode == SPI_MODE_SLAVE) || (initial_TxXferCount == 0x01U))
 1554              		.loc 1 1266 20
 1555 01e6 FB68     		ldr	r3, [r7, #12]
 1556 01e8 5B68     		ldr	r3, [r3, #4]
 1557              		.loc 1 1266 8
 1558 01ea 002B     		cmp	r3, #0
 1559 01ec 02D0     		beq	.L79
 1560              		.loc 1 1266 45 discriminator 1
 1561 01ee FB8A     		ldrh	r3, [r7, #22]
 1562 01f0 012B     		cmp	r3, #1
 1563 01f2 71D1     		bne	.L81
 1564              	.L79:
1267:Drivers/STM32F4xx_HAL_Driver/Src/stm32f4xx_hal_spi.c ****     {
1268:Drivers/STM32F4xx_HAL_Driver/Src/stm32f4xx_hal_spi.c ****       *((__IO uint8_t *)&hspi->Instance->DR) = *((const uint8_t *)hspi->pTxBuffPtr);
 1565              		.loc 1 1268 71
 1566 01f4 FB68     		ldr	r3, [r7, #12]
 1567 01f6 1A6B     		ldr	r2, [r3, #48]
 1568              		.loc 1 1268 30
 1569 01f8 FB68     		ldr	r3, [r7, #12]
 1570 01fa 1B68     		ldr	r3, [r3]
 1571              		.loc 1 1268 25
 1572 01fc 0C33     		adds	r3, r3, #12
 1573              		.loc 1 1268 48
 1574 01fe 1278     		ldrb	r2, [r2]	@ zero_extendqisi2
 1575              		.loc 1 1268 46
 1576 0200 1A70     		strb	r2, [r3]
1269:Drivers/STM32F4xx_HAL_Driver/Src/stm32f4xx_hal_spi.c ****       hspi->pTxBuffPtr += sizeof(uint8_t);
 1577              		.loc 1 1269 24
 1578 0202 FB68     		ldr	r3, [r7, #12]
 1579 0204 1B6B     		ldr	r3, [r3, #48]
 1580 0206 5A1C     		adds	r2, r3, #1
 1581 0208 FB68     		ldr	r3, [r7, #12]
 1582 020a 1A63     		str	r2, [r3, #48]
ARM GAS  C:\Users\16323\AppData\Local\Temp\ccbQ7VoP.s 			page 51


1270:Drivers/STM32F4xx_HAL_Driver/Src/stm32f4xx_hal_spi.c ****       hspi->TxXferCount--;
 1583              		.loc 1 1270 11
 1584 020c FB68     		ldr	r3, [r7, #12]
 1585 020e DB8E     		ldrh	r3, [r3, #54]	@ movhi
 1586 0210 9BB2     		uxth	r3, r3
 1587              		.loc 1 1270 24
 1588 0212 013B     		subs	r3, r3, #1
 1589 0214 9AB2     		uxth	r2, r3
 1590 0216 FB68     		ldr	r3, [r7, #12]
 1591 0218 DA86     		strh	r2, [r3, #54]	@ movhi
1271:Drivers/STM32F4xx_HAL_Driver/Src/stm32f4xx_hal_spi.c **** 
1272:Drivers/STM32F4xx_HAL_Driver/Src/stm32f4xx_hal_spi.c **** #if (USE_SPI_CRC != 0U)
1273:Drivers/STM32F4xx_HAL_Driver/Src/stm32f4xx_hal_spi.c ****       /* Enable CRC Transmission */
1274:Drivers/STM32F4xx_HAL_Driver/Src/stm32f4xx_hal_spi.c ****       if ((hspi->TxXferCount == 0U) && (hspi->Init.CRCCalculation == SPI_CRCCALCULATION_ENABLE))
1275:Drivers/STM32F4xx_HAL_Driver/Src/stm32f4xx_hal_spi.c ****       {
1276:Drivers/STM32F4xx_HAL_Driver/Src/stm32f4xx_hal_spi.c ****         SET_BIT(hspi->Instance->CR1, SPI_CR1_CRCNEXT);
1277:Drivers/STM32F4xx_HAL_Driver/Src/stm32f4xx_hal_spi.c ****       }
1278:Drivers/STM32F4xx_HAL_Driver/Src/stm32f4xx_hal_spi.c **** #endif /* USE_SPI_CRC */
1279:Drivers/STM32F4xx_HAL_Driver/Src/stm32f4xx_hal_spi.c ****     }
1280:Drivers/STM32F4xx_HAL_Driver/Src/stm32f4xx_hal_spi.c ****     while ((hspi->TxXferCount > 0U) || (hspi->RxXferCount > 0U))
 1592              		.loc 1 1280 11
 1593 021a 5DE0     		b	.L81
 1594              	.L86:
1281:Drivers/STM32F4xx_HAL_Driver/Src/stm32f4xx_hal_spi.c ****     {
1282:Drivers/STM32F4xx_HAL_Driver/Src/stm32f4xx_hal_spi.c ****       /* Check TXE flag */
1283:Drivers/STM32F4xx_HAL_Driver/Src/stm32f4xx_hal_spi.c ****       if ((__HAL_SPI_GET_FLAG(hspi, SPI_FLAG_TXE)) && (hspi->TxXferCount > 0U) && (txallowed == 1U)
 1595              		.loc 1 1283 12
 1596 021c FB68     		ldr	r3, [r7, #12]
 1597 021e 1B68     		ldr	r3, [r3]
 1598 0220 9B68     		ldr	r3, [r3, #8]
 1599 0222 03F00203 		and	r3, r3, #2
 1600              		.loc 1 1283 10
 1601 0226 022B     		cmp	r3, #2
 1602 0228 1CD1     		bne	.L82
 1603              		.loc 1 1283 60 discriminator 1
 1604 022a FB68     		ldr	r3, [r7, #12]
 1605 022c DB8E     		ldrh	r3, [r3, #54]	@ movhi
 1606 022e 9BB2     		uxth	r3, r3
 1607              		.loc 1 1283 52 discriminator 1
 1608 0230 002B     		cmp	r3, #0
 1609 0232 17D0     		beq	.L82
 1610              		.loc 1 1283 80 discriminator 2
 1611 0234 7B6A     		ldr	r3, [r7, #36]
 1612 0236 012B     		cmp	r3, #1
 1613 0238 14D1     		bne	.L82
1284:Drivers/STM32F4xx_HAL_Driver/Src/stm32f4xx_hal_spi.c ****       {
1285:Drivers/STM32F4xx_HAL_Driver/Src/stm32f4xx_hal_spi.c ****         *(__IO uint8_t *)&hspi->Instance->DR = *((const uint8_t *)hspi->pTxBuffPtr);
 1614              		.loc 1 1285 71
 1615 023a FB68     		ldr	r3, [r7, #12]
 1616 023c 1A6B     		ldr	r2, [r3, #48]
 1617              		.loc 1 1285 31
 1618 023e FB68     		ldr	r3, [r7, #12]
 1619 0240 1B68     		ldr	r3, [r3]
 1620              		.loc 1 1285 26
 1621 0242 0C33     		adds	r3, r3, #12
 1622              		.loc 1 1285 48
 1623 0244 1278     		ldrb	r2, [r2]	@ zero_extendqisi2
ARM GAS  C:\Users\16323\AppData\Local\Temp\ccbQ7VoP.s 			page 52


 1624              		.loc 1 1285 46
 1625 0246 1A70     		strb	r2, [r3]
1286:Drivers/STM32F4xx_HAL_Driver/Src/stm32f4xx_hal_spi.c ****         hspi->pTxBuffPtr++;
 1626              		.loc 1 1286 13
 1627 0248 FB68     		ldr	r3, [r7, #12]
 1628 024a 1B6B     		ldr	r3, [r3, #48]
 1629              		.loc 1 1286 25
 1630 024c 5A1C     		adds	r2, r3, #1
 1631 024e FB68     		ldr	r3, [r7, #12]
 1632 0250 1A63     		str	r2, [r3, #48]
1287:Drivers/STM32F4xx_HAL_Driver/Src/stm32f4xx_hal_spi.c ****         hspi->TxXferCount--;
 1633              		.loc 1 1287 13
 1634 0252 FB68     		ldr	r3, [r7, #12]
 1635 0254 DB8E     		ldrh	r3, [r3, #54]	@ movhi
 1636 0256 9BB2     		uxth	r3, r3
 1637              		.loc 1 1287 26
 1638 0258 013B     		subs	r3, r3, #1
 1639 025a 9AB2     		uxth	r2, r3
 1640 025c FB68     		ldr	r3, [r7, #12]
 1641 025e DA86     		strh	r2, [r3, #54]	@ movhi
1288:Drivers/STM32F4xx_HAL_Driver/Src/stm32f4xx_hal_spi.c ****         /* Next Data is a reception (Rx). Tx not allowed */
1289:Drivers/STM32F4xx_HAL_Driver/Src/stm32f4xx_hal_spi.c ****         txallowed = 0U;
 1642              		.loc 1 1289 19
 1643 0260 0023     		movs	r3, #0
 1644 0262 7B62     		str	r3, [r7, #36]
 1645              	.L82:
1290:Drivers/STM32F4xx_HAL_Driver/Src/stm32f4xx_hal_spi.c **** 
1291:Drivers/STM32F4xx_HAL_Driver/Src/stm32f4xx_hal_spi.c **** #if (USE_SPI_CRC != 0U)
1292:Drivers/STM32F4xx_HAL_Driver/Src/stm32f4xx_hal_spi.c ****         /* Enable CRC Transmission */
1293:Drivers/STM32F4xx_HAL_Driver/Src/stm32f4xx_hal_spi.c ****         if ((hspi->TxXferCount == 0U) && (hspi->Init.CRCCalculation == SPI_CRCCALCULATION_ENABLE))
1294:Drivers/STM32F4xx_HAL_Driver/Src/stm32f4xx_hal_spi.c ****         {
1295:Drivers/STM32F4xx_HAL_Driver/Src/stm32f4xx_hal_spi.c ****           SET_BIT(hspi->Instance->CR1, SPI_CR1_CRCNEXT);
1296:Drivers/STM32F4xx_HAL_Driver/Src/stm32f4xx_hal_spi.c ****         }
1297:Drivers/STM32F4xx_HAL_Driver/Src/stm32f4xx_hal_spi.c **** #endif /* USE_SPI_CRC */
1298:Drivers/STM32F4xx_HAL_Driver/Src/stm32f4xx_hal_spi.c ****       }
1299:Drivers/STM32F4xx_HAL_Driver/Src/stm32f4xx_hal_spi.c **** 
1300:Drivers/STM32F4xx_HAL_Driver/Src/stm32f4xx_hal_spi.c ****       /* Wait until RXNE flag is reset */
1301:Drivers/STM32F4xx_HAL_Driver/Src/stm32f4xx_hal_spi.c ****       if ((__HAL_SPI_GET_FLAG(hspi, SPI_FLAG_RXNE)) && (hspi->RxXferCount > 0U))
 1646              		.loc 1 1301 12
 1647 0264 FB68     		ldr	r3, [r7, #12]
 1648 0266 1B68     		ldr	r3, [r3]
 1649 0268 9B68     		ldr	r3, [r3, #8]
 1650 026a 03F00103 		and	r3, r3, #1
 1651              		.loc 1 1301 10
 1652 026e 012B     		cmp	r3, #1
 1653 0270 19D1     		bne	.L83
 1654              		.loc 1 1301 61 discriminator 1
 1655 0272 FB68     		ldr	r3, [r7, #12]
 1656 0274 DB8F     		ldrh	r3, [r3, #62]	@ movhi
 1657 0276 9BB2     		uxth	r3, r3
 1658              		.loc 1 1301 53 discriminator 1
 1659 0278 002B     		cmp	r3, #0
 1660 027a 14D0     		beq	.L83
1302:Drivers/STM32F4xx_HAL_Driver/Src/stm32f4xx_hal_spi.c ****       {
1303:Drivers/STM32F4xx_HAL_Driver/Src/stm32f4xx_hal_spi.c ****         (*(uint8_t *)hspi->pRxBuffPtr) = hspi->Instance->DR;
 1661              		.loc 1 1303 46
 1662 027c FB68     		ldr	r3, [r7, #12]
ARM GAS  C:\Users\16323\AppData\Local\Temp\ccbQ7VoP.s 			page 53


 1663 027e 1B68     		ldr	r3, [r3]
 1664              		.loc 1 1303 56
 1665 0280 DA68     		ldr	r2, [r3, #12]
 1666              		.loc 1 1303 26
 1667 0282 FB68     		ldr	r3, [r7, #12]
 1668 0284 9B6B     		ldr	r3, [r3, #56]
 1669              		.loc 1 1303 40
 1670 0286 D2B2     		uxtb	r2, r2
 1671 0288 1A70     		strb	r2, [r3]
1304:Drivers/STM32F4xx_HAL_Driver/Src/stm32f4xx_hal_spi.c ****         hspi->pRxBuffPtr++;
 1672              		.loc 1 1304 13
 1673 028a FB68     		ldr	r3, [r7, #12]
 1674 028c 9B6B     		ldr	r3, [r3, #56]
 1675              		.loc 1 1304 25
 1676 028e 5A1C     		adds	r2, r3, #1
 1677 0290 FB68     		ldr	r3, [r7, #12]
 1678 0292 9A63     		str	r2, [r3, #56]
1305:Drivers/STM32F4xx_HAL_Driver/Src/stm32f4xx_hal_spi.c ****         hspi->RxXferCount--;
 1679              		.loc 1 1305 13
 1680 0294 FB68     		ldr	r3, [r7, #12]
 1681 0296 DB8F     		ldrh	r3, [r3, #62]	@ movhi
 1682 0298 9BB2     		uxth	r3, r3
 1683              		.loc 1 1305 26
 1684 029a 013B     		subs	r3, r3, #1
 1685 029c 9AB2     		uxth	r2, r3
 1686 029e FB68     		ldr	r3, [r7, #12]
 1687 02a0 DA87     		strh	r2, [r3, #62]	@ movhi
1306:Drivers/STM32F4xx_HAL_Driver/Src/stm32f4xx_hal_spi.c ****         /* Next Data is a Transmission (Tx). Tx is allowed */
1307:Drivers/STM32F4xx_HAL_Driver/Src/stm32f4xx_hal_spi.c ****         txallowed = 1U;
 1688              		.loc 1 1307 19
 1689 02a2 0123     		movs	r3, #1
 1690 02a4 7B62     		str	r3, [r7, #36]
 1691              	.L83:
1308:Drivers/STM32F4xx_HAL_Driver/Src/stm32f4xx_hal_spi.c ****       }
1309:Drivers/STM32F4xx_HAL_Driver/Src/stm32f4xx_hal_spi.c ****       if ((((HAL_GetTick() - tickstart) >=  Timeout) && ((Timeout != HAL_MAX_DELAY))) || (Timeout =
 1692              		.loc 1 1309 14
 1693 02a6 FFF7FEFF 		bl	HAL_GetTick
 1694 02aa 0246     		mov	r2, r0
 1695              		.loc 1 1309 28
 1696 02ac 3B6A     		ldr	r3, [r7, #32]
 1697 02ae D31A     		subs	r3, r2, r3
 1698              		.loc 1 1309 10
 1699 02b0 3A6B     		ldr	r2, [r7, #48]
 1700 02b2 9A42     		cmp	r2, r3
 1701 02b4 03D8     		bhi	.L84
 1702              		.loc 1 1309 54 discriminator 1
 1703 02b6 3B6B     		ldr	r3, [r7, #48]
 1704 02b8 B3F1FF3F 		cmp	r3, #-1
 1705 02bc 02D1     		bne	.L85
 1706              	.L84:
 1707              		.loc 1 1309 87 discriminator 3
 1708 02be 3B6B     		ldr	r3, [r7, #48]
 1709 02c0 002B     		cmp	r3, #0
 1710 02c2 09D1     		bne	.L81
 1711              	.L85:
1310:Drivers/STM32F4xx_HAL_Driver/Src/stm32f4xx_hal_spi.c ****       {
1311:Drivers/STM32F4xx_HAL_Driver/Src/stm32f4xx_hal_spi.c ****         hspi->State = HAL_SPI_STATE_READY;
ARM GAS  C:\Users\16323\AppData\Local\Temp\ccbQ7VoP.s 			page 54


 1712              		.loc 1 1311 21
 1713 02c4 FB68     		ldr	r3, [r7, #12]
 1714 02c6 0122     		movs	r2, #1
 1715 02c8 83F85120 		strb	r2, [r3, #81]
1312:Drivers/STM32F4xx_HAL_Driver/Src/stm32f4xx_hal_spi.c ****         __HAL_UNLOCK(hspi);
 1716              		.loc 1 1312 9
 1717 02cc FB68     		ldr	r3, [r7, #12]
 1718 02ce 0022     		movs	r2, #0
 1719 02d0 83F85020 		strb	r2, [r3, #80]
1313:Drivers/STM32F4xx_HAL_Driver/Src/stm32f4xx_hal_spi.c ****         return HAL_TIMEOUT;
 1720              		.loc 1 1313 16
 1721 02d4 0323     		movs	r3, #3
 1722 02d6 38E0     		b	.L65
 1723              	.L81:
1280:Drivers/STM32F4xx_HAL_Driver/Src/stm32f4xx_hal_spi.c ****     {
 1724              		.loc 1 1280 17
 1725 02d8 FB68     		ldr	r3, [r7, #12]
 1726 02da DB8E     		ldrh	r3, [r3, #54]	@ movhi
 1727 02dc 9BB2     		uxth	r3, r3
1280:Drivers/STM32F4xx_HAL_Driver/Src/stm32f4xx_hal_spi.c ****     {
 1728              		.loc 1 1280 11
 1729 02de 002B     		cmp	r3, #0
 1730 02e0 9CD1     		bne	.L86
1280:Drivers/STM32F4xx_HAL_Driver/Src/stm32f4xx_hal_spi.c ****     {
 1731              		.loc 1 1280 45 discriminator 1
 1732 02e2 FB68     		ldr	r3, [r7, #12]
 1733 02e4 DB8F     		ldrh	r3, [r3, #62]	@ movhi
 1734 02e6 9BB2     		uxth	r3, r3
1280:Drivers/STM32F4xx_HAL_Driver/Src/stm32f4xx_hal_spi.c ****     {
 1735              		.loc 1 1280 37 discriminator 1
 1736 02e8 002B     		cmp	r3, #0
 1737 02ea 97D1     		bne	.L86
 1738              	.L78:
1314:Drivers/STM32F4xx_HAL_Driver/Src/stm32f4xx_hal_spi.c ****       }
1315:Drivers/STM32F4xx_HAL_Driver/Src/stm32f4xx_hal_spi.c ****     }
1316:Drivers/STM32F4xx_HAL_Driver/Src/stm32f4xx_hal_spi.c ****   }
1317:Drivers/STM32F4xx_HAL_Driver/Src/stm32f4xx_hal_spi.c **** 
1318:Drivers/STM32F4xx_HAL_Driver/Src/stm32f4xx_hal_spi.c **** #if (USE_SPI_CRC != 0U)
1319:Drivers/STM32F4xx_HAL_Driver/Src/stm32f4xx_hal_spi.c ****   /* Read CRC from DR to close CRC calculation process */
1320:Drivers/STM32F4xx_HAL_Driver/Src/stm32f4xx_hal_spi.c ****   if (hspi->Init.CRCCalculation == SPI_CRCCALCULATION_ENABLE)
1321:Drivers/STM32F4xx_HAL_Driver/Src/stm32f4xx_hal_spi.c ****   {
1322:Drivers/STM32F4xx_HAL_Driver/Src/stm32f4xx_hal_spi.c ****     /* Wait until TXE flag */
1323:Drivers/STM32F4xx_HAL_Driver/Src/stm32f4xx_hal_spi.c ****     if (SPI_WaitFlagStateUntilTimeout(hspi, SPI_FLAG_RXNE, SET, Timeout, tickstart) != HAL_OK)
1324:Drivers/STM32F4xx_HAL_Driver/Src/stm32f4xx_hal_spi.c ****     {
1325:Drivers/STM32F4xx_HAL_Driver/Src/stm32f4xx_hal_spi.c ****       /* Error on the CRC reception */
1326:Drivers/STM32F4xx_HAL_Driver/Src/stm32f4xx_hal_spi.c ****       SET_BIT(hspi->ErrorCode, HAL_SPI_ERROR_CRC);
1327:Drivers/STM32F4xx_HAL_Driver/Src/stm32f4xx_hal_spi.c ****       hspi->State = HAL_SPI_STATE_READY;
1328:Drivers/STM32F4xx_HAL_Driver/Src/stm32f4xx_hal_spi.c ****       __HAL_UNLOCK(hspi);
1329:Drivers/STM32F4xx_HAL_Driver/Src/stm32f4xx_hal_spi.c ****       return HAL_TIMEOUT;
1330:Drivers/STM32F4xx_HAL_Driver/Src/stm32f4xx_hal_spi.c ****     }
1331:Drivers/STM32F4xx_HAL_Driver/Src/stm32f4xx_hal_spi.c ****     /* Read CRC */
1332:Drivers/STM32F4xx_HAL_Driver/Src/stm32f4xx_hal_spi.c ****     tmpreg = READ_REG(hspi->Instance->DR);
1333:Drivers/STM32F4xx_HAL_Driver/Src/stm32f4xx_hal_spi.c ****     /* To avoid GCC warning */
1334:Drivers/STM32F4xx_HAL_Driver/Src/stm32f4xx_hal_spi.c ****     UNUSED(tmpreg);
1335:Drivers/STM32F4xx_HAL_Driver/Src/stm32f4xx_hal_spi.c ****   }
1336:Drivers/STM32F4xx_HAL_Driver/Src/stm32f4xx_hal_spi.c **** 
1337:Drivers/STM32F4xx_HAL_Driver/Src/stm32f4xx_hal_spi.c ****   /* Check if CRC error occurred */
ARM GAS  C:\Users\16323\AppData\Local\Temp\ccbQ7VoP.s 			page 55


1338:Drivers/STM32F4xx_HAL_Driver/Src/stm32f4xx_hal_spi.c ****   if (__HAL_SPI_GET_FLAG(hspi, SPI_FLAG_CRCERR))
1339:Drivers/STM32F4xx_HAL_Driver/Src/stm32f4xx_hal_spi.c ****   {
1340:Drivers/STM32F4xx_HAL_Driver/Src/stm32f4xx_hal_spi.c ****     SET_BIT(hspi->ErrorCode, HAL_SPI_ERROR_CRC);
1341:Drivers/STM32F4xx_HAL_Driver/Src/stm32f4xx_hal_spi.c ****     /* Clear CRC Flag */
1342:Drivers/STM32F4xx_HAL_Driver/Src/stm32f4xx_hal_spi.c ****     __HAL_SPI_CLEAR_CRCERRFLAG(hspi);
1343:Drivers/STM32F4xx_HAL_Driver/Src/stm32f4xx_hal_spi.c ****     __HAL_UNLOCK(hspi);
1344:Drivers/STM32F4xx_HAL_Driver/Src/stm32f4xx_hal_spi.c ****     return HAL_ERROR;
1345:Drivers/STM32F4xx_HAL_Driver/Src/stm32f4xx_hal_spi.c ****   }
1346:Drivers/STM32F4xx_HAL_Driver/Src/stm32f4xx_hal_spi.c **** #endif /* USE_SPI_CRC */
1347:Drivers/STM32F4xx_HAL_Driver/Src/stm32f4xx_hal_spi.c **** 
1348:Drivers/STM32F4xx_HAL_Driver/Src/stm32f4xx_hal_spi.c ****   /* Check the end of the transaction */
1349:Drivers/STM32F4xx_HAL_Driver/Src/stm32f4xx_hal_spi.c ****   if (SPI_EndRxTxTransaction(hspi, Timeout, tickstart) != HAL_OK)
 1739              		.loc 1 1349 7
 1740 02ec 3A6A     		ldr	r2, [r7, #32]
 1741 02ee 396B     		ldr	r1, [r7, #48]
 1742 02f0 F868     		ldr	r0, [r7, #12]
 1743 02f2 FFF7FEFF 		bl	SPI_EndRxTxTransaction
 1744 02f6 0346     		mov	r3, r0
 1745              		.loc 1 1349 6
 1746 02f8 002B     		cmp	r3, #0
 1747 02fa 08D0     		beq	.L87
1350:Drivers/STM32F4xx_HAL_Driver/Src/stm32f4xx_hal_spi.c ****   {
1351:Drivers/STM32F4xx_HAL_Driver/Src/stm32f4xx_hal_spi.c ****     hspi->ErrorCode = HAL_SPI_ERROR_FLAG;
 1748              		.loc 1 1351 21
 1749 02fc FB68     		ldr	r3, [r7, #12]
 1750 02fe 2022     		movs	r2, #32
 1751 0300 5A65     		str	r2, [r3, #84]
1352:Drivers/STM32F4xx_HAL_Driver/Src/stm32f4xx_hal_spi.c ****     __HAL_UNLOCK(hspi);
 1752              		.loc 1 1352 5
 1753 0302 FB68     		ldr	r3, [r7, #12]
 1754 0304 0022     		movs	r2, #0
 1755 0306 83F85020 		strb	r2, [r3, #80]
1353:Drivers/STM32F4xx_HAL_Driver/Src/stm32f4xx_hal_spi.c ****     return HAL_ERROR;
 1756              		.loc 1 1353 12
 1757 030a 0123     		movs	r3, #1
 1758 030c 1DE0     		b	.L65
 1759              	.L87:
1354:Drivers/STM32F4xx_HAL_Driver/Src/stm32f4xx_hal_spi.c ****   }
1355:Drivers/STM32F4xx_HAL_Driver/Src/stm32f4xx_hal_spi.c **** 
1356:Drivers/STM32F4xx_HAL_Driver/Src/stm32f4xx_hal_spi.c ****   /* Clear overrun flag in 2 Lines communication mode because received is not read */
1357:Drivers/STM32F4xx_HAL_Driver/Src/stm32f4xx_hal_spi.c ****   if (hspi->Init.Direction == SPI_DIRECTION_2LINES)
 1760              		.loc 1 1357 17
 1761 030e FB68     		ldr	r3, [r7, #12]
 1762 0310 9B68     		ldr	r3, [r3, #8]
 1763              		.loc 1 1357 6
 1764 0312 002B     		cmp	r3, #0
 1765 0314 0AD1     		bne	.L88
 1766              	.LBB3:
1358:Drivers/STM32F4xx_HAL_Driver/Src/stm32f4xx_hal_spi.c ****   {
1359:Drivers/STM32F4xx_HAL_Driver/Src/stm32f4xx_hal_spi.c ****     __HAL_SPI_CLEAR_OVRFLAG(hspi);
 1767              		.loc 1 1359 5
 1768 0316 0023     		movs	r3, #0
 1769 0318 3B61     		str	r3, [r7, #16]
 1770 031a FB68     		ldr	r3, [r7, #12]
 1771 031c 1B68     		ldr	r3, [r3]
 1772 031e DB68     		ldr	r3, [r3, #12]
 1773 0320 3B61     		str	r3, [r7, #16]
ARM GAS  C:\Users\16323\AppData\Local\Temp\ccbQ7VoP.s 			page 56


 1774 0322 FB68     		ldr	r3, [r7, #12]
 1775 0324 1B68     		ldr	r3, [r3]
 1776 0326 9B68     		ldr	r3, [r3, #8]
 1777 0328 3B61     		str	r3, [r7, #16]
 1778 032a 3B69     		ldr	r3, [r7, #16]
 1779              	.L88:
 1780              	.LBE3:
1360:Drivers/STM32F4xx_HAL_Driver/Src/stm32f4xx_hal_spi.c ****   }
1361:Drivers/STM32F4xx_HAL_Driver/Src/stm32f4xx_hal_spi.c **** 
1362:Drivers/STM32F4xx_HAL_Driver/Src/stm32f4xx_hal_spi.c **** 
1363:Drivers/STM32F4xx_HAL_Driver/Src/stm32f4xx_hal_spi.c ****   hspi->State = HAL_SPI_STATE_READY;
 1781              		.loc 1 1363 15
 1782 032c FB68     		ldr	r3, [r7, #12]
 1783 032e 0122     		movs	r2, #1
 1784 0330 83F85120 		strb	r2, [r3, #81]
1364:Drivers/STM32F4xx_HAL_Driver/Src/stm32f4xx_hal_spi.c ****   /* Unlock the process */
1365:Drivers/STM32F4xx_HAL_Driver/Src/stm32f4xx_hal_spi.c ****   __HAL_UNLOCK(hspi);
 1785              		.loc 1 1365 3
 1786 0334 FB68     		ldr	r3, [r7, #12]
 1787 0336 0022     		movs	r2, #0
 1788 0338 83F85020 		strb	r2, [r3, #80]
1366:Drivers/STM32F4xx_HAL_Driver/Src/stm32f4xx_hal_spi.c **** 
1367:Drivers/STM32F4xx_HAL_Driver/Src/stm32f4xx_hal_spi.c ****   if (hspi->ErrorCode != HAL_SPI_ERROR_NONE)
 1789              		.loc 1 1367 11
 1790 033c FB68     		ldr	r3, [r7, #12]
 1791 033e 5B6D     		ldr	r3, [r3, #84]
 1792              		.loc 1 1367 6
 1793 0340 002B     		cmp	r3, #0
 1794 0342 01D0     		beq	.L89
1368:Drivers/STM32F4xx_HAL_Driver/Src/stm32f4xx_hal_spi.c ****   {
1369:Drivers/STM32F4xx_HAL_Driver/Src/stm32f4xx_hal_spi.c ****     return HAL_ERROR;
 1795              		.loc 1 1369 12
 1796 0344 0123     		movs	r3, #1
 1797 0346 00E0     		b	.L65
 1798              	.L89:
1370:Drivers/STM32F4xx_HAL_Driver/Src/stm32f4xx_hal_spi.c ****   }
1371:Drivers/STM32F4xx_HAL_Driver/Src/stm32f4xx_hal_spi.c ****   else
1372:Drivers/STM32F4xx_HAL_Driver/Src/stm32f4xx_hal_spi.c ****   {
1373:Drivers/STM32F4xx_HAL_Driver/Src/stm32f4xx_hal_spi.c ****     return HAL_OK;
 1799              		.loc 1 1373 12
 1800 0348 0023     		movs	r3, #0
 1801              	.L65:
1374:Drivers/STM32F4xx_HAL_Driver/Src/stm32f4xx_hal_spi.c ****   }
1375:Drivers/STM32F4xx_HAL_Driver/Src/stm32f4xx_hal_spi.c **** }
 1802              		.loc 1 1375 1
 1803 034a 1846     		mov	r0, r3
 1804 034c 2837     		adds	r7, r7, #40
 1805              	.LCFI35:
 1806              		.cfi_def_cfa_offset 8
 1807 034e BD46     		mov	sp, r7
 1808              	.LCFI36:
 1809              		.cfi_def_cfa_register 13
 1810              		@ sp needed
 1811 0350 80BD     		pop	{r7, pc}
 1812              		.cfi_endproc
 1813              	.LFE245:
 1815              		.section	.text.HAL_SPI_Transmit_IT,"ax",%progbits
ARM GAS  C:\Users\16323\AppData\Local\Temp\ccbQ7VoP.s 			page 57


 1816              		.align	1
 1817              		.global	HAL_SPI_Transmit_IT
 1818              		.syntax unified
 1819              		.thumb
 1820              		.thumb_func
 1822              	HAL_SPI_Transmit_IT:
 1823              	.LFB246:
1376:Drivers/STM32F4xx_HAL_Driver/Src/stm32f4xx_hal_spi.c **** 
1377:Drivers/STM32F4xx_HAL_Driver/Src/stm32f4xx_hal_spi.c **** /**
1378:Drivers/STM32F4xx_HAL_Driver/Src/stm32f4xx_hal_spi.c ****   * @brief  Transmit an amount of data in non-blocking mode with Interrupt.
1379:Drivers/STM32F4xx_HAL_Driver/Src/stm32f4xx_hal_spi.c ****   * @param  hspi pointer to a SPI_HandleTypeDef structure that contains
1380:Drivers/STM32F4xx_HAL_Driver/Src/stm32f4xx_hal_spi.c ****   *               the configuration information for SPI module.
1381:Drivers/STM32F4xx_HAL_Driver/Src/stm32f4xx_hal_spi.c ****   * @param  pData pointer to data buffer
1382:Drivers/STM32F4xx_HAL_Driver/Src/stm32f4xx_hal_spi.c ****   * @param  Size amount of data to be sent
1383:Drivers/STM32F4xx_HAL_Driver/Src/stm32f4xx_hal_spi.c ****   * @retval HAL status
1384:Drivers/STM32F4xx_HAL_Driver/Src/stm32f4xx_hal_spi.c ****   */
1385:Drivers/STM32F4xx_HAL_Driver/Src/stm32f4xx_hal_spi.c **** HAL_StatusTypeDef HAL_SPI_Transmit_IT(SPI_HandleTypeDef *hspi, const uint8_t *pData, uint16_t Size)
1386:Drivers/STM32F4xx_HAL_Driver/Src/stm32f4xx_hal_spi.c **** {
 1824              		.loc 1 1386 1
 1825              		.cfi_startproc
 1826              		@ args = 0, pretend = 0, frame = 16
 1827              		@ frame_needed = 1, uses_anonymous_args = 0
 1828              		@ link register save eliminated.
 1829 0000 80B4     		push	{r7}
 1830              	.LCFI37:
 1831              		.cfi_def_cfa_offset 4
 1832              		.cfi_offset 7, -4
 1833 0002 85B0     		sub	sp, sp, #20
 1834              	.LCFI38:
 1835              		.cfi_def_cfa_offset 24
 1836 0004 00AF     		add	r7, sp, #0
 1837              	.LCFI39:
 1838              		.cfi_def_cfa_register 7
 1839 0006 F860     		str	r0, [r7, #12]
 1840 0008 B960     		str	r1, [r7, #8]
 1841 000a 1346     		mov	r3, r2
 1842 000c FB80     		strh	r3, [r7, #6]	@ movhi
1387:Drivers/STM32F4xx_HAL_Driver/Src/stm32f4xx_hal_spi.c **** 
1388:Drivers/STM32F4xx_HAL_Driver/Src/stm32f4xx_hal_spi.c ****   /* Check Direction parameter */
1389:Drivers/STM32F4xx_HAL_Driver/Src/stm32f4xx_hal_spi.c ****   assert_param(IS_SPI_DIRECTION_2LINES_OR_1LINE(hspi->Init.Direction));
1390:Drivers/STM32F4xx_HAL_Driver/Src/stm32f4xx_hal_spi.c **** 
1391:Drivers/STM32F4xx_HAL_Driver/Src/stm32f4xx_hal_spi.c **** 
1392:Drivers/STM32F4xx_HAL_Driver/Src/stm32f4xx_hal_spi.c ****   if ((pData == NULL) || (Size == 0U))
 1843              		.loc 1 1392 6
 1844 000e BB68     		ldr	r3, [r7, #8]
 1845 0010 002B     		cmp	r3, #0
 1846 0012 02D0     		beq	.L91
 1847              		.loc 1 1392 23 discriminator 1
 1848 0014 FB88     		ldrh	r3, [r7, #6]
 1849 0016 002B     		cmp	r3, #0
 1850 0018 01D1     		bne	.L92
 1851              	.L91:
1393:Drivers/STM32F4xx_HAL_Driver/Src/stm32f4xx_hal_spi.c ****   {
1394:Drivers/STM32F4xx_HAL_Driver/Src/stm32f4xx_hal_spi.c ****     return HAL_ERROR;
 1852              		.loc 1 1394 12
 1853 001a 0123     		movs	r3, #1
 1854 001c 6AE0     		b	.L93
ARM GAS  C:\Users\16323\AppData\Local\Temp\ccbQ7VoP.s 			page 58


 1855              	.L92:
1395:Drivers/STM32F4xx_HAL_Driver/Src/stm32f4xx_hal_spi.c ****   }
1396:Drivers/STM32F4xx_HAL_Driver/Src/stm32f4xx_hal_spi.c **** 
1397:Drivers/STM32F4xx_HAL_Driver/Src/stm32f4xx_hal_spi.c ****   if (hspi->State != HAL_SPI_STATE_READY)
 1856              		.loc 1 1397 11
 1857 001e FB68     		ldr	r3, [r7, #12]
 1858 0020 93F85130 		ldrb	r3, [r3, #81]
 1859 0024 DBB2     		uxtb	r3, r3
 1860              		.loc 1 1397 6
 1861 0026 012B     		cmp	r3, #1
 1862 0028 01D0     		beq	.L94
1398:Drivers/STM32F4xx_HAL_Driver/Src/stm32f4xx_hal_spi.c ****   {
1399:Drivers/STM32F4xx_HAL_Driver/Src/stm32f4xx_hal_spi.c ****     return HAL_BUSY;
 1863              		.loc 1 1399 12
 1864 002a 0223     		movs	r3, #2
 1865 002c 62E0     		b	.L93
 1866              	.L94:
1400:Drivers/STM32F4xx_HAL_Driver/Src/stm32f4xx_hal_spi.c ****   }
1401:Drivers/STM32F4xx_HAL_Driver/Src/stm32f4xx_hal_spi.c **** 
1402:Drivers/STM32F4xx_HAL_Driver/Src/stm32f4xx_hal_spi.c ****   /* Process Locked */
1403:Drivers/STM32F4xx_HAL_Driver/Src/stm32f4xx_hal_spi.c ****   __HAL_LOCK(hspi);
 1867              		.loc 1 1403 3
 1868 002e FB68     		ldr	r3, [r7, #12]
 1869 0030 93F85030 		ldrb	r3, [r3, #80]	@ zero_extendqisi2
 1870 0034 012B     		cmp	r3, #1
 1871 0036 01D1     		bne	.L95
 1872              		.loc 1 1403 3 is_stmt 0 discriminator 1
 1873 0038 0223     		movs	r3, #2
 1874 003a 5BE0     		b	.L93
 1875              	.L95:
 1876              		.loc 1 1403 3 discriminator 2
 1877 003c FB68     		ldr	r3, [r7, #12]
 1878 003e 0122     		movs	r2, #1
 1879 0040 83F85020 		strb	r2, [r3, #80]
1404:Drivers/STM32F4xx_HAL_Driver/Src/stm32f4xx_hal_spi.c **** 
1405:Drivers/STM32F4xx_HAL_Driver/Src/stm32f4xx_hal_spi.c ****   /* Set the transaction information */
1406:Drivers/STM32F4xx_HAL_Driver/Src/stm32f4xx_hal_spi.c ****   hspi->State       = HAL_SPI_STATE_BUSY_TX;
 1880              		.loc 1 1406 21 is_stmt 1 discriminator 2
 1881 0044 FB68     		ldr	r3, [r7, #12]
 1882 0046 0322     		movs	r2, #3
 1883 0048 83F85120 		strb	r2, [r3, #81]
1407:Drivers/STM32F4xx_HAL_Driver/Src/stm32f4xx_hal_spi.c ****   hspi->ErrorCode   = HAL_SPI_ERROR_NONE;
 1884              		.loc 1 1407 21 discriminator 2
 1885 004c FB68     		ldr	r3, [r7, #12]
 1886 004e 0022     		movs	r2, #0
 1887 0050 5A65     		str	r2, [r3, #84]
1408:Drivers/STM32F4xx_HAL_Driver/Src/stm32f4xx_hal_spi.c ****   hspi->pTxBuffPtr  = (const uint8_t *)pData;
 1888              		.loc 1 1408 21 discriminator 2
 1889 0052 FB68     		ldr	r3, [r7, #12]
 1890 0054 BA68     		ldr	r2, [r7, #8]
 1891 0056 1A63     		str	r2, [r3, #48]
1409:Drivers/STM32F4xx_HAL_Driver/Src/stm32f4xx_hal_spi.c ****   hspi->TxXferSize  = Size;
 1892              		.loc 1 1409 21 discriminator 2
 1893 0058 FB68     		ldr	r3, [r7, #12]
 1894 005a FA88     		ldrh	r2, [r7, #6]	@ movhi
 1895 005c 9A86     		strh	r2, [r3, #52]	@ movhi
1410:Drivers/STM32F4xx_HAL_Driver/Src/stm32f4xx_hal_spi.c ****   hspi->TxXferCount = Size;
ARM GAS  C:\Users\16323\AppData\Local\Temp\ccbQ7VoP.s 			page 59


 1896              		.loc 1 1410 21 discriminator 2
 1897 005e FB68     		ldr	r3, [r7, #12]
 1898 0060 FA88     		ldrh	r2, [r7, #6]	@ movhi
 1899 0062 DA86     		strh	r2, [r3, #54]	@ movhi
1411:Drivers/STM32F4xx_HAL_Driver/Src/stm32f4xx_hal_spi.c **** 
1412:Drivers/STM32F4xx_HAL_Driver/Src/stm32f4xx_hal_spi.c ****   /* Init field not used in handle to zero */
1413:Drivers/STM32F4xx_HAL_Driver/Src/stm32f4xx_hal_spi.c ****   hspi->pRxBuffPtr  = (uint8_t *)NULL;
 1900              		.loc 1 1413 21 discriminator 2
 1901 0064 FB68     		ldr	r3, [r7, #12]
 1902 0066 0022     		movs	r2, #0
 1903 0068 9A63     		str	r2, [r3, #56]
1414:Drivers/STM32F4xx_HAL_Driver/Src/stm32f4xx_hal_spi.c ****   hspi->RxXferSize  = 0U;
 1904              		.loc 1 1414 21 discriminator 2
 1905 006a FB68     		ldr	r3, [r7, #12]
 1906 006c 0022     		movs	r2, #0
 1907 006e 9A87     		strh	r2, [r3, #60]	@ movhi
1415:Drivers/STM32F4xx_HAL_Driver/Src/stm32f4xx_hal_spi.c ****   hspi->RxXferCount = 0U;
 1908              		.loc 1 1415 21 discriminator 2
 1909 0070 FB68     		ldr	r3, [r7, #12]
 1910 0072 0022     		movs	r2, #0
 1911 0074 DA87     		strh	r2, [r3, #62]	@ movhi
1416:Drivers/STM32F4xx_HAL_Driver/Src/stm32f4xx_hal_spi.c ****   hspi->RxISR       = NULL;
 1912              		.loc 1 1416 21 discriminator 2
 1913 0076 FB68     		ldr	r3, [r7, #12]
 1914 0078 0022     		movs	r2, #0
 1915 007a 1A64     		str	r2, [r3, #64]
1417:Drivers/STM32F4xx_HAL_Driver/Src/stm32f4xx_hal_spi.c **** 
1418:Drivers/STM32F4xx_HAL_Driver/Src/stm32f4xx_hal_spi.c ****   /* Set the function for IT treatment */
1419:Drivers/STM32F4xx_HAL_Driver/Src/stm32f4xx_hal_spi.c ****   if (hspi->Init.DataSize > SPI_DATASIZE_8BIT)
 1916              		.loc 1 1419 17 discriminator 2
 1917 007c FB68     		ldr	r3, [r7, #12]
 1918 007e DB68     		ldr	r3, [r3, #12]
 1919              		.loc 1 1419 6 discriminator 2
 1920 0080 002B     		cmp	r3, #0
 1921 0082 03D0     		beq	.L96
1420:Drivers/STM32F4xx_HAL_Driver/Src/stm32f4xx_hal_spi.c ****   {
1421:Drivers/STM32F4xx_HAL_Driver/Src/stm32f4xx_hal_spi.c ****     hspi->TxISR = SPI_TxISR_16BIT;
 1922              		.loc 1 1421 17
 1923 0084 FB68     		ldr	r3, [r7, #12]
 1924 0086 1E4A     		ldr	r2, .L100
 1925 0088 5A64     		str	r2, [r3, #68]
 1926 008a 02E0     		b	.L97
 1927              	.L96:
1422:Drivers/STM32F4xx_HAL_Driver/Src/stm32f4xx_hal_spi.c ****   }
1423:Drivers/STM32F4xx_HAL_Driver/Src/stm32f4xx_hal_spi.c ****   else
1424:Drivers/STM32F4xx_HAL_Driver/Src/stm32f4xx_hal_spi.c ****   {
1425:Drivers/STM32F4xx_HAL_Driver/Src/stm32f4xx_hal_spi.c ****     hspi->TxISR = SPI_TxISR_8BIT;
 1928              		.loc 1 1425 17
 1929 008c FB68     		ldr	r3, [r7, #12]
 1930 008e 1D4A     		ldr	r2, .L100+4
 1931 0090 5A64     		str	r2, [r3, #68]
 1932              	.L97:
1426:Drivers/STM32F4xx_HAL_Driver/Src/stm32f4xx_hal_spi.c ****   }
1427:Drivers/STM32F4xx_HAL_Driver/Src/stm32f4xx_hal_spi.c **** 
1428:Drivers/STM32F4xx_HAL_Driver/Src/stm32f4xx_hal_spi.c ****   /* Configure communication direction : 1Line */
1429:Drivers/STM32F4xx_HAL_Driver/Src/stm32f4xx_hal_spi.c ****   if (hspi->Init.Direction == SPI_DIRECTION_1LINE)
 1933              		.loc 1 1429 17
ARM GAS  C:\Users\16323\AppData\Local\Temp\ccbQ7VoP.s 			page 60


 1934 0092 FB68     		ldr	r3, [r7, #12]
 1935 0094 9B68     		ldr	r3, [r3, #8]
 1936              		.loc 1 1429 6
 1937 0096 B3F5004F 		cmp	r3, #32768
 1938 009a 0FD1     		bne	.L98
1430:Drivers/STM32F4xx_HAL_Driver/Src/stm32f4xx_hal_spi.c ****   {
1431:Drivers/STM32F4xx_HAL_Driver/Src/stm32f4xx_hal_spi.c ****     /* Disable SPI Peripheral before set 1Line direction (BIDIOE bit) */
1432:Drivers/STM32F4xx_HAL_Driver/Src/stm32f4xx_hal_spi.c ****     __HAL_SPI_DISABLE(hspi);
 1939              		.loc 1 1432 5
 1940 009c FB68     		ldr	r3, [r7, #12]
 1941 009e 1B68     		ldr	r3, [r3]
 1942 00a0 1A68     		ldr	r2, [r3]
 1943 00a2 FB68     		ldr	r3, [r7, #12]
 1944 00a4 1B68     		ldr	r3, [r3]
 1945 00a6 22F04002 		bic	r2, r2, #64
 1946 00aa 1A60     		str	r2, [r3]
1433:Drivers/STM32F4xx_HAL_Driver/Src/stm32f4xx_hal_spi.c ****     SPI_1LINE_TX(hspi);
 1947              		.loc 1 1433 5
 1948 00ac FB68     		ldr	r3, [r7, #12]
 1949 00ae 1B68     		ldr	r3, [r3]
 1950 00b0 1A68     		ldr	r2, [r3]
 1951 00b2 FB68     		ldr	r3, [r7, #12]
 1952 00b4 1B68     		ldr	r3, [r3]
 1953 00b6 42F48042 		orr	r2, r2, #16384
 1954 00ba 1A60     		str	r2, [r3]
 1955              	.L98:
1434:Drivers/STM32F4xx_HAL_Driver/Src/stm32f4xx_hal_spi.c ****   }
1435:Drivers/STM32F4xx_HAL_Driver/Src/stm32f4xx_hal_spi.c **** 
1436:Drivers/STM32F4xx_HAL_Driver/Src/stm32f4xx_hal_spi.c **** #if (USE_SPI_CRC != 0U)
1437:Drivers/STM32F4xx_HAL_Driver/Src/stm32f4xx_hal_spi.c ****   /* Reset CRC Calculation */
1438:Drivers/STM32F4xx_HAL_Driver/Src/stm32f4xx_hal_spi.c ****   if (hspi->Init.CRCCalculation == SPI_CRCCALCULATION_ENABLE)
1439:Drivers/STM32F4xx_HAL_Driver/Src/stm32f4xx_hal_spi.c ****   {
1440:Drivers/STM32F4xx_HAL_Driver/Src/stm32f4xx_hal_spi.c ****     SPI_RESET_CRC(hspi);
1441:Drivers/STM32F4xx_HAL_Driver/Src/stm32f4xx_hal_spi.c ****   }
1442:Drivers/STM32F4xx_HAL_Driver/Src/stm32f4xx_hal_spi.c **** #endif /* USE_SPI_CRC */
1443:Drivers/STM32F4xx_HAL_Driver/Src/stm32f4xx_hal_spi.c **** 
1444:Drivers/STM32F4xx_HAL_Driver/Src/stm32f4xx_hal_spi.c ****   /* Check if the SPI is already enabled */
1445:Drivers/STM32F4xx_HAL_Driver/Src/stm32f4xx_hal_spi.c ****   if ((hspi->Instance->CR1 & SPI_CR1_SPE) != SPI_CR1_SPE)
 1956              		.loc 1 1445 12
 1957 00bc FB68     		ldr	r3, [r7, #12]
 1958 00be 1B68     		ldr	r3, [r3]
 1959              		.loc 1 1445 22
 1960 00c0 1B68     		ldr	r3, [r3]
 1961              		.loc 1 1445 28
 1962 00c2 03F04003 		and	r3, r3, #64
 1963              		.loc 1 1445 6
 1964 00c6 402B     		cmp	r3, #64
 1965 00c8 07D0     		beq	.L99
1446:Drivers/STM32F4xx_HAL_Driver/Src/stm32f4xx_hal_spi.c ****   {
1447:Drivers/STM32F4xx_HAL_Driver/Src/stm32f4xx_hal_spi.c ****     /* Enable SPI peripheral */
1448:Drivers/STM32F4xx_HAL_Driver/Src/stm32f4xx_hal_spi.c ****     __HAL_SPI_ENABLE(hspi);
 1966              		.loc 1 1448 5
 1967 00ca FB68     		ldr	r3, [r7, #12]
 1968 00cc 1B68     		ldr	r3, [r3]
 1969 00ce 1A68     		ldr	r2, [r3]
 1970 00d0 FB68     		ldr	r3, [r7, #12]
 1971 00d2 1B68     		ldr	r3, [r3]
ARM GAS  C:\Users\16323\AppData\Local\Temp\ccbQ7VoP.s 			page 61


 1972 00d4 42F04002 		orr	r2, r2, #64
 1973 00d8 1A60     		str	r2, [r3]
 1974              	.L99:
1449:Drivers/STM32F4xx_HAL_Driver/Src/stm32f4xx_hal_spi.c ****   }
1450:Drivers/STM32F4xx_HAL_Driver/Src/stm32f4xx_hal_spi.c **** 
1451:Drivers/STM32F4xx_HAL_Driver/Src/stm32f4xx_hal_spi.c ****   /* Process Unlocked */
1452:Drivers/STM32F4xx_HAL_Driver/Src/stm32f4xx_hal_spi.c ****   __HAL_UNLOCK(hspi);
 1975              		.loc 1 1452 3
 1976 00da FB68     		ldr	r3, [r7, #12]
 1977 00dc 0022     		movs	r2, #0
 1978 00de 83F85020 		strb	r2, [r3, #80]
1453:Drivers/STM32F4xx_HAL_Driver/Src/stm32f4xx_hal_spi.c ****   /* Enable TXE and ERR interrupt */
1454:Drivers/STM32F4xx_HAL_Driver/Src/stm32f4xx_hal_spi.c ****   __HAL_SPI_ENABLE_IT(hspi, (SPI_IT_TXE | SPI_IT_ERR));
 1979              		.loc 1 1454 3
 1980 00e2 FB68     		ldr	r3, [r7, #12]
 1981 00e4 1B68     		ldr	r3, [r3]
 1982 00e6 5A68     		ldr	r2, [r3, #4]
 1983 00e8 FB68     		ldr	r3, [r7, #12]
 1984 00ea 1B68     		ldr	r3, [r3]
 1985 00ec 42F0A002 		orr	r2, r2, #160
 1986 00f0 5A60     		str	r2, [r3, #4]
1455:Drivers/STM32F4xx_HAL_Driver/Src/stm32f4xx_hal_spi.c **** 
1456:Drivers/STM32F4xx_HAL_Driver/Src/stm32f4xx_hal_spi.c ****   return HAL_OK;
 1987              		.loc 1 1456 10
 1988 00f2 0023     		movs	r3, #0
 1989              	.L93:
1457:Drivers/STM32F4xx_HAL_Driver/Src/stm32f4xx_hal_spi.c **** }
 1990              		.loc 1 1457 1
 1991 00f4 1846     		mov	r0, r3
 1992 00f6 1437     		adds	r7, r7, #20
 1993              	.LCFI40:
 1994              		.cfi_def_cfa_offset 4
 1995 00f8 BD46     		mov	sp, r7
 1996              	.LCFI41:
 1997              		.cfi_def_cfa_register 13
 1998              		@ sp needed
 1999 00fa 5DF8047B 		ldr	r7, [sp], #4
 2000              	.LCFI42:
 2001              		.cfi_restore 7
 2002              		.cfi_def_cfa_offset 0
 2003 00fe 7047     		bx	lr
 2004              	.L101:
 2005              		.align	2
 2006              	.L100:
 2007 0100 00000000 		.word	SPI_TxISR_16BIT
 2008 0104 00000000 		.word	SPI_TxISR_8BIT
 2009              		.cfi_endproc
 2010              	.LFE246:
 2012              		.section	.text.HAL_SPI_Receive_IT,"ax",%progbits
 2013              		.align	1
 2014              		.global	HAL_SPI_Receive_IT
 2015              		.syntax unified
 2016              		.thumb
 2017              		.thumb_func
 2019              	HAL_SPI_Receive_IT:
 2020              	.LFB247:
1458:Drivers/STM32F4xx_HAL_Driver/Src/stm32f4xx_hal_spi.c **** 
ARM GAS  C:\Users\16323\AppData\Local\Temp\ccbQ7VoP.s 			page 62


1459:Drivers/STM32F4xx_HAL_Driver/Src/stm32f4xx_hal_spi.c **** /**
1460:Drivers/STM32F4xx_HAL_Driver/Src/stm32f4xx_hal_spi.c ****   * @brief  Receive an amount of data in non-blocking mode with Interrupt.
1461:Drivers/STM32F4xx_HAL_Driver/Src/stm32f4xx_hal_spi.c ****   * @param  hspi pointer to a SPI_HandleTypeDef structure that contains
1462:Drivers/STM32F4xx_HAL_Driver/Src/stm32f4xx_hal_spi.c ****   *               the configuration information for SPI module.
1463:Drivers/STM32F4xx_HAL_Driver/Src/stm32f4xx_hal_spi.c ****   * @param  pData pointer to data buffer
1464:Drivers/STM32F4xx_HAL_Driver/Src/stm32f4xx_hal_spi.c ****   * @param  Size amount of data to be sent
1465:Drivers/STM32F4xx_HAL_Driver/Src/stm32f4xx_hal_spi.c ****   * @retval HAL status
1466:Drivers/STM32F4xx_HAL_Driver/Src/stm32f4xx_hal_spi.c ****   */
1467:Drivers/STM32F4xx_HAL_Driver/Src/stm32f4xx_hal_spi.c **** HAL_StatusTypeDef HAL_SPI_Receive_IT(SPI_HandleTypeDef *hspi, uint8_t *pData, uint16_t Size)
1468:Drivers/STM32F4xx_HAL_Driver/Src/stm32f4xx_hal_spi.c **** {
 2021              		.loc 1 1468 1
 2022              		.cfi_startproc
 2023              		@ args = 0, pretend = 0, frame = 16
 2024              		@ frame_needed = 1, uses_anonymous_args = 0
 2025 0000 80B5     		push	{r7, lr}
 2026              	.LCFI43:
 2027              		.cfi_def_cfa_offset 8
 2028              		.cfi_offset 7, -8
 2029              		.cfi_offset 14, -4
 2030 0002 84B0     		sub	sp, sp, #16
 2031              	.LCFI44:
 2032              		.cfi_def_cfa_offset 24
 2033 0004 00AF     		add	r7, sp, #0
 2034              	.LCFI45:
 2035              		.cfi_def_cfa_register 7
 2036 0006 F860     		str	r0, [r7, #12]
 2037 0008 B960     		str	r1, [r7, #8]
 2038 000a 1346     		mov	r3, r2
 2039 000c FB80     		strh	r3, [r7, #6]	@ movhi
1469:Drivers/STM32F4xx_HAL_Driver/Src/stm32f4xx_hal_spi.c **** 
1470:Drivers/STM32F4xx_HAL_Driver/Src/stm32f4xx_hal_spi.c ****   if (hspi->State != HAL_SPI_STATE_READY)
 2040              		.loc 1 1470 11
 2041 000e FB68     		ldr	r3, [r7, #12]
 2042 0010 93F85130 		ldrb	r3, [r3, #81]
 2043 0014 DBB2     		uxtb	r3, r3
 2044              		.loc 1 1470 6
 2045 0016 012B     		cmp	r3, #1
 2046 0018 01D0     		beq	.L103
1471:Drivers/STM32F4xx_HAL_Driver/Src/stm32f4xx_hal_spi.c ****   {
1472:Drivers/STM32F4xx_HAL_Driver/Src/stm32f4xx_hal_spi.c ****     return HAL_BUSY;
 2047              		.loc 1 1472 12
 2048 001a 0223     		movs	r3, #2
 2049 001c 7FE0     		b	.L104
 2050              	.L103:
1473:Drivers/STM32F4xx_HAL_Driver/Src/stm32f4xx_hal_spi.c ****   }
1474:Drivers/STM32F4xx_HAL_Driver/Src/stm32f4xx_hal_spi.c **** 
1475:Drivers/STM32F4xx_HAL_Driver/Src/stm32f4xx_hal_spi.c ****   if ((hspi->Init.Direction == SPI_DIRECTION_2LINES) && (hspi->Init.Mode == SPI_MODE_MASTER))
 2051              		.loc 1 1475 18
 2052 001e FB68     		ldr	r3, [r7, #12]
 2053 0020 9B68     		ldr	r3, [r3, #8]
 2054              		.loc 1 1475 6
 2055 0022 002B     		cmp	r3, #0
 2056 0024 10D1     		bne	.L105
 2057              		.loc 1 1475 68 discriminator 1
 2058 0026 FB68     		ldr	r3, [r7, #12]
 2059 0028 5B68     		ldr	r3, [r3, #4]
 2060              		.loc 1 1475 54 discriminator 1
ARM GAS  C:\Users\16323\AppData\Local\Temp\ccbQ7VoP.s 			page 63


 2061 002a B3F5827F 		cmp	r3, #260
 2062 002e 0BD1     		bne	.L105
1476:Drivers/STM32F4xx_HAL_Driver/Src/stm32f4xx_hal_spi.c ****   {
1477:Drivers/STM32F4xx_HAL_Driver/Src/stm32f4xx_hal_spi.c ****     hspi->State = HAL_SPI_STATE_BUSY_RX;
 2063              		.loc 1 1477 17
 2064 0030 FB68     		ldr	r3, [r7, #12]
 2065 0032 0422     		movs	r2, #4
 2066 0034 83F85120 		strb	r2, [r3, #81]
1478:Drivers/STM32F4xx_HAL_Driver/Src/stm32f4xx_hal_spi.c ****     /* Call transmit-receive function to send Dummy data on Tx line and generate clock on CLK line 
1479:Drivers/STM32F4xx_HAL_Driver/Src/stm32f4xx_hal_spi.c ****     return HAL_SPI_TransmitReceive_IT(hspi, pData, pData, Size);
 2067              		.loc 1 1479 12
 2068 0038 FB88     		ldrh	r3, [r7, #6]
 2069 003a BA68     		ldr	r2, [r7, #8]
 2070 003c B968     		ldr	r1, [r7, #8]
 2071 003e F868     		ldr	r0, [r7, #12]
 2072 0040 FFF7FEFF 		bl	HAL_SPI_TransmitReceive_IT
 2073 0044 0346     		mov	r3, r0
 2074 0046 6AE0     		b	.L104
 2075              	.L105:
1480:Drivers/STM32F4xx_HAL_Driver/Src/stm32f4xx_hal_spi.c ****   }
1481:Drivers/STM32F4xx_HAL_Driver/Src/stm32f4xx_hal_spi.c **** 
1482:Drivers/STM32F4xx_HAL_Driver/Src/stm32f4xx_hal_spi.c **** 
1483:Drivers/STM32F4xx_HAL_Driver/Src/stm32f4xx_hal_spi.c ****   if ((pData == NULL) || (Size == 0U))
 2076              		.loc 1 1483 6
 2077 0048 BB68     		ldr	r3, [r7, #8]
 2078 004a 002B     		cmp	r3, #0
 2079 004c 02D0     		beq	.L106
 2080              		.loc 1 1483 23 discriminator 1
 2081 004e FB88     		ldrh	r3, [r7, #6]
 2082 0050 002B     		cmp	r3, #0
 2083 0052 01D1     		bne	.L107
 2084              	.L106:
1484:Drivers/STM32F4xx_HAL_Driver/Src/stm32f4xx_hal_spi.c ****   {
1485:Drivers/STM32F4xx_HAL_Driver/Src/stm32f4xx_hal_spi.c ****     return HAL_ERROR;
 2085              		.loc 1 1485 12
 2086 0054 0123     		movs	r3, #1
 2087 0056 62E0     		b	.L104
 2088              	.L107:
1486:Drivers/STM32F4xx_HAL_Driver/Src/stm32f4xx_hal_spi.c ****   }
1487:Drivers/STM32F4xx_HAL_Driver/Src/stm32f4xx_hal_spi.c **** 
1488:Drivers/STM32F4xx_HAL_Driver/Src/stm32f4xx_hal_spi.c ****   /* Process Locked */
1489:Drivers/STM32F4xx_HAL_Driver/Src/stm32f4xx_hal_spi.c ****   __HAL_LOCK(hspi);
 2089              		.loc 1 1489 3
 2090 0058 FB68     		ldr	r3, [r7, #12]
 2091 005a 93F85030 		ldrb	r3, [r3, #80]	@ zero_extendqisi2
 2092 005e 012B     		cmp	r3, #1
 2093 0060 01D1     		bne	.L108
 2094              		.loc 1 1489 3 is_stmt 0 discriminator 1
 2095 0062 0223     		movs	r3, #2
 2096 0064 5BE0     		b	.L104
 2097              	.L108:
 2098              		.loc 1 1489 3 discriminator 2
 2099 0066 FB68     		ldr	r3, [r7, #12]
 2100 0068 0122     		movs	r2, #1
 2101 006a 83F85020 		strb	r2, [r3, #80]
1490:Drivers/STM32F4xx_HAL_Driver/Src/stm32f4xx_hal_spi.c **** 
1491:Drivers/STM32F4xx_HAL_Driver/Src/stm32f4xx_hal_spi.c ****   /* Set the transaction information */
ARM GAS  C:\Users\16323\AppData\Local\Temp\ccbQ7VoP.s 			page 64


1492:Drivers/STM32F4xx_HAL_Driver/Src/stm32f4xx_hal_spi.c ****   hspi->State       = HAL_SPI_STATE_BUSY_RX;
 2102              		.loc 1 1492 21 is_stmt 1 discriminator 2
 2103 006e FB68     		ldr	r3, [r7, #12]
 2104 0070 0422     		movs	r2, #4
 2105 0072 83F85120 		strb	r2, [r3, #81]
1493:Drivers/STM32F4xx_HAL_Driver/Src/stm32f4xx_hal_spi.c ****   hspi->ErrorCode   = HAL_SPI_ERROR_NONE;
 2106              		.loc 1 1493 21 discriminator 2
 2107 0076 FB68     		ldr	r3, [r7, #12]
 2108 0078 0022     		movs	r2, #0
 2109 007a 5A65     		str	r2, [r3, #84]
1494:Drivers/STM32F4xx_HAL_Driver/Src/stm32f4xx_hal_spi.c ****   hspi->pRxBuffPtr  = (uint8_t *)pData;
 2110              		.loc 1 1494 21 discriminator 2
 2111 007c FB68     		ldr	r3, [r7, #12]
 2112 007e BA68     		ldr	r2, [r7, #8]
 2113 0080 9A63     		str	r2, [r3, #56]
1495:Drivers/STM32F4xx_HAL_Driver/Src/stm32f4xx_hal_spi.c ****   hspi->RxXferSize  = Size;
 2114              		.loc 1 1495 21 discriminator 2
 2115 0082 FB68     		ldr	r3, [r7, #12]
 2116 0084 FA88     		ldrh	r2, [r7, #6]	@ movhi
 2117 0086 9A87     		strh	r2, [r3, #60]	@ movhi
1496:Drivers/STM32F4xx_HAL_Driver/Src/stm32f4xx_hal_spi.c ****   hspi->RxXferCount = Size;
 2118              		.loc 1 1496 21 discriminator 2
 2119 0088 FB68     		ldr	r3, [r7, #12]
 2120 008a FA88     		ldrh	r2, [r7, #6]	@ movhi
 2121 008c DA87     		strh	r2, [r3, #62]	@ movhi
1497:Drivers/STM32F4xx_HAL_Driver/Src/stm32f4xx_hal_spi.c **** 
1498:Drivers/STM32F4xx_HAL_Driver/Src/stm32f4xx_hal_spi.c ****   /* Init field not used in handle to zero */
1499:Drivers/STM32F4xx_HAL_Driver/Src/stm32f4xx_hal_spi.c ****   hspi->pTxBuffPtr  = (uint8_t *)NULL;
 2122              		.loc 1 1499 21 discriminator 2
 2123 008e FB68     		ldr	r3, [r7, #12]
 2124 0090 0022     		movs	r2, #0
 2125 0092 1A63     		str	r2, [r3, #48]
1500:Drivers/STM32F4xx_HAL_Driver/Src/stm32f4xx_hal_spi.c ****   hspi->TxXferSize  = 0U;
 2126              		.loc 1 1500 21 discriminator 2
 2127 0094 FB68     		ldr	r3, [r7, #12]
 2128 0096 0022     		movs	r2, #0
 2129 0098 9A86     		strh	r2, [r3, #52]	@ movhi
1501:Drivers/STM32F4xx_HAL_Driver/Src/stm32f4xx_hal_spi.c ****   hspi->TxXferCount = 0U;
 2130              		.loc 1 1501 21 discriminator 2
 2131 009a FB68     		ldr	r3, [r7, #12]
 2132 009c 0022     		movs	r2, #0
 2133 009e DA86     		strh	r2, [r3, #54]	@ movhi
1502:Drivers/STM32F4xx_HAL_Driver/Src/stm32f4xx_hal_spi.c ****   hspi->TxISR       = NULL;
 2134              		.loc 1 1502 21 discriminator 2
 2135 00a0 FB68     		ldr	r3, [r7, #12]
 2136 00a2 0022     		movs	r2, #0
 2137 00a4 5A64     		str	r2, [r3, #68]
1503:Drivers/STM32F4xx_HAL_Driver/Src/stm32f4xx_hal_spi.c **** 
1504:Drivers/STM32F4xx_HAL_Driver/Src/stm32f4xx_hal_spi.c ****   /* Set the function for IT treatment */
1505:Drivers/STM32F4xx_HAL_Driver/Src/stm32f4xx_hal_spi.c ****   if (hspi->Init.DataSize > SPI_DATASIZE_8BIT)
 2138              		.loc 1 1505 17 discriminator 2
 2139 00a6 FB68     		ldr	r3, [r7, #12]
 2140 00a8 DB68     		ldr	r3, [r3, #12]
 2141              		.loc 1 1505 6 discriminator 2
 2142 00aa 002B     		cmp	r3, #0
 2143 00ac 03D0     		beq	.L109
1506:Drivers/STM32F4xx_HAL_Driver/Src/stm32f4xx_hal_spi.c ****   {
ARM GAS  C:\Users\16323\AppData\Local\Temp\ccbQ7VoP.s 			page 65


1507:Drivers/STM32F4xx_HAL_Driver/Src/stm32f4xx_hal_spi.c ****     hspi->RxISR = SPI_RxISR_16BIT;
 2144              		.loc 1 1507 17
 2145 00ae FB68     		ldr	r3, [r7, #12]
 2146 00b0 1D4A     		ldr	r2, .L113
 2147 00b2 1A64     		str	r2, [r3, #64]
 2148 00b4 02E0     		b	.L110
 2149              	.L109:
1508:Drivers/STM32F4xx_HAL_Driver/Src/stm32f4xx_hal_spi.c ****   }
1509:Drivers/STM32F4xx_HAL_Driver/Src/stm32f4xx_hal_spi.c ****   else
1510:Drivers/STM32F4xx_HAL_Driver/Src/stm32f4xx_hal_spi.c ****   {
1511:Drivers/STM32F4xx_HAL_Driver/Src/stm32f4xx_hal_spi.c ****     hspi->RxISR = SPI_RxISR_8BIT;
 2150              		.loc 1 1511 17
 2151 00b6 FB68     		ldr	r3, [r7, #12]
 2152 00b8 1C4A     		ldr	r2, .L113+4
 2153 00ba 1A64     		str	r2, [r3, #64]
 2154              	.L110:
1512:Drivers/STM32F4xx_HAL_Driver/Src/stm32f4xx_hal_spi.c ****   }
1513:Drivers/STM32F4xx_HAL_Driver/Src/stm32f4xx_hal_spi.c **** 
1514:Drivers/STM32F4xx_HAL_Driver/Src/stm32f4xx_hal_spi.c ****   /* Configure communication direction : 1Line */
1515:Drivers/STM32F4xx_HAL_Driver/Src/stm32f4xx_hal_spi.c ****   if (hspi->Init.Direction == SPI_DIRECTION_1LINE)
 2155              		.loc 1 1515 17
 2156 00bc FB68     		ldr	r3, [r7, #12]
 2157 00be 9B68     		ldr	r3, [r3, #8]
 2158              		.loc 1 1515 6
 2159 00c0 B3F5004F 		cmp	r3, #32768
 2160 00c4 0FD1     		bne	.L111
1516:Drivers/STM32F4xx_HAL_Driver/Src/stm32f4xx_hal_spi.c ****   {
1517:Drivers/STM32F4xx_HAL_Driver/Src/stm32f4xx_hal_spi.c ****     /* Disable SPI Peripheral before set 1Line direction (BIDIOE bit) */
1518:Drivers/STM32F4xx_HAL_Driver/Src/stm32f4xx_hal_spi.c ****     __HAL_SPI_DISABLE(hspi);
 2161              		.loc 1 1518 5
 2162 00c6 FB68     		ldr	r3, [r7, #12]
 2163 00c8 1B68     		ldr	r3, [r3]
 2164 00ca 1A68     		ldr	r2, [r3]
 2165 00cc FB68     		ldr	r3, [r7, #12]
 2166 00ce 1B68     		ldr	r3, [r3]
 2167 00d0 22F04002 		bic	r2, r2, #64
 2168 00d4 1A60     		str	r2, [r3]
1519:Drivers/STM32F4xx_HAL_Driver/Src/stm32f4xx_hal_spi.c ****     SPI_1LINE_RX(hspi);
 2169              		.loc 1 1519 5
 2170 00d6 FB68     		ldr	r3, [r7, #12]
 2171 00d8 1B68     		ldr	r3, [r3]
 2172 00da 1A68     		ldr	r2, [r3]
 2173 00dc FB68     		ldr	r3, [r7, #12]
 2174 00de 1B68     		ldr	r3, [r3]
 2175 00e0 22F48042 		bic	r2, r2, #16384
 2176 00e4 1A60     		str	r2, [r3]
 2177              	.L111:
1520:Drivers/STM32F4xx_HAL_Driver/Src/stm32f4xx_hal_spi.c ****   }
1521:Drivers/STM32F4xx_HAL_Driver/Src/stm32f4xx_hal_spi.c **** 
1522:Drivers/STM32F4xx_HAL_Driver/Src/stm32f4xx_hal_spi.c **** #if (USE_SPI_CRC != 0U)
1523:Drivers/STM32F4xx_HAL_Driver/Src/stm32f4xx_hal_spi.c ****   /* Reset CRC Calculation */
1524:Drivers/STM32F4xx_HAL_Driver/Src/stm32f4xx_hal_spi.c ****   if (hspi->Init.CRCCalculation == SPI_CRCCALCULATION_ENABLE)
1525:Drivers/STM32F4xx_HAL_Driver/Src/stm32f4xx_hal_spi.c ****   {
1526:Drivers/STM32F4xx_HAL_Driver/Src/stm32f4xx_hal_spi.c ****     SPI_RESET_CRC(hspi);
1527:Drivers/STM32F4xx_HAL_Driver/Src/stm32f4xx_hal_spi.c ****   }
1528:Drivers/STM32F4xx_HAL_Driver/Src/stm32f4xx_hal_spi.c **** #endif /* USE_SPI_CRC */
1529:Drivers/STM32F4xx_HAL_Driver/Src/stm32f4xx_hal_spi.c **** 
ARM GAS  C:\Users\16323\AppData\Local\Temp\ccbQ7VoP.s 			page 66


1530:Drivers/STM32F4xx_HAL_Driver/Src/stm32f4xx_hal_spi.c ****   /* Note : The SPI must be enabled after unlocking current process
1531:Drivers/STM32F4xx_HAL_Driver/Src/stm32f4xx_hal_spi.c ****             to avoid the risk of SPI interrupt handle execution before current
1532:Drivers/STM32F4xx_HAL_Driver/Src/stm32f4xx_hal_spi.c ****             process unlock */
1533:Drivers/STM32F4xx_HAL_Driver/Src/stm32f4xx_hal_spi.c **** 
1534:Drivers/STM32F4xx_HAL_Driver/Src/stm32f4xx_hal_spi.c ****   /* Check if the SPI is already enabled */
1535:Drivers/STM32F4xx_HAL_Driver/Src/stm32f4xx_hal_spi.c ****   if ((hspi->Instance->CR1 & SPI_CR1_SPE) != SPI_CR1_SPE)
 2178              		.loc 1 1535 12
 2179 00e6 FB68     		ldr	r3, [r7, #12]
 2180 00e8 1B68     		ldr	r3, [r3]
 2181              		.loc 1 1535 22
 2182 00ea 1B68     		ldr	r3, [r3]
 2183              		.loc 1 1535 28
 2184 00ec 03F04003 		and	r3, r3, #64
 2185              		.loc 1 1535 6
 2186 00f0 402B     		cmp	r3, #64
 2187 00f2 07D0     		beq	.L112
1536:Drivers/STM32F4xx_HAL_Driver/Src/stm32f4xx_hal_spi.c ****   {
1537:Drivers/STM32F4xx_HAL_Driver/Src/stm32f4xx_hal_spi.c ****     /* Enable SPI peripheral */
1538:Drivers/STM32F4xx_HAL_Driver/Src/stm32f4xx_hal_spi.c ****     __HAL_SPI_ENABLE(hspi);
 2188              		.loc 1 1538 5
 2189 00f4 FB68     		ldr	r3, [r7, #12]
 2190 00f6 1B68     		ldr	r3, [r3]
 2191 00f8 1A68     		ldr	r2, [r3]
 2192 00fa FB68     		ldr	r3, [r7, #12]
 2193 00fc 1B68     		ldr	r3, [r3]
 2194 00fe 42F04002 		orr	r2, r2, #64
 2195 0102 1A60     		str	r2, [r3]
 2196              	.L112:
1539:Drivers/STM32F4xx_HAL_Driver/Src/stm32f4xx_hal_spi.c ****   }
1540:Drivers/STM32F4xx_HAL_Driver/Src/stm32f4xx_hal_spi.c **** 
1541:Drivers/STM32F4xx_HAL_Driver/Src/stm32f4xx_hal_spi.c ****   /* Process Unlocked */
1542:Drivers/STM32F4xx_HAL_Driver/Src/stm32f4xx_hal_spi.c ****   __HAL_UNLOCK(hspi);
 2197              		.loc 1 1542 3
 2198 0104 FB68     		ldr	r3, [r7, #12]
 2199 0106 0022     		movs	r2, #0
 2200 0108 83F85020 		strb	r2, [r3, #80]
1543:Drivers/STM32F4xx_HAL_Driver/Src/stm32f4xx_hal_spi.c ****   /* Enable RXNE and ERR interrupt */
1544:Drivers/STM32F4xx_HAL_Driver/Src/stm32f4xx_hal_spi.c ****   __HAL_SPI_ENABLE_IT(hspi, (SPI_IT_RXNE | SPI_IT_ERR));
 2201              		.loc 1 1544 3
 2202 010c FB68     		ldr	r3, [r7, #12]
 2203 010e 1B68     		ldr	r3, [r3]
 2204 0110 5A68     		ldr	r2, [r3, #4]
 2205 0112 FB68     		ldr	r3, [r7, #12]
 2206 0114 1B68     		ldr	r3, [r3]
 2207 0116 42F06002 		orr	r2, r2, #96
 2208 011a 5A60     		str	r2, [r3, #4]
1545:Drivers/STM32F4xx_HAL_Driver/Src/stm32f4xx_hal_spi.c **** 
1546:Drivers/STM32F4xx_HAL_Driver/Src/stm32f4xx_hal_spi.c ****   return HAL_OK;
 2209              		.loc 1 1546 10
 2210 011c 0023     		movs	r3, #0
 2211              	.L104:
1547:Drivers/STM32F4xx_HAL_Driver/Src/stm32f4xx_hal_spi.c **** }
 2212              		.loc 1 1547 1
 2213 011e 1846     		mov	r0, r3
 2214 0120 1037     		adds	r7, r7, #16
 2215              	.LCFI46:
 2216              		.cfi_def_cfa_offset 8
ARM GAS  C:\Users\16323\AppData\Local\Temp\ccbQ7VoP.s 			page 67


 2217 0122 BD46     		mov	sp, r7
 2218              	.LCFI47:
 2219              		.cfi_def_cfa_register 13
 2220              		@ sp needed
 2221 0124 80BD     		pop	{r7, pc}
 2222              	.L114:
 2223 0126 00BF     		.align	2
 2224              	.L113:
 2225 0128 00000000 		.word	SPI_RxISR_16BIT
 2226 012c 00000000 		.word	SPI_RxISR_8BIT
 2227              		.cfi_endproc
 2228              	.LFE247:
 2230              		.section	.text.HAL_SPI_TransmitReceive_IT,"ax",%progbits
 2231              		.align	1
 2232              		.global	HAL_SPI_TransmitReceive_IT
 2233              		.syntax unified
 2234              		.thumb
 2235              		.thumb_func
 2237              	HAL_SPI_TransmitReceive_IT:
 2238              	.LFB248:
1548:Drivers/STM32F4xx_HAL_Driver/Src/stm32f4xx_hal_spi.c **** 
1549:Drivers/STM32F4xx_HAL_Driver/Src/stm32f4xx_hal_spi.c **** /**
1550:Drivers/STM32F4xx_HAL_Driver/Src/stm32f4xx_hal_spi.c ****   * @brief  Transmit and Receive an amount of data in non-blocking mode with Interrupt.
1551:Drivers/STM32F4xx_HAL_Driver/Src/stm32f4xx_hal_spi.c ****   * @param  hspi pointer to a SPI_HandleTypeDef structure that contains
1552:Drivers/STM32F4xx_HAL_Driver/Src/stm32f4xx_hal_spi.c ****   *               the configuration information for SPI module.
1553:Drivers/STM32F4xx_HAL_Driver/Src/stm32f4xx_hal_spi.c ****   * @param  pTxData pointer to transmission data buffer
1554:Drivers/STM32F4xx_HAL_Driver/Src/stm32f4xx_hal_spi.c ****   * @param  pRxData pointer to reception data buffer
1555:Drivers/STM32F4xx_HAL_Driver/Src/stm32f4xx_hal_spi.c ****   * @param  Size amount of data to be sent and received
1556:Drivers/STM32F4xx_HAL_Driver/Src/stm32f4xx_hal_spi.c ****   * @retval HAL status
1557:Drivers/STM32F4xx_HAL_Driver/Src/stm32f4xx_hal_spi.c ****   */
1558:Drivers/STM32F4xx_HAL_Driver/Src/stm32f4xx_hal_spi.c **** HAL_StatusTypeDef HAL_SPI_TransmitReceive_IT(SPI_HandleTypeDef *hspi, const uint8_t *pTxData, uint8
1559:Drivers/STM32F4xx_HAL_Driver/Src/stm32f4xx_hal_spi.c ****                                              uint16_t Size)
1560:Drivers/STM32F4xx_HAL_Driver/Src/stm32f4xx_hal_spi.c **** {
 2239              		.loc 1 1560 1
 2240              		.cfi_startproc
 2241              		@ args = 0, pretend = 0, frame = 24
 2242              		@ frame_needed = 1, uses_anonymous_args = 0
 2243              		@ link register save eliminated.
 2244 0000 80B4     		push	{r7}
 2245              	.LCFI48:
 2246              		.cfi_def_cfa_offset 4
 2247              		.cfi_offset 7, -4
 2248 0002 87B0     		sub	sp, sp, #28
 2249              	.LCFI49:
 2250              		.cfi_def_cfa_offset 32
 2251 0004 00AF     		add	r7, sp, #0
 2252              	.LCFI50:
 2253              		.cfi_def_cfa_register 7
 2254 0006 F860     		str	r0, [r7, #12]
 2255 0008 B960     		str	r1, [r7, #8]
 2256 000a 7A60     		str	r2, [r7, #4]
 2257 000c 7B80     		strh	r3, [r7, #2]	@ movhi
1561:Drivers/STM32F4xx_HAL_Driver/Src/stm32f4xx_hal_spi.c ****   uint32_t             tmp_mode;
1562:Drivers/STM32F4xx_HAL_Driver/Src/stm32f4xx_hal_spi.c ****   HAL_SPI_StateTypeDef tmp_state;
1563:Drivers/STM32F4xx_HAL_Driver/Src/stm32f4xx_hal_spi.c **** 
1564:Drivers/STM32F4xx_HAL_Driver/Src/stm32f4xx_hal_spi.c ****   /* Check Direction parameter */
1565:Drivers/STM32F4xx_HAL_Driver/Src/stm32f4xx_hal_spi.c ****   assert_param(IS_SPI_DIRECTION_2LINES(hspi->Init.Direction));
ARM GAS  C:\Users\16323\AppData\Local\Temp\ccbQ7VoP.s 			page 68


1566:Drivers/STM32F4xx_HAL_Driver/Src/stm32f4xx_hal_spi.c **** 
1567:Drivers/STM32F4xx_HAL_Driver/Src/stm32f4xx_hal_spi.c ****   /* Init temporary variables */
1568:Drivers/STM32F4xx_HAL_Driver/Src/stm32f4xx_hal_spi.c ****   tmp_state           = hspi->State;
 2258              		.loc 1 1568 23
 2259 000e FB68     		ldr	r3, [r7, #12]
 2260 0010 93F85130 		ldrb	r3, [r3, #81]
 2261 0014 FB75     		strb	r3, [r7, #23]
1569:Drivers/STM32F4xx_HAL_Driver/Src/stm32f4xx_hal_spi.c ****   tmp_mode            = hspi->Init.Mode;
 2262              		.loc 1 1569 23
 2263 0016 FB68     		ldr	r3, [r7, #12]
 2264 0018 5B68     		ldr	r3, [r3, #4]
 2265 001a 3B61     		str	r3, [r7, #16]
1570:Drivers/STM32F4xx_HAL_Driver/Src/stm32f4xx_hal_spi.c **** 
1571:Drivers/STM32F4xx_HAL_Driver/Src/stm32f4xx_hal_spi.c ****   if (!((tmp_state == HAL_SPI_STATE_READY) || \
 2266              		.loc 1 1571 6
 2267 001c FB7D     		ldrb	r3, [r7, #23]	@ zero_extendqisi2
 2268 001e 012B     		cmp	r3, #1
 2269 0020 0CD0     		beq	.L116
 2270              		.loc 1 1571 7 discriminator 1
 2271 0022 3B69     		ldr	r3, [r7, #16]
 2272 0024 B3F5827F 		cmp	r3, #260
 2273 0028 06D1     		bne	.L117
1572:Drivers/STM32F4xx_HAL_Driver/Src/stm32f4xx_hal_spi.c ****         ((tmp_mode == SPI_MODE_MASTER) && (hspi->Init.Direction == SPI_DIRECTION_2LINES) && (tmp_st
 2274              		.loc 1 1572 54
 2275 002a FB68     		ldr	r3, [r7, #12]
 2276 002c 9B68     		ldr	r3, [r3, #8]
 2277              		.loc 1 1572 40
 2278 002e 002B     		cmp	r3, #0
 2279 0030 02D1     		bne	.L117
 2280              		.loc 1 1572 90 discriminator 1
 2281 0032 FB7D     		ldrb	r3, [r7, #23]	@ zero_extendqisi2
 2282 0034 042B     		cmp	r3, #4
 2283 0036 01D0     		beq	.L116
 2284              	.L117:
1573:Drivers/STM32F4xx_HAL_Driver/Src/stm32f4xx_hal_spi.c ****   {
1574:Drivers/STM32F4xx_HAL_Driver/Src/stm32f4xx_hal_spi.c ****     return HAL_BUSY;
 2285              		.loc 1 1574 12
 2286 0038 0223     		movs	r3, #2
 2287 003a 61E0     		b	.L118
 2288              	.L116:
1575:Drivers/STM32F4xx_HAL_Driver/Src/stm32f4xx_hal_spi.c ****   }
1576:Drivers/STM32F4xx_HAL_Driver/Src/stm32f4xx_hal_spi.c **** 
1577:Drivers/STM32F4xx_HAL_Driver/Src/stm32f4xx_hal_spi.c ****   if ((pTxData == NULL) || (pRxData == NULL) || (Size == 0U))
 2289              		.loc 1 1577 6
 2290 003c BB68     		ldr	r3, [r7, #8]
 2291 003e 002B     		cmp	r3, #0
 2292 0040 05D0     		beq	.L119
 2293              		.loc 1 1577 25 discriminator 1
 2294 0042 7B68     		ldr	r3, [r7, #4]
 2295 0044 002B     		cmp	r3, #0
 2296 0046 02D0     		beq	.L119
 2297              		.loc 1 1577 46 discriminator 2
 2298 0048 7B88     		ldrh	r3, [r7, #2]
 2299 004a 002B     		cmp	r3, #0
 2300 004c 01D1     		bne	.L120
 2301              	.L119:
1578:Drivers/STM32F4xx_HAL_Driver/Src/stm32f4xx_hal_spi.c ****   {
ARM GAS  C:\Users\16323\AppData\Local\Temp\ccbQ7VoP.s 			page 69


1579:Drivers/STM32F4xx_HAL_Driver/Src/stm32f4xx_hal_spi.c ****     return HAL_ERROR;
 2302              		.loc 1 1579 12
 2303 004e 0123     		movs	r3, #1
 2304 0050 56E0     		b	.L118
 2305              	.L120:
1580:Drivers/STM32F4xx_HAL_Driver/Src/stm32f4xx_hal_spi.c ****   }
1581:Drivers/STM32F4xx_HAL_Driver/Src/stm32f4xx_hal_spi.c **** 
1582:Drivers/STM32F4xx_HAL_Driver/Src/stm32f4xx_hal_spi.c ****   /* Process locked */
1583:Drivers/STM32F4xx_HAL_Driver/Src/stm32f4xx_hal_spi.c ****   __HAL_LOCK(hspi);
 2306              		.loc 1 1583 3
 2307 0052 FB68     		ldr	r3, [r7, #12]
 2308 0054 93F85030 		ldrb	r3, [r3, #80]	@ zero_extendqisi2
 2309 0058 012B     		cmp	r3, #1
 2310 005a 01D1     		bne	.L121
 2311              		.loc 1 1583 3 is_stmt 0 discriminator 1
 2312 005c 0223     		movs	r3, #2
 2313 005e 4FE0     		b	.L118
 2314              	.L121:
 2315              		.loc 1 1583 3 discriminator 2
 2316 0060 FB68     		ldr	r3, [r7, #12]
 2317 0062 0122     		movs	r2, #1
 2318 0064 83F85020 		strb	r2, [r3, #80]
1584:Drivers/STM32F4xx_HAL_Driver/Src/stm32f4xx_hal_spi.c **** 
1585:Drivers/STM32F4xx_HAL_Driver/Src/stm32f4xx_hal_spi.c ****   /* Don't overwrite in case of HAL_SPI_STATE_BUSY_RX */
1586:Drivers/STM32F4xx_HAL_Driver/Src/stm32f4xx_hal_spi.c ****   if (hspi->State != HAL_SPI_STATE_BUSY_RX)
 2319              		.loc 1 1586 11 is_stmt 1 discriminator 2
 2320 0068 FB68     		ldr	r3, [r7, #12]
 2321 006a 93F85130 		ldrb	r3, [r3, #81]
 2322 006e DBB2     		uxtb	r3, r3
 2323              		.loc 1 1586 6 discriminator 2
 2324 0070 042B     		cmp	r3, #4
 2325 0072 03D0     		beq	.L122
1587:Drivers/STM32F4xx_HAL_Driver/Src/stm32f4xx_hal_spi.c ****   {
1588:Drivers/STM32F4xx_HAL_Driver/Src/stm32f4xx_hal_spi.c ****     hspi->State = HAL_SPI_STATE_BUSY_TX_RX;
 2326              		.loc 1 1588 17
 2327 0074 FB68     		ldr	r3, [r7, #12]
 2328 0076 0522     		movs	r2, #5
 2329 0078 83F85120 		strb	r2, [r3, #81]
 2330              	.L122:
1589:Drivers/STM32F4xx_HAL_Driver/Src/stm32f4xx_hal_spi.c ****   }
1590:Drivers/STM32F4xx_HAL_Driver/Src/stm32f4xx_hal_spi.c **** 
1591:Drivers/STM32F4xx_HAL_Driver/Src/stm32f4xx_hal_spi.c ****   /* Set the transaction information */
1592:Drivers/STM32F4xx_HAL_Driver/Src/stm32f4xx_hal_spi.c ****   hspi->ErrorCode   = HAL_SPI_ERROR_NONE;
 2331              		.loc 1 1592 21
 2332 007c FB68     		ldr	r3, [r7, #12]
 2333 007e 0022     		movs	r2, #0
 2334 0080 5A65     		str	r2, [r3, #84]
1593:Drivers/STM32F4xx_HAL_Driver/Src/stm32f4xx_hal_spi.c ****   hspi->pTxBuffPtr  = (const uint8_t *)pTxData;
 2335              		.loc 1 1593 21
 2336 0082 FB68     		ldr	r3, [r7, #12]
 2337 0084 BA68     		ldr	r2, [r7, #8]
 2338 0086 1A63     		str	r2, [r3, #48]
1594:Drivers/STM32F4xx_HAL_Driver/Src/stm32f4xx_hal_spi.c ****   hspi->TxXferSize  = Size;
 2339              		.loc 1 1594 21
 2340 0088 FB68     		ldr	r3, [r7, #12]
 2341 008a 7A88     		ldrh	r2, [r7, #2]	@ movhi
 2342 008c 9A86     		strh	r2, [r3, #52]	@ movhi
ARM GAS  C:\Users\16323\AppData\Local\Temp\ccbQ7VoP.s 			page 70


1595:Drivers/STM32F4xx_HAL_Driver/Src/stm32f4xx_hal_spi.c ****   hspi->TxXferCount = Size;
 2343              		.loc 1 1595 21
 2344 008e FB68     		ldr	r3, [r7, #12]
 2345 0090 7A88     		ldrh	r2, [r7, #2]	@ movhi
 2346 0092 DA86     		strh	r2, [r3, #54]	@ movhi
1596:Drivers/STM32F4xx_HAL_Driver/Src/stm32f4xx_hal_spi.c ****   hspi->pRxBuffPtr  = (uint8_t *)pRxData;
 2347              		.loc 1 1596 21
 2348 0094 FB68     		ldr	r3, [r7, #12]
 2349 0096 7A68     		ldr	r2, [r7, #4]
 2350 0098 9A63     		str	r2, [r3, #56]
1597:Drivers/STM32F4xx_HAL_Driver/Src/stm32f4xx_hal_spi.c ****   hspi->RxXferSize  = Size;
 2351              		.loc 1 1597 21
 2352 009a FB68     		ldr	r3, [r7, #12]
 2353 009c 7A88     		ldrh	r2, [r7, #2]	@ movhi
 2354 009e 9A87     		strh	r2, [r3, #60]	@ movhi
1598:Drivers/STM32F4xx_HAL_Driver/Src/stm32f4xx_hal_spi.c ****   hspi->RxXferCount = Size;
 2355              		.loc 1 1598 21
 2356 00a0 FB68     		ldr	r3, [r7, #12]
 2357 00a2 7A88     		ldrh	r2, [r7, #2]	@ movhi
 2358 00a4 DA87     		strh	r2, [r3, #62]	@ movhi
1599:Drivers/STM32F4xx_HAL_Driver/Src/stm32f4xx_hal_spi.c **** 
1600:Drivers/STM32F4xx_HAL_Driver/Src/stm32f4xx_hal_spi.c ****   /* Set the function for IT treatment */
1601:Drivers/STM32F4xx_HAL_Driver/Src/stm32f4xx_hal_spi.c ****   if (hspi->Init.DataSize > SPI_DATASIZE_8BIT)
 2359              		.loc 1 1601 17
 2360 00a6 FB68     		ldr	r3, [r7, #12]
 2361 00a8 DB68     		ldr	r3, [r3, #12]
 2362              		.loc 1 1601 6
 2363 00aa 002B     		cmp	r3, #0
 2364 00ac 06D0     		beq	.L123
1602:Drivers/STM32F4xx_HAL_Driver/Src/stm32f4xx_hal_spi.c ****   {
1603:Drivers/STM32F4xx_HAL_Driver/Src/stm32f4xx_hal_spi.c ****     hspi->RxISR     = SPI_2linesRxISR_16BIT;
 2365              		.loc 1 1603 21
 2366 00ae FB68     		ldr	r3, [r7, #12]
 2367 00b0 164A     		ldr	r2, .L126
 2368 00b2 1A64     		str	r2, [r3, #64]
1604:Drivers/STM32F4xx_HAL_Driver/Src/stm32f4xx_hal_spi.c ****     hspi->TxISR     = SPI_2linesTxISR_16BIT;
 2369              		.loc 1 1604 21
 2370 00b4 FB68     		ldr	r3, [r7, #12]
